ARM GAS  C:\Users\ANNASP~1\AppData\Local\Temp\ccsUsXsi.s 			page 1


   1              		.syntax unified
   2              		.cpu cortex-m3
   3              		.fpu softvfp
   4              		.eabi_attribute 20, 1
   5              		.eabi_attribute 21, 1
   6              		.eabi_attribute 23, 3
   7              		.eabi_attribute 24, 1
   8              		.eabi_attribute 25, 1
   9              		.eabi_attribute 26, 1
  10              		.eabi_attribute 30, 1
  11              		.eabi_attribute 34, 1
  12              		.eabi_attribute 18, 4
  13              		.thumb
  14              		.syntax unified
  15              		.file	"ADC_SigDel.c"
  16              		.text
  17              	.Ltext0:
  18              		.cfi_sections	.debug_frame
  19              		.section	.text.ADC_SigDel_GainCompensation,"ax",%progbits
  20              		.align	2
  21              		.thumb
  22              		.thumb_func
  23              		.type	ADC_SigDel_GainCompensation, %function
  24              	ADC_SigDel_GainCompensation:
  25              	.LFB21:
  26              		.file 1 "Generated_Source\\PSoC5\\ADC_SigDel.c"
   1:Generated_Source\PSoC5/ADC_SigDel.c **** /*******************************************************************************
   2:Generated_Source\PSoC5/ADC_SigDel.c **** * File Name: ADC_SigDel.c
   3:Generated_Source\PSoC5/ADC_SigDel.c **** * Version 3.30
   4:Generated_Source\PSoC5/ADC_SigDel.c **** *
   5:Generated_Source\PSoC5/ADC_SigDel.c **** * Description:
   6:Generated_Source\PSoC5/ADC_SigDel.c **** *  This file provides the source code to the API for the Delta-Sigma ADC
   7:Generated_Source\PSoC5/ADC_SigDel.c **** *  Component.
   8:Generated_Source\PSoC5/ADC_SigDel.c **** *
   9:Generated_Source\PSoC5/ADC_SigDel.c **** * Note:
  10:Generated_Source\PSoC5/ADC_SigDel.c **** *
  11:Generated_Source\PSoC5/ADC_SigDel.c **** ********************************************************************************
  12:Generated_Source\PSoC5/ADC_SigDel.c **** * Copyright 2008-2017, Cypress Semiconductor Corporation.  All rights reserved.
  13:Generated_Source\PSoC5/ADC_SigDel.c **** * You may use this file only in accordance with the license, terms, conditions,
  14:Generated_Source\PSoC5/ADC_SigDel.c **** * disclaimers, and limitations in the end user license agreement accompanying
  15:Generated_Source\PSoC5/ADC_SigDel.c **** * the software package with which this file was provided.
  16:Generated_Source\PSoC5/ADC_SigDel.c **** *******************************************************************************/
  17:Generated_Source\PSoC5/ADC_SigDel.c **** 
  18:Generated_Source\PSoC5/ADC_SigDel.c **** #include "ADC_SigDel.h"
  19:Generated_Source\PSoC5/ADC_SigDel.c **** 
  20:Generated_Source\PSoC5/ADC_SigDel.c **** #if(ADC_SigDel_DEFAULT_INTERNAL_CLK)
  21:Generated_Source\PSoC5/ADC_SigDel.c ****     #include "ADC_SigDel_theACLK.h"
  22:Generated_Source\PSoC5/ADC_SigDel.c **** #endif /* ADC_SigDel_DEFAULT_INTERNAL_CLK */
  23:Generated_Source\PSoC5/ADC_SigDel.c **** 
  24:Generated_Source\PSoC5/ADC_SigDel.c **** #include "ADC_SigDel_Ext_CP_Clk.h"
  25:Generated_Source\PSoC5/ADC_SigDel.c **** 
  26:Generated_Source\PSoC5/ADC_SigDel.c **** #if(ADC_SigDel_DEFAULT_INPUT_MODE)
  27:Generated_Source\PSoC5/ADC_SigDel.c ****     #include "ADC_SigDel_AMux.h"
  28:Generated_Source\PSoC5/ADC_SigDel.c **** #endif /* ADC_SigDel_DEFAULT_INPUT_MODE */
  29:Generated_Source\PSoC5/ADC_SigDel.c **** 
  30:Generated_Source\PSoC5/ADC_SigDel.c **** 
  31:Generated_Source\PSoC5/ADC_SigDel.c **** /***************************************
ARM GAS  C:\Users\ANNASP~1\AppData\Local\Temp\ccsUsXsi.s 			page 2


  32:Generated_Source\PSoC5/ADC_SigDel.c **** * Global data allocation
  33:Generated_Source\PSoC5/ADC_SigDel.c **** ***************************************/
  34:Generated_Source\PSoC5/ADC_SigDel.c **** 
  35:Generated_Source\PSoC5/ADC_SigDel.c **** /* Software flag for checking conversion completed or not */
  36:Generated_Source\PSoC5/ADC_SigDel.c **** volatile uint8 ADC_SigDel_convDone = 0u;
  37:Generated_Source\PSoC5/ADC_SigDel.c **** 
  38:Generated_Source\PSoC5/ADC_SigDel.c **** /* Software flag to stop conversion for single sample conversion mode
  39:Generated_Source\PSoC5/ADC_SigDel.c **** *   with resolution above 16 bits 
  40:Generated_Source\PSoC5/ADC_SigDel.c **** */
  41:Generated_Source\PSoC5/ADC_SigDel.c **** volatile uint8 ADC_SigDel_stopConversion = 0u;
  42:Generated_Source\PSoC5/ADC_SigDel.c **** 
  43:Generated_Source\PSoC5/ADC_SigDel.c **** /* To run the initialization block only at the start up */
  44:Generated_Source\PSoC5/ADC_SigDel.c **** uint8 ADC_SigDel_initVar = 0u;
  45:Generated_Source\PSoC5/ADC_SigDel.c **** 
  46:Generated_Source\PSoC5/ADC_SigDel.c **** /* To check whether ADC started or not before switching the configuration */
  47:Generated_Source\PSoC5/ADC_SigDel.c **** volatile uint8 ADC_SigDel_started = 0u;
  48:Generated_Source\PSoC5/ADC_SigDel.c **** 
  49:Generated_Source\PSoC5/ADC_SigDel.c **** /* Flag to hold ADC config number. By default active config is 1. */
  50:Generated_Source\PSoC5/ADC_SigDel.c **** volatile uint8 ADC_SigDel_Config = 1u;
  51:Generated_Source\PSoC5/ADC_SigDel.c **** 
  52:Generated_Source\PSoC5/ADC_SigDel.c **** volatile int32 ADC_SigDel_Offset = 0;
  53:Generated_Source\PSoC5/ADC_SigDel.c **** volatile int32 ADC_SigDel_CountsPerVolt;
  54:Generated_Source\PSoC5/ADC_SigDel.c **** 
  55:Generated_Source\PSoC5/ADC_SigDel.c **** 
  56:Generated_Source\PSoC5/ADC_SigDel.c **** /***************************************
  57:Generated_Source\PSoC5/ADC_SigDel.c **** * Local data allocation
  58:Generated_Source\PSoC5/ADC_SigDel.c **** ***************************************/
  59:Generated_Source\PSoC5/ADC_SigDel.c **** 
  60:Generated_Source\PSoC5/ADC_SigDel.c **** /* The array with precalculated gain compensation coefficients */
  61:Generated_Source\PSoC5/ADC_SigDel.c **** static ADC_SigDel_GCOR_STRUCT ADC_SigDel_gcor[ADC_SigDel_DEFAULT_NUM_CONFIGS];
  62:Generated_Source\PSoC5/ADC_SigDel.c **** 
  63:Generated_Source\PSoC5/ADC_SigDel.c **** 
  64:Generated_Source\PSoC5/ADC_SigDel.c **** 
  65:Generated_Source\PSoC5/ADC_SigDel.c **** /***************************************
  66:Generated_Source\PSoC5/ADC_SigDel.c **** * Forward function references
  67:Generated_Source\PSoC5/ADC_SigDel.c **** ***************************************/
  68:Generated_Source\PSoC5/ADC_SigDel.c **** static void ADC_SigDel_InitConfig(uint8 config) ;
  69:Generated_Source\PSoC5/ADC_SigDel.c **** static void ADC_SigDel_GainCompensation(uint8 inputRange, uint16 idealDecGain, uint16 idealOddDecGa
  70:Generated_Source\PSoC5/ADC_SigDel.c ****                             uint8 resolution, uint8 config) ;
  71:Generated_Source\PSoC5/ADC_SigDel.c **** static void ADC_SigDel_SetDSMRef0Reg(uint8 value) ;
  72:Generated_Source\PSoC5/ADC_SigDel.c **** 
  73:Generated_Source\PSoC5/ADC_SigDel.c **** 
  74:Generated_Source\PSoC5/ADC_SigDel.c **** /******************************************************************************
  75:Generated_Source\PSoC5/ADC_SigDel.c **** * Function Name: ADC_SigDel_Init
  76:Generated_Source\PSoC5/ADC_SigDel.c **** *******************************************************************************
  77:Generated_Source\PSoC5/ADC_SigDel.c **** *
  78:Generated_Source\PSoC5/ADC_SigDel.c **** * Summary:
  79:Generated_Source\PSoC5/ADC_SigDel.c **** *  Initialize component's parameters to the parameters set by user in the
  80:Generated_Source\PSoC5/ADC_SigDel.c **** *  customizer of the component placed onto schematic. Usually called in
  81:Generated_Source\PSoC5/ADC_SigDel.c **** * ADC_SigDel_Start().
  82:Generated_Source\PSoC5/ADC_SigDel.c **** *
  83:Generated_Source\PSoC5/ADC_SigDel.c **** *
  84:Generated_Source\PSoC5/ADC_SigDel.c **** * Parameters:
  85:Generated_Source\PSoC5/ADC_SigDel.c **** *  None
  86:Generated_Source\PSoC5/ADC_SigDel.c **** *
  87:Generated_Source\PSoC5/ADC_SigDel.c **** * Return:
  88:Generated_Source\PSoC5/ADC_SigDel.c **** *  None
ARM GAS  C:\Users\ANNASP~1\AppData\Local\Temp\ccsUsXsi.s 			page 3


  89:Generated_Source\PSoC5/ADC_SigDel.c **** *
  90:Generated_Source\PSoC5/ADC_SigDel.c **** *******************************************************************************/
  91:Generated_Source\PSoC5/ADC_SigDel.c **** void ADC_SigDel_Init(void) 
  92:Generated_Source\PSoC5/ADC_SigDel.c **** {
  93:Generated_Source\PSoC5/ADC_SigDel.c **** 
  94:Generated_Source\PSoC5/ADC_SigDel.c ****     ADC_SigDel_Config = 1u;
  95:Generated_Source\PSoC5/ADC_SigDel.c ****     ADC_SigDel_convDone = 0u;
  96:Generated_Source\PSoC5/ADC_SigDel.c **** 
  97:Generated_Source\PSoC5/ADC_SigDel.c ****     ADC_SigDel_Ext_CP_Clk_SetMode(CYCLK_DUTY);
  98:Generated_Source\PSoC5/ADC_SigDel.c **** 
  99:Generated_Source\PSoC5/ADC_SigDel.c ****     /* This is only valid if there is an internal clock */
 100:Generated_Source\PSoC5/ADC_SigDel.c ****     #if(ADC_SigDel_DEFAULT_INTERNAL_CLK)
 101:Generated_Source\PSoC5/ADC_SigDel.c ****         ADC_SigDel_theACLK_SetMode(CYCLK_DUTY);
 102:Generated_Source\PSoC5/ADC_SigDel.c ****     #endif /* ADC_SigDel_DEFAULT_INTERNAL_CLK */
 103:Generated_Source\PSoC5/ADC_SigDel.c **** 
 104:Generated_Source\PSoC5/ADC_SigDel.c ****     #if(ADC_SigDel_IRQ_REMOVE == 0u)
 105:Generated_Source\PSoC5/ADC_SigDel.c ****         /* Set interrupt priority */
 106:Generated_Source\PSoC5/ADC_SigDel.c ****         CyIntSetPriority(ADC_SigDel_INTC_NUMBER, ADC_SigDel_INTC_PRIOR_NUMBER);
 107:Generated_Source\PSoC5/ADC_SigDel.c ****     #endif   /* End ADC_SigDel_IRQ_REMOVE */
 108:Generated_Source\PSoC5/ADC_SigDel.c **** 
 109:Generated_Source\PSoC5/ADC_SigDel.c ****     /* Init static registers with common configuration */
 110:Generated_Source\PSoC5/ADC_SigDel.c ****     ADC_SigDel_DSM_DEM0_REG    = ADC_SigDel_CFG1_DSM_DEM0;
 111:Generated_Source\PSoC5/ADC_SigDel.c ****     ADC_SigDel_DSM_DEM1_REG    = ADC_SigDel_CFG1_DSM_DEM1;
 112:Generated_Source\PSoC5/ADC_SigDel.c ****     ADC_SigDel_DSM_MISC_REG    = ADC_SigDel_CFG1_DSM_MISC;
 113:Generated_Source\PSoC5/ADC_SigDel.c ****     ADC_SigDel_DSM_CLK_REG    |= ADC_SigDel_CFG1_DSM_CLK;
 114:Generated_Source\PSoC5/ADC_SigDel.c ****     ADC_SigDel_DSM_REF1_REG    = ADC_SigDel_CFG1_DSM_REF1;
 115:Generated_Source\PSoC5/ADC_SigDel.c **** 
 116:Generated_Source\PSoC5/ADC_SigDel.c ****     ADC_SigDel_DSM_OUT0_REG    = ADC_SigDel_CFG1_DSM_OUT0;
 117:Generated_Source\PSoC5/ADC_SigDel.c ****     ADC_SigDel_DSM_OUT1_REG    = ADC_SigDel_CFG1_DSM_OUT1;
 118:Generated_Source\PSoC5/ADC_SigDel.c **** 
 119:Generated_Source\PSoC5/ADC_SigDel.c ****     ADC_SigDel_DSM_CR0_REG     = ADC_SigDel_CFG1_DSM_CR0;
 120:Generated_Source\PSoC5/ADC_SigDel.c ****     ADC_SigDel_DSM_CR1_REG     = ADC_SigDel_CFG1_DSM_CR1;
 121:Generated_Source\PSoC5/ADC_SigDel.c **** #if(ADC_SigDel_MI_ENABLE != 0u) /* Enable Modulator Input */
 122:Generated_Source\PSoC5/ADC_SigDel.c ****     ADC_SigDel_DSM_CR3_REG     |= ADC_SigDel_DSM_MODBIT_EN;
 123:Generated_Source\PSoC5/ADC_SigDel.c **** #else
 124:Generated_Source\PSoC5/ADC_SigDel.c ****     ADC_SigDel_DSM_CR3_REG     = ADC_SigDel_CFG1_DSM_CR3;
 125:Generated_Source\PSoC5/ADC_SigDel.c **** #endif /* ADC_SigDel_MI_ENABLE != 0u*/    
 126:Generated_Source\PSoC5/ADC_SigDel.c ****     ADC_SigDel_DSM_CR8_REG     = ADC_SigDel_CFG1_DSM_CR8;
 127:Generated_Source\PSoC5/ADC_SigDel.c ****     ADC_SigDel_DSM_CR9_REG     = ADC_SigDel_CFG1_DSM_CR9;
 128:Generated_Source\PSoC5/ADC_SigDel.c ****     ADC_SigDel_DSM_CR13_REG    = ADC_SigDel_CFG1_DSM_CR13;
 129:Generated_Source\PSoC5/ADC_SigDel.c **** 
 130:Generated_Source\PSoC5/ADC_SigDel.c ****     ADC_SigDel_DEC_SR_REG      = ADC_SigDel_CFG1_DEC_SR;
 131:Generated_Source\PSoC5/ADC_SigDel.c **** 
 132:Generated_Source\PSoC5/ADC_SigDel.c ****     /* Calculate Gain compensation coefficients for all configurations */
 133:Generated_Source\PSoC5/ADC_SigDel.c ****     ADC_SigDel_GainCompensation(ADC_SigDel_CFG1_INPUT_RANGE,
 134:Generated_Source\PSoC5/ADC_SigDel.c ****                                       ADC_SigDel_CFG1_IDEAL_DEC_GAIN,
 135:Generated_Source\PSoC5/ADC_SigDel.c ****                                       ADC_SigDel_CFG1_IDEAL_ODDDEC_GAIN,
 136:Generated_Source\PSoC5/ADC_SigDel.c ****                                       ADC_SigDel_CFG1_RESOLUTION,
 137:Generated_Source\PSoC5/ADC_SigDel.c ****                                       ADC_SigDel_CFG1);
 138:Generated_Source\PSoC5/ADC_SigDel.c ****     #if(ADC_SigDel_DEFAULT_NUM_CONFIGS > 1)
 139:Generated_Source\PSoC5/ADC_SigDel.c ****         ADC_SigDel_GainCompensation(ADC_SigDel_CFG2_INPUT_RANGE,
 140:Generated_Source\PSoC5/ADC_SigDel.c ****                                           ADC_SigDel_CFG2_IDEAL_DEC_GAIN,
 141:Generated_Source\PSoC5/ADC_SigDel.c ****                                           ADC_SigDel_CFG2_IDEAL_ODDDEC_GAIN,
 142:Generated_Source\PSoC5/ADC_SigDel.c ****                                           ADC_SigDel_CFG2_RESOLUTION,
 143:Generated_Source\PSoC5/ADC_SigDel.c ****                                           ADC_SigDel_CFG2);
 144:Generated_Source\PSoC5/ADC_SigDel.c ****     #endif /* ADC_SigDel_DEFAULT_NUM_CONFIGS > 1 */
 145:Generated_Source\PSoC5/ADC_SigDel.c ****     #if(ADC_SigDel_DEFAULT_NUM_CONFIGS > 2)
ARM GAS  C:\Users\ANNASP~1\AppData\Local\Temp\ccsUsXsi.s 			page 4


 146:Generated_Source\PSoC5/ADC_SigDel.c ****         ADC_SigDel_GainCompensation(ADC_SigDel_CFG3_INPUT_RANGE,
 147:Generated_Source\PSoC5/ADC_SigDel.c ****                                           ADC_SigDel_CFG3_IDEAL_DEC_GAIN,
 148:Generated_Source\PSoC5/ADC_SigDel.c ****                                           ADC_SigDel_CFG3_IDEAL_ODDDEC_GAIN,
 149:Generated_Source\PSoC5/ADC_SigDel.c ****                                           ADC_SigDel_CFG3_RESOLUTION,
 150:Generated_Source\PSoC5/ADC_SigDel.c ****                                           ADC_SigDel_CFG3);
 151:Generated_Source\PSoC5/ADC_SigDel.c ****     #endif /* ADC_SigDel_DEFAULT_NUM_CONFIGS > 2 */
 152:Generated_Source\PSoC5/ADC_SigDel.c ****     #if(ADC_SigDel_DEFAULT_NUM_CONFIGS > 3)
 153:Generated_Source\PSoC5/ADC_SigDel.c ****         ADC_SigDel_GainCompensation(ADC_SigDel_CFG4_INPUT_RANGE,
 154:Generated_Source\PSoC5/ADC_SigDel.c ****                                           ADC_SigDel_CFG4_IDEAL_DEC_GAIN,
 155:Generated_Source\PSoC5/ADC_SigDel.c ****                                           ADC_SigDel_CFG4_IDEAL_ODDDEC_GAIN,
 156:Generated_Source\PSoC5/ADC_SigDel.c ****                                           ADC_SigDel_CFG4_RESOLUTION,
 157:Generated_Source\PSoC5/ADC_SigDel.c ****                                           ADC_SigDel_CFG4);
 158:Generated_Source\PSoC5/ADC_SigDel.c ****     #endif /* ADC_SigDel_DEFAULT_NUM_CONFIGS > 3 */
 159:Generated_Source\PSoC5/ADC_SigDel.c **** 
 160:Generated_Source\PSoC5/ADC_SigDel.c ****     /* Set GCOR register for config1 */
 161:Generated_Source\PSoC5/ADC_SigDel.c ****     ADC_SigDel_DEC_GVAL_REG = ADC_SigDel_gcor[ADC_SigDel_Config - 1u].gval;
 162:Generated_Source\PSoC5/ADC_SigDel.c ****     CY_SET_REG16(ADC_SigDel_DEC_GCOR_16B_PTR, ADC_SigDel_gcor[ADC_SigDel_Config - 1u].gcor);
 163:Generated_Source\PSoC5/ADC_SigDel.c **** 
 164:Generated_Source\PSoC5/ADC_SigDel.c ****     /* Initialize the registers with default customizer settings for config1 */
 165:Generated_Source\PSoC5/ADC_SigDel.c ****     ADC_SigDel_InitConfig(ADC_SigDel_Config);
 166:Generated_Source\PSoC5/ADC_SigDel.c **** }
 167:Generated_Source\PSoC5/ADC_SigDel.c **** 
 168:Generated_Source\PSoC5/ADC_SigDel.c **** 
 169:Generated_Source\PSoC5/ADC_SigDel.c **** /******************************************************************************
 170:Generated_Source\PSoC5/ADC_SigDel.c **** * Function Name: ADC_SigDel_Enable
 171:Generated_Source\PSoC5/ADC_SigDel.c **** *******************************************************************************
 172:Generated_Source\PSoC5/ADC_SigDel.c **** *
 173:Generated_Source\PSoC5/ADC_SigDel.c **** * Summary:
 174:Generated_Source\PSoC5/ADC_SigDel.c **** *  Enables the ADC DelSig block operation.
 175:Generated_Source\PSoC5/ADC_SigDel.c **** *
 176:Generated_Source\PSoC5/ADC_SigDel.c **** * Parameters:
 177:Generated_Source\PSoC5/ADC_SigDel.c **** *  None
 178:Generated_Source\PSoC5/ADC_SigDel.c **** *
 179:Generated_Source\PSoC5/ADC_SigDel.c **** * Return:
 180:Generated_Source\PSoC5/ADC_SigDel.c **** *  None
 181:Generated_Source\PSoC5/ADC_SigDel.c **** *
 182:Generated_Source\PSoC5/ADC_SigDel.c **** * Side Effects: 
 183:Generated_Source\PSoC5/ADC_SigDel.c **** *  Enables internal interrupt.
 184:Generated_Source\PSoC5/ADC_SigDel.c **** *
 185:Generated_Source\PSoC5/ADC_SigDel.c **** *******************************************************************************/
 186:Generated_Source\PSoC5/ADC_SigDel.c **** void ADC_SigDel_Enable(void) 
 187:Generated_Source\PSoC5/ADC_SigDel.c **** {
 188:Generated_Source\PSoC5/ADC_SigDel.c **** 	uint8 config;
 189:Generated_Source\PSoC5/ADC_SigDel.c ****     uint8 enableInterrupts;
 190:Generated_Source\PSoC5/ADC_SigDel.c ****     enableInterrupts = CyEnterCriticalSection();
 191:Generated_Source\PSoC5/ADC_SigDel.c **** 
 192:Generated_Source\PSoC5/ADC_SigDel.c ****     /* Read volatile variable to the local variable */
 193:Generated_Source\PSoC5/ADC_SigDel.c ****     config = ADC_SigDel_Config;
 194:Generated_Source\PSoC5/ADC_SigDel.c ****     
 195:Generated_Source\PSoC5/ADC_SigDel.c ****     /* Enable active mode power for ADC */
 196:Generated_Source\PSoC5/ADC_SigDel.c ****     ADC_SigDel_PWRMGR_DEC_REG |= ADC_SigDel_ACT_PWR_DEC_EN;
 197:Generated_Source\PSoC5/ADC_SigDel.c ****     ADC_SigDel_PWRMGR_DSM_REG |= ADC_SigDel_ACT_PWR_DSM_EN;
 198:Generated_Source\PSoC5/ADC_SigDel.c **** 
 199:Generated_Source\PSoC5/ADC_SigDel.c ****      /* Enable alternative active mode power for ADC */
 200:Generated_Source\PSoC5/ADC_SigDel.c ****     ADC_SigDel_STBY_PWRMGR_DEC_REG |= ADC_SigDel_STBY_PWR_DEC_EN;
 201:Generated_Source\PSoC5/ADC_SigDel.c ****     ADC_SigDel_STBY_PWRMGR_DSM_REG |= ADC_SigDel_STBY_PWR_DSM_EN;
 202:Generated_Source\PSoC5/ADC_SigDel.c **** 
ARM GAS  C:\Users\ANNASP~1\AppData\Local\Temp\ccsUsXsi.s 			page 5


 203:Generated_Source\PSoC5/ADC_SigDel.c ****     /* Disable PRES, Enable power to VCMBUF0, REFBUF0 and REFBUF1, enable PRES */
 204:Generated_Source\PSoC5/ADC_SigDel.c ****     ADC_SigDel_RESET_CR4_REG |= ADC_SigDel_IGNORE_PRESA1;
 205:Generated_Source\PSoC5/ADC_SigDel.c ****     ADC_SigDel_RESET_CR5_REG |= ADC_SigDel_IGNORE_PRESA2;
 206:Generated_Source\PSoC5/ADC_SigDel.c **** 
 207:Generated_Source\PSoC5/ADC_SigDel.c ****     ADC_SigDel_DSM_CR17_REG |= (ADC_SigDel_DSM_EN_BUF_VREF | ADC_SigDel_DSM_EN_BUF_VCM);
 208:Generated_Source\PSoC5/ADC_SigDel.c **** 
 209:Generated_Source\PSoC5/ADC_SigDel.c ****     /* Code to disable the REFBUF0 if reference chosen is External ref */
 210:Generated_Source\PSoC5/ADC_SigDel.c ****     #if (((ADC_SigDel_CFG1_REFERENCE == ADC_SigDel_EXT_REF_ON_P03) || \
 211:Generated_Source\PSoC5/ADC_SigDel.c ****           (ADC_SigDel_CFG1_REFERENCE == ADC_SigDel_EXT_REF_ON_P32)) || \
 212:Generated_Source\PSoC5/ADC_SigDel.c ****          ((ADC_SigDel_DEFAULT_NUM_CONFIGS > 1) && \
 213:Generated_Source\PSoC5/ADC_SigDel.c ****           ((ADC_SigDel_CFG2_REFERENCE == ADC_SigDel_EXT_REF_ON_P03) ||  \
 214:Generated_Source\PSoC5/ADC_SigDel.c ****            (ADC_SigDel_CFG2_REFERENCE == ADC_SigDel_EXT_REF_ON_P32))) || \
 215:Generated_Source\PSoC5/ADC_SigDel.c ****          ((ADC_SigDel_DEFAULT_NUM_CONFIGS > 2) && \
 216:Generated_Source\PSoC5/ADC_SigDel.c ****           ((ADC_SigDel_CFG3_REFERENCE == ADC_SigDel_EXT_REF_ON_P03) ||  \
 217:Generated_Source\PSoC5/ADC_SigDel.c ****            (ADC_SigDel_CFG3_REFERENCE == ADC_SigDel_EXT_REF_ON_P32))) || \
 218:Generated_Source\PSoC5/ADC_SigDel.c ****          ((ADC_SigDel_DEFAULT_NUM_CONFIGS > 3) && \
 219:Generated_Source\PSoC5/ADC_SigDel.c ****           ((ADC_SigDel_CFG4_REFERENCE == ADC_SigDel_EXT_REF_ON_P03) || \
 220:Generated_Source\PSoC5/ADC_SigDel.c ****            (ADC_SigDel_CFG4_REFERENCE == ADC_SigDel_EXT_REF_ON_P32))))
 221:Generated_Source\PSoC5/ADC_SigDel.c ****         if (((config == 1u) &&
 222:Generated_Source\PSoC5/ADC_SigDel.c ****             ((ADC_SigDel_CFG1_REFERENCE == ADC_SigDel_EXT_REF_ON_P03) ||
 223:Generated_Source\PSoC5/ADC_SigDel.c ****              (ADC_SigDel_CFG1_REFERENCE == ADC_SigDel_EXT_REF_ON_P32))) ||
 224:Generated_Source\PSoC5/ADC_SigDel.c ****             ((config == 2u) &&
 225:Generated_Source\PSoC5/ADC_SigDel.c ****             ((ADC_SigDel_CFG2_REFERENCE == ADC_SigDel_EXT_REF_ON_P03) ||
 226:Generated_Source\PSoC5/ADC_SigDel.c ****              (ADC_SigDel_CFG2_REFERENCE == ADC_SigDel_EXT_REF_ON_P32))) ||
 227:Generated_Source\PSoC5/ADC_SigDel.c ****             ((config == 3u) &&
 228:Generated_Source\PSoC5/ADC_SigDel.c ****             ((ADC_SigDel_CFG3_REFERENCE == ADC_SigDel_EXT_REF_ON_P03) ||
 229:Generated_Source\PSoC5/ADC_SigDel.c ****              (ADC_SigDel_CFG3_REFERENCE == ADC_SigDel_EXT_REF_ON_P32))) ||
 230:Generated_Source\PSoC5/ADC_SigDel.c ****             ((config == 4u) &&
 231:Generated_Source\PSoC5/ADC_SigDel.c ****             ((ADC_SigDel_CFG4_REFERENCE == ADC_SigDel_EXT_REF_ON_P03) ||
 232:Generated_Source\PSoC5/ADC_SigDel.c ****              (ADC_SigDel_CFG4_REFERENCE == ADC_SigDel_EXT_REF_ON_P32))))
 233:Generated_Source\PSoC5/ADC_SigDel.c ****         {
 234:Generated_Source\PSoC5/ADC_SigDel.c ****             /* Disable the REFBUF0 */
 235:Generated_Source\PSoC5/ADC_SigDel.c ****             ADC_SigDel_DSM_CR17_REG &= (uint8)~ADC_SigDel_DSM_EN_BUF_VREF;
 236:Generated_Source\PSoC5/ADC_SigDel.c ****         }
 237:Generated_Source\PSoC5/ADC_SigDel.c ****     #endif /* External ref */
 238:Generated_Source\PSoC5/ADC_SigDel.c **** 
 239:Generated_Source\PSoC5/ADC_SigDel.c ****     #if (((ADC_SigDel_CFG1_INPUT_RANGE == ADC_SigDel_IR_VSSA_TO_2VREF) || \
 240:Generated_Source\PSoC5/ADC_SigDel.c ****          ((ADC_SigDel_DEFAULT_NUM_CONFIGS > 1) && \
 241:Generated_Source\PSoC5/ADC_SigDel.c ****           (ADC_SigDel_CFG2_INPUT_RANGE == ADC_SigDel_IR_VSSA_TO_2VREF)) || \
 242:Generated_Source\PSoC5/ADC_SigDel.c ****          ((ADC_SigDel_DEFAULT_NUM_CONFIGS > 2) && \
 243:Generated_Source\PSoC5/ADC_SigDel.c ****           (ADC_SigDel_CFG3_INPUT_RANGE == ADC_SigDel_IR_VSSA_TO_2VREF)) || \
 244:Generated_Source\PSoC5/ADC_SigDel.c ****          ((ADC_SigDel_DEFAULT_NUM_CONFIGS > 3) && \
 245:Generated_Source\PSoC5/ADC_SigDel.c ****           (ADC_SigDel_CFG4_INPUT_RANGE == ADC_SigDel_IR_VSSA_TO_2VREF))))
 246:Generated_Source\PSoC5/ADC_SigDel.c ****         if(((config == 1u) &&
 247:Generated_Source\PSoC5/ADC_SigDel.c ****             (ADC_SigDel_CFG1_INPUT_RANGE == ADC_SigDel_IR_VSSA_TO_2VREF) &&
 248:Generated_Source\PSoC5/ADC_SigDel.c ****             ((ADC_SigDel_CFG1_REFERENCE != ADC_SigDel_EXT_REF_ON_P03) &&
 249:Generated_Source\PSoC5/ADC_SigDel.c ****              (ADC_SigDel_CFG1_REFERENCE != ADC_SigDel_EXT_REF_ON_P32))) ||
 250:Generated_Source\PSoC5/ADC_SigDel.c ****              ((config == 2u) &&
 251:Generated_Source\PSoC5/ADC_SigDel.c ****               (ADC_SigDel_CFG2_INPUT_RANGE == ADC_SigDel_IR_VSSA_TO_2VREF) &&
 252:Generated_Source\PSoC5/ADC_SigDel.c ****              ((ADC_SigDel_CFG2_REFERENCE != ADC_SigDel_EXT_REF_ON_P03) &&
 253:Generated_Source\PSoC5/ADC_SigDel.c ****              (ADC_SigDel_CFG2_REFERENCE != ADC_SigDel_EXT_REF_ON_P32))) ||
 254:Generated_Source\PSoC5/ADC_SigDel.c ****              ((config == 3u) &&
 255:Generated_Source\PSoC5/ADC_SigDel.c ****               (ADC_SigDel_CFG3_INPUT_RANGE == ADC_SigDel_IR_VSSA_TO_2VREF) &&
 256:Generated_Source\PSoC5/ADC_SigDel.c ****              ((ADC_SigDel_CFG3_REFERENCE != ADC_SigDel_EXT_REF_ON_P03) &&
 257:Generated_Source\PSoC5/ADC_SigDel.c ****              (ADC_SigDel_CFG3_REFERENCE != ADC_SigDel_EXT_REF_ON_P32))) ||
 258:Generated_Source\PSoC5/ADC_SigDel.c ****              ((config == 4u) &&
 259:Generated_Source\PSoC5/ADC_SigDel.c ****               (ADC_SigDel_CFG4_INPUT_RANGE == ADC_SigDel_IR_VSSA_TO_2VREF) &&
ARM GAS  C:\Users\ANNASP~1\AppData\Local\Temp\ccsUsXsi.s 			page 6


 260:Generated_Source\PSoC5/ADC_SigDel.c ****              ((ADC_SigDel_CFG4_REFERENCE != ADC_SigDel_EXT_REF_ON_P03) &&
 261:Generated_Source\PSoC5/ADC_SigDel.c ****              (ADC_SigDel_CFG4_REFERENCE != ADC_SigDel_EXT_REF_ON_P32))))
 262:Generated_Source\PSoC5/ADC_SigDel.c ****         {
 263:Generated_Source\PSoC5/ADC_SigDel.c ****             /* Enable the REFBUF1 */
 264:Generated_Source\PSoC5/ADC_SigDel.c ****             ADC_SigDel_DSM_REF0_REG |= ADC_SigDel_DSM_EN_BUF_VREF_INN;
 265:Generated_Source\PSoC5/ADC_SigDel.c ****         }
 266:Generated_Source\PSoC5/ADC_SigDel.c ****     #endif /* VSSA_TO_2VREF */
 267:Generated_Source\PSoC5/ADC_SigDel.c ****     if(config != 0u)
 268:Generated_Source\PSoC5/ADC_SigDel.c ****     {
 269:Generated_Source\PSoC5/ADC_SigDel.c ****         /* Suppress compiler warning */
 270:Generated_Source\PSoC5/ADC_SigDel.c ****     }
 271:Generated_Source\PSoC5/ADC_SigDel.c **** 
 272:Generated_Source\PSoC5/ADC_SigDel.c ****     /* Wait for 3 microseconds */
 273:Generated_Source\PSoC5/ADC_SigDel.c ****     CyDelayUs(ADC_SigDel_PRES_DELAY_TIME);
 274:Generated_Source\PSoC5/ADC_SigDel.c **** 
 275:Generated_Source\PSoC5/ADC_SigDel.c ****     /* Enable the press circuit */
 276:Generated_Source\PSoC5/ADC_SigDel.c ****     ADC_SigDel_RESET_CR4_REG &= (uint8)~ADC_SigDel_IGNORE_PRESA1;
 277:Generated_Source\PSoC5/ADC_SigDel.c ****     ADC_SigDel_RESET_CR5_REG &= (uint8)~ADC_SigDel_IGNORE_PRESA2;
 278:Generated_Source\PSoC5/ADC_SigDel.c **** 
 279:Generated_Source\PSoC5/ADC_SigDel.c ****     /* Enable negative pumps for DSM  */
 280:Generated_Source\PSoC5/ADC_SigDel.c ****     ADC_SigDel_PUMP_CR1_REG  |= ( ADC_SigDel_PUMP_CR1_CLKSEL | ADC_SigDel_PUMP_CR1_FORCE );
 281:Generated_Source\PSoC5/ADC_SigDel.c **** 
 282:Generated_Source\PSoC5/ADC_SigDel.c ****     /* Enable Modulator Chopping if required */
 283:Generated_Source\PSoC5/ADC_SigDel.c ****     ADC_SigDel_DSM_CR2_REG = ADC_SigDel_CFG1_DSM_CR2;
 284:Generated_Source\PSoC5/ADC_SigDel.c **** 
 285:Generated_Source\PSoC5/ADC_SigDel.c ****     /* This is only valid if there is an internal clock */
 286:Generated_Source\PSoC5/ADC_SigDel.c ****     #if(ADC_SigDel_DEFAULT_INTERNAL_CLK)
 287:Generated_Source\PSoC5/ADC_SigDel.c ****         ADC_SigDel_PWRMGR_CLK_REG |= ADC_SigDel_ACT_PWR_CLK_EN;
 288:Generated_Source\PSoC5/ADC_SigDel.c ****         ADC_SigDel_STBY_PWRMGR_CLK_REG |= ADC_SigDel_STBY_PWR_CLK_EN;
 289:Generated_Source\PSoC5/ADC_SigDel.c ****     #endif /* ADC_SigDel_DEFAULT_INTERNAL_CLK */
 290:Generated_Source\PSoC5/ADC_SigDel.c **** 
 291:Generated_Source\PSoC5/ADC_SigDel.c ****     /* Enable the active and alternate active power for charge pump clock */
 292:Generated_Source\PSoC5/ADC_SigDel.c ****     ADC_SigDel_PWRMGR_CHARGE_PUMP_CLK_REG |= ADC_SigDel_ACT_PWR_CHARGE_PUMP_CLK_EN;
 293:Generated_Source\PSoC5/ADC_SigDel.c ****     ADC_SigDel_STBY_PWRMGR_CHARGE_PUMP_CLK_REG |= ADC_SigDel_STBY_PWR_CHARGE_PUMP_CLK_EN;
 294:Generated_Source\PSoC5/ADC_SigDel.c **** 
 295:Generated_Source\PSoC5/ADC_SigDel.c ****     #if(ADC_SigDel_IRQ_REMOVE == 0u)
 296:Generated_Source\PSoC5/ADC_SigDel.c ****         /* Clear a pending interrupt */
 297:Generated_Source\PSoC5/ADC_SigDel.c ****         CyIntClearPending(ADC_SigDel_INTC_NUMBER);
 298:Generated_Source\PSoC5/ADC_SigDel.c ****         /* Enable interrupt */
 299:Generated_Source\PSoC5/ADC_SigDel.c ****         CyIntEnable(ADC_SigDel_INTC_NUMBER);
 300:Generated_Source\PSoC5/ADC_SigDel.c ****     #endif   /* End ADC_SigDel_IRQ_REMOVE */
 301:Generated_Source\PSoC5/ADC_SigDel.c **** 
 302:Generated_Source\PSoC5/ADC_SigDel.c ****     CyExitCriticalSection(enableInterrupts);
 303:Generated_Source\PSoC5/ADC_SigDel.c **** 
 304:Generated_Source\PSoC5/ADC_SigDel.c **** }
 305:Generated_Source\PSoC5/ADC_SigDel.c **** 
 306:Generated_Source\PSoC5/ADC_SigDel.c **** 
 307:Generated_Source\PSoC5/ADC_SigDel.c **** /*******************************************************************************
 308:Generated_Source\PSoC5/ADC_SigDel.c **** * Function Name: ADC_SigDel_Start
 309:Generated_Source\PSoC5/ADC_SigDel.c **** ********************************************************************************
 310:Generated_Source\PSoC5/ADC_SigDel.c **** *
 311:Generated_Source\PSoC5/ADC_SigDel.c **** * Summary:
 312:Generated_Source\PSoC5/ADC_SigDel.c **** *  Performs all required initialization for this component and enables
 313:Generated_Source\PSoC5/ADC_SigDel.c **** *  the power. It configure all the register the first time it is called.
 314:Generated_Source\PSoC5/ADC_SigDel.c **** *  Subsequent calls of the Start function only enable the ADC and turn
 315:Generated_Source\PSoC5/ADC_SigDel.c **** *  on the power. If multiple configurations are selected, it will
 316:Generated_Source\PSoC5/ADC_SigDel.c **** *  configure the ADC for configuration 1 by default, unless the
ARM GAS  C:\Users\ANNASP~1\AppData\Local\Temp\ccsUsXsi.s 			page 7


 317:Generated_Source\PSoC5/ADC_SigDel.c **** *  ADC_SigDel_SelectConfiguration( ) function has been called to change
 318:Generated_Source\PSoC5/ADC_SigDel.c **** *  the default setting.
 319:Generated_Source\PSoC5/ADC_SigDel.c **** *
 320:Generated_Source\PSoC5/ADC_SigDel.c **** * Parameters:
 321:Generated_Source\PSoC5/ADC_SigDel.c **** *  None
 322:Generated_Source\PSoC5/ADC_SigDel.c **** *
 323:Generated_Source\PSoC5/ADC_SigDel.c **** * Return:
 324:Generated_Source\PSoC5/ADC_SigDel.c **** *  None
 325:Generated_Source\PSoC5/ADC_SigDel.c **** *
 326:Generated_Source\PSoC5/ADC_SigDel.c **** * Global variables:
 327:Generated_Source\PSoC5/ADC_SigDel.c **** *  ADC_SigDel_initVar:  Used to check the initial configuration,
 328:Generated_Source\PSoC5/ADC_SigDel.c **** *  modified when this function is called for the first time.
 329:Generated_Source\PSoC5/ADC_SigDel.c **** *
 330:Generated_Source\PSoC5/ADC_SigDel.c **** * Side Effects: 
 331:Generated_Source\PSoC5/ADC_SigDel.c **** *  Enables internal interrupt.
 332:Generated_Source\PSoC5/ADC_SigDel.c **** *
 333:Generated_Source\PSoC5/ADC_SigDel.c **** *******************************************************************************/
 334:Generated_Source\PSoC5/ADC_SigDel.c **** void ADC_SigDel_Start(void) 
 335:Generated_Source\PSoC5/ADC_SigDel.c **** {
 336:Generated_Source\PSoC5/ADC_SigDel.c ****     if(ADC_SigDel_initVar == 0u)
 337:Generated_Source\PSoC5/ADC_SigDel.c ****     {
 338:Generated_Source\PSoC5/ADC_SigDel.c ****         if(ADC_SigDel_started == 0u)
 339:Generated_Source\PSoC5/ADC_SigDel.c ****         {
 340:Generated_Source\PSoC5/ADC_SigDel.c ****             ADC_SigDel_Init();
 341:Generated_Source\PSoC5/ADC_SigDel.c ****         }
 342:Generated_Source\PSoC5/ADC_SigDel.c ****         ADC_SigDel_initVar = 1u;
 343:Generated_Source\PSoC5/ADC_SigDel.c ****     }
 344:Generated_Source\PSoC5/ADC_SigDel.c **** 
 345:Generated_Source\PSoC5/ADC_SigDel.c ****     /* Enable the ADC */
 346:Generated_Source\PSoC5/ADC_SigDel.c ****     ADC_SigDel_Enable();
 347:Generated_Source\PSoC5/ADC_SigDel.c **** }
 348:Generated_Source\PSoC5/ADC_SigDel.c **** 
 349:Generated_Source\PSoC5/ADC_SigDel.c **** 
 350:Generated_Source\PSoC5/ADC_SigDel.c **** /*******************************************************************************
 351:Generated_Source\PSoC5/ADC_SigDel.c **** * Function Name: ADC_SigDel_Stop
 352:Generated_Source\PSoC5/ADC_SigDel.c **** ********************************************************************************
 353:Generated_Source\PSoC5/ADC_SigDel.c **** *
 354:Generated_Source\PSoC5/ADC_SigDel.c **** * Summary:
 355:Generated_Source\PSoC5/ADC_SigDel.c **** *  This function stops and powers down the ADC component and the internal
 356:Generated_Source\PSoC5/ADC_SigDel.c **** *  clock if the external clock is not selected. If an external clock is
 357:Generated_Source\PSoC5/ADC_SigDel.c **** *  used, it is up to the designer to power down the external clock it
 358:Generated_Source\PSoC5/ADC_SigDel.c **** *  required.
 359:Generated_Source\PSoC5/ADC_SigDel.c **** *
 360:Generated_Source\PSoC5/ADC_SigDel.c **** * Parameters:
 361:Generated_Source\PSoC5/ADC_SigDel.c **** *  None
 362:Generated_Source\PSoC5/ADC_SigDel.c **** *
 363:Generated_Source\PSoC5/ADC_SigDel.c **** * Return:
 364:Generated_Source\PSoC5/ADC_SigDel.c **** *  None
 365:Generated_Source\PSoC5/ADC_SigDel.c **** *
 366:Generated_Source\PSoC5/ADC_SigDel.c **** *******************************************************************************/
 367:Generated_Source\PSoC5/ADC_SigDel.c **** void ADC_SigDel_Stop(void) 
 368:Generated_Source\PSoC5/ADC_SigDel.c **** {
 369:Generated_Source\PSoC5/ADC_SigDel.c ****     uint8 enableInterrupts;
 370:Generated_Source\PSoC5/ADC_SigDel.c ****     enableInterrupts = CyEnterCriticalSection();
 371:Generated_Source\PSoC5/ADC_SigDel.c **** 
 372:Generated_Source\PSoC5/ADC_SigDel.c ****     /* Stop conversions */
 373:Generated_Source\PSoC5/ADC_SigDel.c ****     ADC_SigDel_DEC_CR_REG &= (uint8)~ADC_SigDel_DEC_START_CONV;
ARM GAS  C:\Users\ANNASP~1\AppData\Local\Temp\ccsUsXsi.s 			page 8


 374:Generated_Source\PSoC5/ADC_SigDel.c ****     ADC_SigDel_DEC_SR_REG |=  ADC_SigDel_DEC_INTR_CLEAR;
 375:Generated_Source\PSoC5/ADC_SigDel.c **** 
 376:Generated_Source\PSoC5/ADC_SigDel.c ****     /* Disable PRES, Disable power to VCMBUF0, REFBUF0 and REFBUF1,
 377:Generated_Source\PSoC5/ADC_SigDel.c ****        enable PRES */
 378:Generated_Source\PSoC5/ADC_SigDel.c ****     ADC_SigDel_RESET_CR4_REG |= ADC_SigDel_IGNORE_PRESA1;
 379:Generated_Source\PSoC5/ADC_SigDel.c ****     ADC_SigDel_RESET_CR5_REG |= ADC_SigDel_IGNORE_PRESA2;
 380:Generated_Source\PSoC5/ADC_SigDel.c **** 
 381:Generated_Source\PSoC5/ADC_SigDel.c ****     ADC_SigDel_DSM_CR17_REG &= (uint8)~(ADC_SigDel_DSM_EN_BUF_VREF | ADC_SigDel_DSM_EN_BUF_VCM);
 382:Generated_Source\PSoC5/ADC_SigDel.c ****     ADC_SigDel_DSM_REF0_REG &= (uint8)~ADC_SigDel_DSM_EN_BUF_VREF_INN;
 383:Generated_Source\PSoC5/ADC_SigDel.c **** 
 384:Generated_Source\PSoC5/ADC_SigDel.c ****     /* Wait for 3 microseconds. */
 385:Generated_Source\PSoC5/ADC_SigDel.c ****     CyDelayUs(ADC_SigDel_PRES_DELAY_TIME);
 386:Generated_Source\PSoC5/ADC_SigDel.c **** 
 387:Generated_Source\PSoC5/ADC_SigDel.c ****     /* Enable the press circuit */
 388:Generated_Source\PSoC5/ADC_SigDel.c ****     ADC_SigDel_RESET_CR4_REG &= (uint8)~ADC_SigDel_IGNORE_PRESA1;
 389:Generated_Source\PSoC5/ADC_SigDel.c ****     ADC_SigDel_RESET_CR5_REG &= (uint8)~ADC_SigDel_IGNORE_PRESA2;
 390:Generated_Source\PSoC5/ADC_SigDel.c **** 
 391:Generated_Source\PSoC5/ADC_SigDel.c ****     /* Disable power to the ADC */
 392:Generated_Source\PSoC5/ADC_SigDel.c ****     ADC_SigDel_PWRMGR_DSM_REG &= (uint8)~ADC_SigDel_ACT_PWR_DSM_EN;
 393:Generated_Source\PSoC5/ADC_SigDel.c **** 
 394:Generated_Source\PSoC5/ADC_SigDel.c ****     /* Disable power to Decimator block */
 395:Generated_Source\PSoC5/ADC_SigDel.c ****     ADC_SigDel_PWRMGR_DEC_REG &= (uint8)~ADC_SigDel_ACT_PWR_DEC_EN;
 396:Generated_Source\PSoC5/ADC_SigDel.c **** 
 397:Generated_Source\PSoC5/ADC_SigDel.c ****     /* Disable alternative active power to the ADC */
 398:Generated_Source\PSoC5/ADC_SigDel.c ****     ADC_SigDel_STBY_PWRMGR_DEC_REG &= (uint8)~ADC_SigDel_STBY_PWR_DEC_EN;
 399:Generated_Source\PSoC5/ADC_SigDel.c ****     ADC_SigDel_STBY_PWRMGR_DSM_REG &= (uint8)~ADC_SigDel_STBY_PWR_DSM_EN;
 400:Generated_Source\PSoC5/ADC_SigDel.c **** 
 401:Generated_Source\PSoC5/ADC_SigDel.c ****    /* Disable negative pumps for DSM  */
 402:Generated_Source\PSoC5/ADC_SigDel.c ****     ADC_SigDel_PUMP_CR1_REG &= (uint8)~(ADC_SigDel_PUMP_CR1_CLKSEL | ADC_SigDel_PUMP_CR1_FORCE );
 403:Generated_Source\PSoC5/ADC_SigDel.c **** 
 404:Generated_Source\PSoC5/ADC_SigDel.c ****     /* This is only valid if there is an internal clock */
 405:Generated_Source\PSoC5/ADC_SigDel.c ****     #if(ADC_SigDel_DEFAULT_INTERNAL_CLK)
 406:Generated_Source\PSoC5/ADC_SigDel.c ****         ADC_SigDel_PWRMGR_CLK_REG &= (uint8)~ADC_SigDel_ACT_PWR_CLK_EN;
 407:Generated_Source\PSoC5/ADC_SigDel.c ****         ADC_SigDel_STBY_PWRMGR_CLK_REG &= (uint8)~ADC_SigDel_STBY_PWR_CLK_EN;
 408:Generated_Source\PSoC5/ADC_SigDel.c ****     #endif /* ADC_SigDel_DEFAULT_INTERNAL_CLK */
 409:Generated_Source\PSoC5/ADC_SigDel.c **** 
 410:Generated_Source\PSoC5/ADC_SigDel.c ****     /* Disable Modulator Chopping */
 411:Generated_Source\PSoC5/ADC_SigDel.c ****     ADC_SigDel_DSM_CR2_REG &= (uint8)~ADC_SigDel_DSM_MOD_CHOP_EN;
 412:Generated_Source\PSoC5/ADC_SigDel.c ****     /* Disable power to charge pump clock */
 413:Generated_Source\PSoC5/ADC_SigDel.c ****     ADC_SigDel_PWRMGR_CHARGE_PUMP_CLK_REG &= (uint8)~ADC_SigDel_ACT_PWR_CHARGE_PUMP_CLK_EN;
 414:Generated_Source\PSoC5/ADC_SigDel.c ****     ADC_SigDel_STBY_PWRMGR_CHARGE_PUMP_CLK_REG &= (uint8)~ADC_SigDel_STBY_PWR_CHARGE_PUMP_CLK_EN;
 415:Generated_Source\PSoC5/ADC_SigDel.c ****     
 416:Generated_Source\PSoC5/ADC_SigDel.c ****     CyExitCriticalSection(enableInterrupts);
 417:Generated_Source\PSoC5/ADC_SigDel.c **** }
 418:Generated_Source\PSoC5/ADC_SigDel.c **** 
 419:Generated_Source\PSoC5/ADC_SigDel.c **** 
 420:Generated_Source\PSoC5/ADC_SigDel.c **** /*******************************************************************************
 421:Generated_Source\PSoC5/ADC_SigDel.c **** * Function Name: ADC_SigDel_SetBufferGain
 422:Generated_Source\PSoC5/ADC_SigDel.c **** ********************************************************************************
 423:Generated_Source\PSoC5/ADC_SigDel.c **** *
 424:Generated_Source\PSoC5/ADC_SigDel.c **** * Summary:
 425:Generated_Source\PSoC5/ADC_SigDel.c **** *  Sets input buffer gain.
 426:Generated_Source\PSoC5/ADC_SigDel.c **** *
 427:Generated_Source\PSoC5/ADC_SigDel.c **** * Parameters:
 428:Generated_Source\PSoC5/ADC_SigDel.c **** *  gain:  Two bit value to select a gain of 1, 2, 4, or 8.
 429:Generated_Source\PSoC5/ADC_SigDel.c **** *
 430:Generated_Source\PSoC5/ADC_SigDel.c **** * Return:
ARM GAS  C:\Users\ANNASP~1\AppData\Local\Temp\ccsUsXsi.s 			page 9


 431:Generated_Source\PSoC5/ADC_SigDel.c **** *  None
 432:Generated_Source\PSoC5/ADC_SigDel.c **** *
 433:Generated_Source\PSoC5/ADC_SigDel.c **** *******************************************************************************/
 434:Generated_Source\PSoC5/ADC_SigDel.c **** void ADC_SigDel_SetBufferGain(uint8 gain) 
 435:Generated_Source\PSoC5/ADC_SigDel.c **** {
 436:Generated_Source\PSoC5/ADC_SigDel.c ****     uint8 tmpReg;
 437:Generated_Source\PSoC5/ADC_SigDel.c ****     tmpReg = ADC_SigDel_DSM_BUF1_REG & (uint8)~ADC_SigDel_DSM_GAIN_MASK;
 438:Generated_Source\PSoC5/ADC_SigDel.c ****     tmpReg |= (uint8)(gain << ADC_SigDel_DSM_GAIN_SHIFT) & ADC_SigDel_DSM_GAIN_MASK;
 439:Generated_Source\PSoC5/ADC_SigDel.c ****     ADC_SigDel_DSM_BUF1_REG = tmpReg;
 440:Generated_Source\PSoC5/ADC_SigDel.c **** }
 441:Generated_Source\PSoC5/ADC_SigDel.c **** 
 442:Generated_Source\PSoC5/ADC_SigDel.c **** 
 443:Generated_Source\PSoC5/ADC_SigDel.c **** /*******************************************************************************
 444:Generated_Source\PSoC5/ADC_SigDel.c **** * Function Name: ADC_SigDel_SetCoherency
 445:Generated_Source\PSoC5/ADC_SigDel.c **** ********************************************************************************
 446:Generated_Source\PSoC5/ADC_SigDel.c **** *
 447:Generated_Source\PSoC5/ADC_SigDel.c **** * Summary:
 448:Generated_Source\PSoC5/ADC_SigDel.c **** *  This function allows the user to change which of the ADC's 3 word
 449:Generated_Source\PSoC5/ADC_SigDel.c **** *  result will trigger a coherency unlock. The ADC's result will not be
 450:Generated_Source\PSoC5/ADC_SigDel.c **** *  updated until the set byte is read either by the ADC or DMA. 
 451:Generated_Source\PSoC5/ADC_SigDel.c **** *  By default the LSB is the coherency byte for right alignment data format. 
 452:Generated_Source\PSoC5/ADC_SigDel.c **** *  The middle or high byte is set automatically depend on left alignment 
 453:Generated_Source\PSoC5/ADC_SigDel.c **** *  configuration for DMA data transfer.
 454:Generated_Source\PSoC5/ADC_SigDel.c **** *  If DMA or if a custom API requires different byte to be read the last,
 455:Generated_Source\PSoC5/ADC_SigDel.c **** *  this API should be used to set the last byte of the ADC result that is read. 
 456:Generated_Source\PSoC5/ADC_SigDel.c **** *  If a multibyte read is performed either by DMA or the ARM processor, the
 457:Generated_Source\PSoC5/ADC_SigDel.c **** *  coherency can be set to any byte in the last word read.
 458:Generated_Source\PSoC5/ADC_SigDel.c **** *
 459:Generated_Source\PSoC5/ADC_SigDel.c **** * Parameters:
 460:Generated_Source\PSoC5/ADC_SigDel.c **** *  coherency:  Two bit value to set the coherency bit.
 461:Generated_Source\PSoC5/ADC_SigDel.c **** *           00-Coherency checking off
 462:Generated_Source\PSoC5/ADC_SigDel.c **** *           01-low byte is key byte
 463:Generated_Source\PSoC5/ADC_SigDel.c **** *           02-middle byte is the key byte
 464:Generated_Source\PSoC5/ADC_SigDel.c **** *           03-high byte is the key byte
 465:Generated_Source\PSoC5/ADC_SigDel.c **** *
 466:Generated_Source\PSoC5/ADC_SigDel.c **** * Return:
 467:Generated_Source\PSoC5/ADC_SigDel.c **** *  None
 468:Generated_Source\PSoC5/ADC_SigDel.c **** *
 469:Generated_Source\PSoC5/ADC_SigDel.c **** *******************************************************************************/
 470:Generated_Source\PSoC5/ADC_SigDel.c **** void ADC_SigDel_SetCoherency(uint8 coherency) 
 471:Generated_Source\PSoC5/ADC_SigDel.c **** {
 472:Generated_Source\PSoC5/ADC_SigDel.c ****     uint8 tmpReg;
 473:Generated_Source\PSoC5/ADC_SigDel.c **** 
 474:Generated_Source\PSoC5/ADC_SigDel.c ****     tmpReg = ADC_SigDel_DEC_COHER_REG & (uint8)~ADC_SigDel_DEC_SAMP_KEY_MASK;
 475:Generated_Source\PSoC5/ADC_SigDel.c ****     tmpReg |= coherency & ADC_SigDel_DEC_SAMP_KEY_MASK;
 476:Generated_Source\PSoC5/ADC_SigDel.c ****     ADC_SigDel_DEC_COHER_REG = tmpReg;
 477:Generated_Source\PSoC5/ADC_SigDel.c **** }
 478:Generated_Source\PSoC5/ADC_SigDel.c **** 
 479:Generated_Source\PSoC5/ADC_SigDel.c **** 
 480:Generated_Source\PSoC5/ADC_SigDel.c **** /*******************************************************************************
 481:Generated_Source\PSoC5/ADC_SigDel.c **** * Function Name: ADC_SigDel_SetGCOR
 482:Generated_Source\PSoC5/ADC_SigDel.c **** ********************************************************************************
 483:Generated_Source\PSoC5/ADC_SigDel.c **** *
 484:Generated_Source\PSoC5/ADC_SigDel.c **** * Summary:
 485:Generated_Source\PSoC5/ADC_SigDel.c **** *  Calculates a new GCOR value and writes it into the GCOR register. 
 486:Generated_Source\PSoC5/ADC_SigDel.c **** *  The GCOR value is a 16-bit value that represents a gain of 0 to 2. 
 487:Generated_Source\PSoC5/ADC_SigDel.c **** *  The ADC result is multiplied by this value before it is placed in the ADC 
ARM GAS  C:\Users\ANNASP~1\AppData\Local\Temp\ccsUsXsi.s 			page 10


 488:Generated_Source\PSoC5/ADC_SigDel.c **** *  output registers. The numerical format for the GCOR value is:
 489:Generated_Source\PSoC5/ADC_SigDel.c **** *  0x0000 -> 0.000
 490:Generated_Source\PSoC5/ADC_SigDel.c **** *  0x8000 -> 1.000
 491:Generated_Source\PSoC5/ADC_SigDel.c **** *  0xFFFF -> 1.99997
 492:Generated_Source\PSoC5/ADC_SigDel.c **** *  When executing the function, the old GCOR value is multiplied by
 493:Generated_Source\PSoC5/ADC_SigDel.c **** *  gainAdjust and reloaded into the GCOR register.
 494:Generated_Source\PSoC5/ADC_SigDel.c **** *
 495:Generated_Source\PSoC5/ADC_SigDel.c **** * Parameters:
 496:Generated_Source\PSoC5/ADC_SigDel.c **** *  gainAdjust:  floating point value to set GCOR registers.
 497:Generated_Source\PSoC5/ADC_SigDel.c **** *
 498:Generated_Source\PSoC5/ADC_SigDel.c **** * Return:
 499:Generated_Source\PSoC5/ADC_SigDel.c **** *  uint8: 0 - if GCOR value is within the expected range.
 500:Generated_Source\PSoC5/ADC_SigDel.c **** *         1 - the correction value is outside GCOR value range of
 501:Generated_Source\PSoC5/ADC_SigDel.c **** *             0.00 to 1.9999.
 502:Generated_Source\PSoC5/ADC_SigDel.c **** *
 503:Generated_Source\PSoC5/ADC_SigDel.c **** * Side Effects:  The GVAL register is set to the amount of valid bits in the
 504:Generated_Source\PSoC5/ADC_SigDel.c **** *                GCOR  register minus one. If GVAL is 15 (0x0F), all 16 bits
 505:Generated_Source\PSoC5/ADC_SigDel.c **** *                of the GCOR registers will be valid. If for example GVAL is
 506:Generated_Source\PSoC5/ADC_SigDel.c **** *                11 (0x0B) only 12 bits will be valid. The least 4 bits will
 507:Generated_Source\PSoC5/ADC_SigDel.c **** *                be lost when the GCOR value is shifted 4 places to the right.
 508:Generated_Source\PSoC5/ADC_SigDel.c **** *
 509:Generated_Source\PSoC5/ADC_SigDel.c **** ******************************************************************************/
 510:Generated_Source\PSoC5/ADC_SigDel.c **** uint8 ADC_SigDel_SetGCOR(float32 gainAdjust) 
 511:Generated_Source\PSoC5/ADC_SigDel.c **** {
 512:Generated_Source\PSoC5/ADC_SigDel.c ****     uint16 tmpReg;
 513:Generated_Source\PSoC5/ADC_SigDel.c ****     uint8 status;
 514:Generated_Source\PSoC5/ADC_SigDel.c ****     float32 tmpValue;
 515:Generated_Source\PSoC5/ADC_SigDel.c **** 
 516:Generated_Source\PSoC5/ADC_SigDel.c ****     tmpReg = ADC_SigDel_gcor[ADC_SigDel_Config - 1u].gcor;
 517:Generated_Source\PSoC5/ADC_SigDel.c ****     tmpValue = ((float32)tmpReg / (float32)ADC_SigDel_IDEAL_GAIN_CONST);
 518:Generated_Source\PSoC5/ADC_SigDel.c ****     tmpValue = tmpValue * gainAdjust;
 519:Generated_Source\PSoC5/ADC_SigDel.c **** 
 520:Generated_Source\PSoC5/ADC_SigDel.c ****     if (tmpValue > 1.9999)
 521:Generated_Source\PSoC5/ADC_SigDel.c ****     {
 522:Generated_Source\PSoC5/ADC_SigDel.c ****         status = 1u;
 523:Generated_Source\PSoC5/ADC_SigDel.c ****     }
 524:Generated_Source\PSoC5/ADC_SigDel.c ****     else
 525:Generated_Source\PSoC5/ADC_SigDel.c ****     {
 526:Generated_Source\PSoC5/ADC_SigDel.c ****         tmpValue *= (float32)ADC_SigDel_IDEAL_GAIN_CONST;
 527:Generated_Source\PSoC5/ADC_SigDel.c **** 		tmpReg = (uint16)tmpValue;
 528:Generated_Source\PSoC5/ADC_SigDel.c ****         CY_SET_REG16(ADC_SigDel_DEC_GCOR_16B_PTR, tmpReg);
 529:Generated_Source\PSoC5/ADC_SigDel.c ****         /* Update gain array to be used by SelectConfiguration() API */
 530:Generated_Source\PSoC5/ADC_SigDel.c ****        ADC_SigDel_gcor[ADC_SigDel_Config - 1u].gcor = tmpReg;
 531:Generated_Source\PSoC5/ADC_SigDel.c **** 
 532:Generated_Source\PSoC5/ADC_SigDel.c ****         status = 0u;
 533:Generated_Source\PSoC5/ADC_SigDel.c **** 
 534:Generated_Source\PSoC5/ADC_SigDel.c ****     }
 535:Generated_Source\PSoC5/ADC_SigDel.c ****     return(status);
 536:Generated_Source\PSoC5/ADC_SigDel.c **** }
 537:Generated_Source\PSoC5/ADC_SigDel.c **** 
 538:Generated_Source\PSoC5/ADC_SigDel.c **** 
 539:Generated_Source\PSoC5/ADC_SigDel.c **** /******************************************************************************
 540:Generated_Source\PSoC5/ADC_SigDel.c **** * Function Name: ADC_SigDel_ReadGCOR
 541:Generated_Source\PSoC5/ADC_SigDel.c **** *******************************************************************************
 542:Generated_Source\PSoC5/ADC_SigDel.c **** *
 543:Generated_Source\PSoC5/ADC_SigDel.c **** * Summary:
 544:Generated_Source\PSoC5/ADC_SigDel.c **** *  This API returns the current GCOR register value, normalized based on the
ARM GAS  C:\Users\ANNASP~1\AppData\Local\Temp\ccsUsXsi.s 			page 11


 545:Generated_Source\PSoC5/ADC_SigDel.c **** *  GVAL register settings.
 546:Generated_Source\PSoC5/ADC_SigDel.c **** *  For example, if the GCOR value is 0x0812 and the GVAL register is set to 
 547:Generated_Source\PSoC5/ADC_SigDel.c **** *  11 (0x0B) then the returned value will be shifted by for bits to the left.
 548:Generated_Source\PSoC5/ADC_SigDel.c **** *  (Actual GCOR value = 0x0812, returned value = 0x8120)
 549:Generated_Source\PSoC5/ADC_SigDel.c **** *
 550:Generated_Source\PSoC5/ADC_SigDel.c **** * Parameters:
 551:Generated_Source\PSoC5/ADC_SigDel.c **** *  None
 552:Generated_Source\PSoC5/ADC_SigDel.c **** *
 553:Generated_Source\PSoC5/ADC_SigDel.c **** * Return:
 554:Generated_Source\PSoC5/ADC_SigDel.c **** *  uint16:  Normalized GCOR value.
 555:Generated_Source\PSoC5/ADC_SigDel.c **** *
 556:Generated_Source\PSoC5/ADC_SigDel.c **** *******************************************************************************/
 557:Generated_Source\PSoC5/ADC_SigDel.c **** uint16 ADC_SigDel_ReadGCOR(void) 
 558:Generated_Source\PSoC5/ADC_SigDel.c **** {
 559:Generated_Source\PSoC5/ADC_SigDel.c ****     uint8 gValue;
 560:Generated_Source\PSoC5/ADC_SigDel.c ****     uint16 gcorValue;
 561:Generated_Source\PSoC5/ADC_SigDel.c **** 
 562:Generated_Source\PSoC5/ADC_SigDel.c ****     gValue = ADC_SigDel_DEC_GVAL_REG;
 563:Generated_Source\PSoC5/ADC_SigDel.c ****     gcorValue = CY_GET_REG16(ADC_SigDel_DEC_GCOR_16B_PTR);
 564:Generated_Source\PSoC5/ADC_SigDel.c **** 
 565:Generated_Source\PSoC5/ADC_SigDel.c ****     if (gValue < ADC_SigDel_MAX_GVAL)
 566:Generated_Source\PSoC5/ADC_SigDel.c ****     {
 567:Generated_Source\PSoC5/ADC_SigDel.c ****         gcorValue <<= ADC_SigDel_MAX_GVAL - gValue;
 568:Generated_Source\PSoC5/ADC_SigDel.c ****     }
 569:Generated_Source\PSoC5/ADC_SigDel.c **** 
 570:Generated_Source\PSoC5/ADC_SigDel.c ****     return gcorValue;
 571:Generated_Source\PSoC5/ADC_SigDel.c **** }
 572:Generated_Source\PSoC5/ADC_SigDel.c **** 
 573:Generated_Source\PSoC5/ADC_SigDel.c **** 
 574:Generated_Source\PSoC5/ADC_SigDel.c **** /*******************************************************************************
 575:Generated_Source\PSoC5/ADC_SigDel.c **** * Function Name: ADC_SigDel_StartConvert
 576:Generated_Source\PSoC5/ADC_SigDel.c **** ********************************************************************************
 577:Generated_Source\PSoC5/ADC_SigDel.c **** *
 578:Generated_Source\PSoC5/ADC_SigDel.c **** * Summary:
 579:Generated_Source\PSoC5/ADC_SigDel.c **** *  Forces the ADC to initiate a conversion. If in the "Single Sample"
 580:Generated_Source\PSoC5/ADC_SigDel.c **** *  mode, one conversion will be performed then the ADC will halt. If in
 581:Generated_Source\PSoC5/ADC_SigDel.c **** *  one of the other three conversion modes, the ADC will run
 582:Generated_Source\PSoC5/ADC_SigDel.c **** *  continuously until the ADC_Stop() or ADC_StopConvert() is called.
 583:Generated_Source\PSoC5/ADC_SigDel.c **** *
 584:Generated_Source\PSoC5/ADC_SigDel.c **** * Parameters:
 585:Generated_Source\PSoC5/ADC_SigDel.c **** *  None
 586:Generated_Source\PSoC5/ADC_SigDel.c **** *
 587:Generated_Source\PSoC5/ADC_SigDel.c **** * Return:
 588:Generated_Source\PSoC5/ADC_SigDel.c **** *  None
 589:Generated_Source\PSoC5/ADC_SigDel.c **** *
 590:Generated_Source\PSoC5/ADC_SigDel.c **** *******************************************************************************/
 591:Generated_Source\PSoC5/ADC_SigDel.c **** void ADC_SigDel_StartConvert(void) 
 592:Generated_Source\PSoC5/ADC_SigDel.c **** {
 593:Generated_Source\PSoC5/ADC_SigDel.c ****     /* Start the conversion */
 594:Generated_Source\PSoC5/ADC_SigDel.c ****     ADC_SigDel_DEC_CR_REG |= ADC_SigDel_DEC_START_CONV;
 595:Generated_Source\PSoC5/ADC_SigDel.c **** }
 596:Generated_Source\PSoC5/ADC_SigDel.c **** 
 597:Generated_Source\PSoC5/ADC_SigDel.c **** 
 598:Generated_Source\PSoC5/ADC_SigDel.c **** /*******************************************************************************
 599:Generated_Source\PSoC5/ADC_SigDel.c **** * Function Name: ADC_SigDel_StopConvert
 600:Generated_Source\PSoC5/ADC_SigDel.c **** ********************************************************************************
 601:Generated_Source\PSoC5/ADC_SigDel.c **** *
ARM GAS  C:\Users\ANNASP~1\AppData\Local\Temp\ccsUsXsi.s 			page 12


 602:Generated_Source\PSoC5/ADC_SigDel.c **** * Summary:
 603:Generated_Source\PSoC5/ADC_SigDel.c **** *  Forces the ADC to stop all conversions. If the ADC is in the middle of a
 604:Generated_Source\PSoC5/ADC_SigDel.c **** *  conversion, the ADC will be reset and not provide a result for that partial
 605:Generated_Source\PSoC5/ADC_SigDel.c **** *  conversion.
 606:Generated_Source\PSoC5/ADC_SigDel.c **** *
 607:Generated_Source\PSoC5/ADC_SigDel.c **** * Parameters:
 608:Generated_Source\PSoC5/ADC_SigDel.c **** *  None
 609:Generated_Source\PSoC5/ADC_SigDel.c **** *
 610:Generated_Source\PSoC5/ADC_SigDel.c **** * Return:
 611:Generated_Source\PSoC5/ADC_SigDel.c **** *  None
 612:Generated_Source\PSoC5/ADC_SigDel.c **** *
 613:Generated_Source\PSoC5/ADC_SigDel.c **** *******************************************************************************/
 614:Generated_Source\PSoC5/ADC_SigDel.c **** void ADC_SigDel_StopConvert(void) 
 615:Generated_Source\PSoC5/ADC_SigDel.c **** {
 616:Generated_Source\PSoC5/ADC_SigDel.c ****     /* Stop all conversions */
 617:Generated_Source\PSoC5/ADC_SigDel.c ****     ADC_SigDel_DEC_CR_REG &= (uint8)~ADC_SigDel_DEC_START_CONV;
 618:Generated_Source\PSoC5/ADC_SigDel.c **** }
 619:Generated_Source\PSoC5/ADC_SigDel.c **** 
 620:Generated_Source\PSoC5/ADC_SigDel.c **** 
 621:Generated_Source\PSoC5/ADC_SigDel.c **** /*******************************************************************************
 622:Generated_Source\PSoC5/ADC_SigDel.c **** * Function Name: ADC_SigDel_IsEndConversion
 623:Generated_Source\PSoC5/ADC_SigDel.c **** ********************************************************************************
 624:Generated_Source\PSoC5/ADC_SigDel.c **** *
 625:Generated_Source\PSoC5/ADC_SigDel.c **** * Summary:
 626:Generated_Source\PSoC5/ADC_SigDel.c **** *  Checks the status that the most recently started conversion has completed.
 627:Generated_Source\PSoC5/ADC_SigDel.c **** *  The status is cleared by any of ADC_GetResult8(), ADC_GetResult16() or 
 628:Generated_Source\PSoC5/ADC_SigDel.c **** *  ADC_GetResult32() API.
 629:Generated_Source\PSoC5/ADC_SigDel.c **** *  This function provides the programmer with two options. In one mode this 
 630:Generated_Source\PSoC5/ADC_SigDel.c **** *  function immediately returns with the conversion status. In the other mode,
 631:Generated_Source\PSoC5/ADC_SigDel.c **** *  the function does not return (blocking) until the conversion has completed.
 632:Generated_Source\PSoC5/ADC_SigDel.c **** *
 633:Generated_Source\PSoC5/ADC_SigDel.c **** * Parameters:
 634:Generated_Source\PSoC5/ADC_SigDel.c **** *  retMode: Check conversion return mode. See the following table for options.
 635:Generated_Source\PSoC5/ADC_SigDel.c **** *   ADC_SigDel_RETURN_STATUS -   Immediately returns conversion result
 636:Generated_Source\PSoC5/ADC_SigDel.c **** *                                      status.
 637:Generated_Source\PSoC5/ADC_SigDel.c **** *   ADC_SigDel_WAIT_FOR_RESULT - Does not return until ADC conversion
 638:Generated_Source\PSoC5/ADC_SigDel.c **** *                                      is complete.
 639:Generated_Source\PSoC5/ADC_SigDel.c **** *
 640:Generated_Source\PSoC5/ADC_SigDel.c **** * Return:
 641:Generated_Source\PSoC5/ADC_SigDel.c **** *  If a nonzero value is returned, the last conversion has completed.
 642:Generated_Source\PSoC5/ADC_SigDel.c **** *  If the returned value is zero, the ADC is still calculating the last result.
 643:Generated_Source\PSoC5/ADC_SigDel.c **** *
 644:Generated_Source\PSoC5/ADC_SigDel.c **** * Global variables:
 645:Generated_Source\PSoC5/ADC_SigDel.c **** *  ADC_SigDel_convDone:  Used to check whether conversion is complete
 646:Generated_Source\PSoC5/ADC_SigDel.c **** *  or not for single sample mode with resolution is above 16
 647:Generated_Source\PSoC5/ADC_SigDel.c **** *
 648:Generated_Source\PSoC5/ADC_SigDel.c **** *******************************************************************************/
 649:Generated_Source\PSoC5/ADC_SigDel.c **** uint8 ADC_SigDel_IsEndConversion(uint8 retMode) 
 650:Generated_Source\PSoC5/ADC_SigDel.c **** {
 651:Generated_Source\PSoC5/ADC_SigDel.c ****     uint8 status;
 652:Generated_Source\PSoC5/ADC_SigDel.c **** 
 653:Generated_Source\PSoC5/ADC_SigDel.c ****     do
 654:Generated_Source\PSoC5/ADC_SigDel.c ****     {
 655:Generated_Source\PSoC5/ADC_SigDel.c ****         /* Check for stop convert if conversion mode is Single Sample with
 656:Generated_Source\PSoC5/ADC_SigDel.c ****         *   resolution above 16 bit
 657:Generated_Source\PSoC5/ADC_SigDel.c ****         */
 658:Generated_Source\PSoC5/ADC_SigDel.c ****         if(ADC_SigDel_stopConversion != 0u)
ARM GAS  C:\Users\ANNASP~1\AppData\Local\Temp\ccsUsXsi.s 			page 13


 659:Generated_Source\PSoC5/ADC_SigDel.c ****         {
 660:Generated_Source\PSoC5/ADC_SigDel.c ****             status = ADC_SigDel_convDone;
 661:Generated_Source\PSoC5/ADC_SigDel.c ****         }
 662:Generated_Source\PSoC5/ADC_SigDel.c ****         else
 663:Generated_Source\PSoC5/ADC_SigDel.c ****         {
 664:Generated_Source\PSoC5/ADC_SigDel.c ****             status = ADC_SigDel_DEC_SR_REG & ADC_SigDel_DEC_CONV_DONE;
 665:Generated_Source\PSoC5/ADC_SigDel.c ****         }
 666:Generated_Source\PSoC5/ADC_SigDel.c ****     }while((status != ADC_SigDel_DEC_CONV_DONE) && (retMode == ADC_SigDel_WAIT_FOR_RESULT));
 667:Generated_Source\PSoC5/ADC_SigDel.c **** 
 668:Generated_Source\PSoC5/ADC_SigDel.c ****     return(status);
 669:Generated_Source\PSoC5/ADC_SigDel.c **** }
 670:Generated_Source\PSoC5/ADC_SigDel.c **** 
 671:Generated_Source\PSoC5/ADC_SigDel.c **** 
 672:Generated_Source\PSoC5/ADC_SigDel.c **** /*******************************************************************************
 673:Generated_Source\PSoC5/ADC_SigDel.c **** * Function Name: ADC_SigDel_GetResult8
 674:Generated_Source\PSoC5/ADC_SigDel.c **** ********************************************************************************
 675:Generated_Source\PSoC5/ADC_SigDel.c **** *
 676:Generated_Source\PSoC5/ADC_SigDel.c **** * Summary:
 677:Generated_Source\PSoC5/ADC_SigDel.c **** *  This function returns the result of an 8-bit conversion. If the
 678:Generated_Source\PSoC5/ADC_SigDel.c **** *  resolution is set greater than 8-bits, the LSB of the result will be
 679:Generated_Source\PSoC5/ADC_SigDel.c **** *  returned. When the ADC is configured for 8-bit single ended mode,
 680:Generated_Source\PSoC5/ADC_SigDel.c **** *  the ADC_GetResult16() function should be used instead. This
 681:Generated_Source\PSoC5/ADC_SigDel.c **** *  function returns only signed 8-bit values. The maximum positive
 682:Generated_Source\PSoC5/ADC_SigDel.c **** *  signed 8-bit value is 127, but in singled ended 8-bit mode, the
 683:Generated_Source\PSoC5/ADC_SigDel.c **** *  maximum positive value is 255.
 684:Generated_Source\PSoC5/ADC_SigDel.c **** *
 685:Generated_Source\PSoC5/ADC_SigDel.c **** * Parameters:
 686:Generated_Source\PSoC5/ADC_SigDel.c **** *  None
 687:Generated_Source\PSoC5/ADC_SigDel.c **** *
 688:Generated_Source\PSoC5/ADC_SigDel.c **** * Return:
 689:Generated_Source\PSoC5/ADC_SigDel.c **** *  int8: The LSB of the last ADC conversion.
 690:Generated_Source\PSoC5/ADC_SigDel.c **** *
 691:Generated_Source\PSoC5/ADC_SigDel.c **** * Global variables:
 692:Generated_Source\PSoC5/ADC_SigDel.c **** *  ADC_SigDel_convDone:  Cleared in single sample mode with resolution
 693:Generated_Source\PSoC5/ADC_SigDel.c **** *                              above 16 bits
 694:Generated_Source\PSoC5/ADC_SigDel.c **** *
 695:Generated_Source\PSoC5/ADC_SigDel.c **** *******************************************************************************/
 696:Generated_Source\PSoC5/ADC_SigDel.c **** int8 ADC_SigDel_GetResult8( void ) 
 697:Generated_Source\PSoC5/ADC_SigDel.c **** {
 698:Generated_Source\PSoC5/ADC_SigDel.c ****     int8 result;
 699:Generated_Source\PSoC5/ADC_SigDel.c ****     uint8 coherency;
 700:Generated_Source\PSoC5/ADC_SigDel.c **** 
 701:Generated_Source\PSoC5/ADC_SigDel.c ****     /* Read active coherency configuration */
 702:Generated_Source\PSoC5/ADC_SigDel.c ****     coherency = ADC_SigDel_DEC_COHER_REG & ADC_SigDel_DEC_SAMP_KEY_MASK;
 703:Generated_Source\PSoC5/ADC_SigDel.c **** 
 704:Generated_Source\PSoC5/ADC_SigDel.c ****     result = (int8)ADC_SigDel_DEC_SAMP_REG;
 705:Generated_Source\PSoC5/ADC_SigDel.c **** 
 706:Generated_Source\PSoC5/ADC_SigDel.c ****     if(coherency == ADC_SigDel_DEC_SAMP_KEY_MID)
 707:Generated_Source\PSoC5/ADC_SigDel.c ****     {   /* Dummy read of the middle byte to unlock the coherency */
 708:Generated_Source\PSoC5/ADC_SigDel.c ****         (void)ADC_SigDel_DEC_SAMPM_REG;
 709:Generated_Source\PSoC5/ADC_SigDel.c ****     }
 710:Generated_Source\PSoC5/ADC_SigDel.c ****     else  if(coherency == ADC_SigDel_DEC_SAMP_KEY_HIGH)
 711:Generated_Source\PSoC5/ADC_SigDel.c ****     {   /* Dummy read of the MSB byte to unlock the coherency */
 712:Generated_Source\PSoC5/ADC_SigDel.c ****         (void)ADC_SigDel_DEC_SAMPH_REG;
 713:Generated_Source\PSoC5/ADC_SigDel.c ****     }
 714:Generated_Source\PSoC5/ADC_SigDel.c ****     else /*No action required for other coherency */
 715:Generated_Source\PSoC5/ADC_SigDel.c ****     {
ARM GAS  C:\Users\ANNASP~1\AppData\Local\Temp\ccsUsXsi.s 			page 14


 716:Generated_Source\PSoC5/ADC_SigDel.c ****     }
 717:Generated_Source\PSoC5/ADC_SigDel.c ****     /* Clear conversion complete status in Single Sample mode with resolution above 16 bit */
 718:Generated_Source\PSoC5/ADC_SigDel.c ****     if(ADC_SigDel_stopConversion != 0u)
 719:Generated_Source\PSoC5/ADC_SigDel.c ****     {
 720:Generated_Source\PSoC5/ADC_SigDel.c ****         ADC_SigDel_convDone = 0u;
 721:Generated_Source\PSoC5/ADC_SigDel.c ****     }
 722:Generated_Source\PSoC5/ADC_SigDel.c ****     return (result);
 723:Generated_Source\PSoC5/ADC_SigDel.c **** }
 724:Generated_Source\PSoC5/ADC_SigDel.c **** 
 725:Generated_Source\PSoC5/ADC_SigDel.c **** 
 726:Generated_Source\PSoC5/ADC_SigDel.c **** /*******************************************************************************
 727:Generated_Source\PSoC5/ADC_SigDel.c **** * Function Name: ADC_SigDel_GetResult16
 728:Generated_Source\PSoC5/ADC_SigDel.c **** ********************************************************************************
 729:Generated_Source\PSoC5/ADC_SigDel.c **** *
 730:Generated_Source\PSoC5/ADC_SigDel.c **** * Summary:
 731:Generated_Source\PSoC5/ADC_SigDel.c **** *  Returns a 16-bit result for a conversion with a result that has a
 732:Generated_Source\PSoC5/ADC_SigDel.c **** *  resolution of 8 to 16 bits. If the resolution is set greater than 16-bits,
 733:Generated_Source\PSoC5/ADC_SigDel.c **** *  it will return the 16 least significant bits of the result. When the ADC
 734:Generated_Source\PSoC5/ADC_SigDel.c **** *  is configured for 16-bit single ended mode, the ADC_GetResult32()
 735:Generated_Source\PSoC5/ADC_SigDel.c **** *  function should be used instead. This function returns only signed
 736:Generated_Source\PSoC5/ADC_SigDel.c **** *  16-bit result, which allows a maximum positive value of 32767, not 65535.
 737:Generated_Source\PSoC5/ADC_SigDel.c **** *  This function supports different coherency settings.
 738:Generated_Source\PSoC5/ADC_SigDel.c **** *
 739:Generated_Source\PSoC5/ADC_SigDel.c **** * Parameters:
 740:Generated_Source\PSoC5/ADC_SigDel.c **** *   void
 741:Generated_Source\PSoC5/ADC_SigDel.c **** *
 742:Generated_Source\PSoC5/ADC_SigDel.c **** * Return:
 743:Generated_Source\PSoC5/ADC_SigDel.c **** *  int16:  ADC result.
 744:Generated_Source\PSoC5/ADC_SigDel.c **** *
 745:Generated_Source\PSoC5/ADC_SigDel.c **** * Global variables:
 746:Generated_Source\PSoC5/ADC_SigDel.c **** *  ADC_SigDel_convDone:  Cleared in single sample mode with resolution
 747:Generated_Source\PSoC5/ADC_SigDel.c **** *                              above 16 bits
 748:Generated_Source\PSoC5/ADC_SigDel.c **** *
 749:Generated_Source\PSoC5/ADC_SigDel.c **** *******************************************************************************/
 750:Generated_Source\PSoC5/ADC_SigDel.c **** int16 ADC_SigDel_GetResult16(void) 
 751:Generated_Source\PSoC5/ADC_SigDel.c **** {
 752:Generated_Source\PSoC5/ADC_SigDel.c ****     uint16 result;
 753:Generated_Source\PSoC5/ADC_SigDel.c ****     uint8 coherency;
 754:Generated_Source\PSoC5/ADC_SigDel.c **** 
 755:Generated_Source\PSoC5/ADC_SigDel.c ****     /* Read active coherency configuration */
 756:Generated_Source\PSoC5/ADC_SigDel.c ****     coherency = ADC_SigDel_DEC_COHER_REG & ADC_SigDel_DEC_SAMP_KEY_MASK;
 757:Generated_Source\PSoC5/ADC_SigDel.c **** 
 758:Generated_Source\PSoC5/ADC_SigDel.c ****     if(coherency <= ADC_SigDel_DEC_SAMP_KEY_LOW)
 759:Generated_Source\PSoC5/ADC_SigDel.c ****     {   /*  Use default method to read result registers i.e. LSB byte read at the end*/
 760:Generated_Source\PSoC5/ADC_SigDel.c ****         #if (CY_PSOC3)
 761:Generated_Source\PSoC5/ADC_SigDel.c ****             result = ADC_SigDel_DEC_SAMPM_REG;
 762:Generated_Source\PSoC5/ADC_SigDel.c ****             result = (result << 8u) | ADC_SigDel_DEC_SAMP_REG;
 763:Generated_Source\PSoC5/ADC_SigDel.c ****         #else
 764:Generated_Source\PSoC5/ADC_SigDel.c ****             result = (CY_GET_REG16(ADC_SigDel_DEC_SAMP_16B_PTR));
 765:Generated_Source\PSoC5/ADC_SigDel.c ****         #endif /* CY_PSOC3 */
 766:Generated_Source\PSoC5/ADC_SigDel.c ****     }
 767:Generated_Source\PSoC5/ADC_SigDel.c ****     else /* MID or HIGH */
 768:Generated_Source\PSoC5/ADC_SigDel.c ****     {   /* Read middle byte at the end */
 769:Generated_Source\PSoC5/ADC_SigDel.c ****         #if (CY_PSOC3)
 770:Generated_Source\PSoC5/ADC_SigDel.c ****             result = (CY_GET_REG16(ADC_SigDel_DEC_SAMP_16B_PTR));
 771:Generated_Source\PSoC5/ADC_SigDel.c ****         #else
 772:Generated_Source\PSoC5/ADC_SigDel.c ****             result = ADC_SigDel_DEC_SAMP_REG;
ARM GAS  C:\Users\ANNASP~1\AppData\Local\Temp\ccsUsXsi.s 			page 15


 773:Generated_Source\PSoC5/ADC_SigDel.c ****             result |=  (uint16)((uint16)ADC_SigDel_DEC_SAMPM_REG << 8u);
 774:Generated_Source\PSoC5/ADC_SigDel.c ****         #endif /* CY_PSOC3 */
 775:Generated_Source\PSoC5/ADC_SigDel.c ****         if(coherency == ADC_SigDel_DEC_SAMP_KEY_HIGH)
 776:Generated_Source\PSoC5/ADC_SigDel.c ****         {   /* Dummy read of the MSB byte to unlock the coherency */
 777:Generated_Source\PSoC5/ADC_SigDel.c ****             (void)ADC_SigDel_DEC_SAMPH_REG;
 778:Generated_Source\PSoC5/ADC_SigDel.c ****         }
 779:Generated_Source\PSoC5/ADC_SigDel.c ****     }
 780:Generated_Source\PSoC5/ADC_SigDel.c ****     /* Clear conversion complete status in Single Sample mode with resolution above 16 bit */
 781:Generated_Source\PSoC5/ADC_SigDel.c ****     if(ADC_SigDel_stopConversion != 0u)
 782:Generated_Source\PSoC5/ADC_SigDel.c ****     {
 783:Generated_Source\PSoC5/ADC_SigDel.c ****         ADC_SigDel_convDone = 0u;
 784:Generated_Source\PSoC5/ADC_SigDel.c ****     }
 785:Generated_Source\PSoC5/ADC_SigDel.c **** 
 786:Generated_Source\PSoC5/ADC_SigDel.c ****     return ((int16)result);
 787:Generated_Source\PSoC5/ADC_SigDel.c **** }
 788:Generated_Source\PSoC5/ADC_SigDel.c **** 
 789:Generated_Source\PSoC5/ADC_SigDel.c **** 
 790:Generated_Source\PSoC5/ADC_SigDel.c **** /*******************************************************************************
 791:Generated_Source\PSoC5/ADC_SigDel.c **** * Function Name: ADC_SigDel_GetResult32
 792:Generated_Source\PSoC5/ADC_SigDel.c **** ********************************************************************************
 793:Generated_Source\PSoC5/ADC_SigDel.c **** *
 794:Generated_Source\PSoC5/ADC_SigDel.c **** * Summary:
 795:Generated_Source\PSoC5/ADC_SigDel.c **** *  Returns a 32-bit result for a conversion with a result that has a
 796:Generated_Source\PSoC5/ADC_SigDel.c **** *  resolution of 8 to 20 bits.
 797:Generated_Source\PSoC5/ADC_SigDel.c **** *  This function supports different coherency settings.
 798:Generated_Source\PSoC5/ADC_SigDel.c **** *
 799:Generated_Source\PSoC5/ADC_SigDel.c **** * Parameters:
 800:Generated_Source\PSoC5/ADC_SigDel.c **** *  None
 801:Generated_Source\PSoC5/ADC_SigDel.c **** *
 802:Generated_Source\PSoC5/ADC_SigDel.c **** * Return:
 803:Generated_Source\PSoC5/ADC_SigDel.c **** *  int32: Result of the last ADC conversion.
 804:Generated_Source\PSoC5/ADC_SigDel.c **** *
 805:Generated_Source\PSoC5/ADC_SigDel.c **** * Global variables:
 806:Generated_Source\PSoC5/ADC_SigDel.c **** *  ADC_SigDel_convDone:  Cleared in single sample mode with resolution
 807:Generated_Source\PSoC5/ADC_SigDel.c **** *                              above 16 bits
 808:Generated_Source\PSoC5/ADC_SigDel.c **** *
 809:Generated_Source\PSoC5/ADC_SigDel.c **** *******************************************************************************/
 810:Generated_Source\PSoC5/ADC_SigDel.c **** int32 ADC_SigDel_GetResult32(void) 
 811:Generated_Source\PSoC5/ADC_SigDel.c **** {
 812:Generated_Source\PSoC5/ADC_SigDel.c ****     uint32 result;
 813:Generated_Source\PSoC5/ADC_SigDel.c ****     uint8 coherency;
 814:Generated_Source\PSoC5/ADC_SigDel.c ****     #if (CY_PSOC3)
 815:Generated_Source\PSoC5/ADC_SigDel.c **** 	    uint16 tmp;
 816:Generated_Source\PSoC5/ADC_SigDel.c ****     #endif /* CY_PSOC3 */
 817:Generated_Source\PSoC5/ADC_SigDel.c **** 
 818:Generated_Source\PSoC5/ADC_SigDel.c ****     /* Read active coherency configuration */
 819:Generated_Source\PSoC5/ADC_SigDel.c ****     coherency = ADC_SigDel_DEC_COHER_REG & ADC_SigDel_DEC_SAMP_KEY_MASK;
 820:Generated_Source\PSoC5/ADC_SigDel.c **** 
 821:Generated_Source\PSoC5/ADC_SigDel.c ****     if(coherency <= ADC_SigDel_DEC_SAMP_KEY_LOW)
 822:Generated_Source\PSoC5/ADC_SigDel.c ****     {   /*  Use default method to read result registers i.e. LSB byte read at the end*/
 823:Generated_Source\PSoC5/ADC_SigDel.c ****         #if (CY_PSOC3)
 824:Generated_Source\PSoC5/ADC_SigDel.c ****             result = ADC_SigDel_DEC_SAMPH_REG;
 825:Generated_Source\PSoC5/ADC_SigDel.c ****             if((result & 0x80u) != 0u)
 826:Generated_Source\PSoC5/ADC_SigDel.c ****             {   /* Sign extend */
 827:Generated_Source\PSoC5/ADC_SigDel.c ****                 result |= 0xFF00u;
 828:Generated_Source\PSoC5/ADC_SigDel.c ****             }
 829:Generated_Source\PSoC5/ADC_SigDel.c ****             result = (result << 8u) | ADC_SigDel_DEC_SAMPM_REG;
ARM GAS  C:\Users\ANNASP~1\AppData\Local\Temp\ccsUsXsi.s 			page 16


 830:Generated_Source\PSoC5/ADC_SigDel.c ****             result = (result << 8u) | ADC_SigDel_DEC_SAMP_REG;
 831:Generated_Source\PSoC5/ADC_SigDel.c ****         #else
 832:Generated_Source\PSoC5/ADC_SigDel.c ****             result = CY_GET_REG16(ADC_SigDel_DEC_SAMPH_16B_PTR);
 833:Generated_Source\PSoC5/ADC_SigDel.c ****             result = (result << 16u) | (CY_GET_REG16(ADC_SigDel_DEC_SAMP_16B_PTR));
 834:Generated_Source\PSoC5/ADC_SigDel.c ****         #endif /* CY_PSOC3 */
 835:Generated_Source\PSoC5/ADC_SigDel.c ****     }
 836:Generated_Source\PSoC5/ADC_SigDel.c ****     else if(coherency == ADC_SigDel_DEC_SAMP_KEY_MID)
 837:Generated_Source\PSoC5/ADC_SigDel.c ****     {   /* Read middle byte at the end */
 838:Generated_Source\PSoC5/ADC_SigDel.c ****         #if (CY_PSOC3)
 839:Generated_Source\PSoC5/ADC_SigDel.c ****             result = ADC_SigDel_DEC_SAMPH_REG;
 840:Generated_Source\PSoC5/ADC_SigDel.c ****             if((result & 0x80u) != 0u)
 841:Generated_Source\PSoC5/ADC_SigDel.c ****             {   /* Sign extend */
 842:Generated_Source\PSoC5/ADC_SigDel.c ****                 result |= 0xFF00u;
 843:Generated_Source\PSoC5/ADC_SigDel.c ****             }
 844:Generated_Source\PSoC5/ADC_SigDel.c ****             result = (result << 16u) | (CY_GET_REG16(ADC_SigDel_DEC_SAMP_16B_PTR));
 845:Generated_Source\PSoC5/ADC_SigDel.c ****         #else
 846:Generated_Source\PSoC5/ADC_SigDel.c ****             result = CY_GET_REG16(ADC_SigDel_DEC_SAMPH_16B_PTR);
 847:Generated_Source\PSoC5/ADC_SigDel.c ****             result = (result << 16u) | ADC_SigDel_DEC_SAMP_REG;
 848:Generated_Source\PSoC5/ADC_SigDel.c ****             result |=  (uint32)((uint32)ADC_SigDel_DEC_SAMPM_REG << 8u);
 849:Generated_Source\PSoC5/ADC_SigDel.c ****         #endif /* CY_PSOC3 */
 850:Generated_Source\PSoC5/ADC_SigDel.c ****     }
 851:Generated_Source\PSoC5/ADC_SigDel.c ****     else /*ADC_SigDel_DEC_SAMP_KEY_HIGH */
 852:Generated_Source\PSoC5/ADC_SigDel.c ****     {
 853:Generated_Source\PSoC5/ADC_SigDel.c ****         /* Read MSB byte at the end */
 854:Generated_Source\PSoC5/ADC_SigDel.c ****         #if (CY_PSOC3)
 855:Generated_Source\PSoC5/ADC_SigDel.c ****             result = CY_GET_REG16(ADC_SigDel_DEC_SAMP_16B_PTR);
 856:Generated_Source\PSoC5/ADC_SigDel.c **** 			tmp = ADC_SigDel_DEC_SAMPH_REG;
 857:Generated_Source\PSoC5/ADC_SigDel.c ****             if((tmp & 0x80u) != 0u)
 858:Generated_Source\PSoC5/ADC_SigDel.c ****             {   /* Sign extend */
 859:Generated_Source\PSoC5/ADC_SigDel.c ****                 tmp |= 0xFF00u;
 860:Generated_Source\PSoC5/ADC_SigDel.c ****             }
 861:Generated_Source\PSoC5/ADC_SigDel.c ****             result |= (uint32)tmp << 16u;
 862:Generated_Source\PSoC5/ADC_SigDel.c ****         #else
 863:Generated_Source\PSoC5/ADC_SigDel.c ****             result = CY_GET_REG16(ADC_SigDel_DEC_SAMP_16B_PTR);
 864:Generated_Source\PSoC5/ADC_SigDel.c ****             result |= (uint32)((uint32)CY_GET_REG16(ADC_SigDel_DEC_SAMPH_16B_PTR) << 16u);
 865:Generated_Source\PSoC5/ADC_SigDel.c ****         #endif /* CY_PSOC3 */
 866:Generated_Source\PSoC5/ADC_SigDel.c ****     }
 867:Generated_Source\PSoC5/ADC_SigDel.c ****     /* Clear conversion complete status in Single Sample mode with resolution above 16 bit */
 868:Generated_Source\PSoC5/ADC_SigDel.c ****     if(ADC_SigDel_stopConversion != 0u)
 869:Generated_Source\PSoC5/ADC_SigDel.c ****     {
 870:Generated_Source\PSoC5/ADC_SigDel.c ****         ADC_SigDel_convDone = 0u;
 871:Generated_Source\PSoC5/ADC_SigDel.c ****     }
 872:Generated_Source\PSoC5/ADC_SigDel.c **** 
 873:Generated_Source\PSoC5/ADC_SigDel.c ****     return ((int32)result);
 874:Generated_Source\PSoC5/ADC_SigDel.c **** }
 875:Generated_Source\PSoC5/ADC_SigDel.c **** 
 876:Generated_Source\PSoC5/ADC_SigDel.c **** 
 877:Generated_Source\PSoC5/ADC_SigDel.c **** /*******************************************************************************
 878:Generated_Source\PSoC5/ADC_SigDel.c **** * Function Name: ADC_SigDel_SetOffset
 879:Generated_Source\PSoC5/ADC_SigDel.c **** ********************************************************************************
 880:Generated_Source\PSoC5/ADC_SigDel.c **** *
 881:Generated_Source\PSoC5/ADC_SigDel.c **** * Summary:
 882:Generated_Source\PSoC5/ADC_SigDel.c **** *  Sets the ADC offset which is used by the functions ADC_CountsTo_uVolts, 
 883:Generated_Source\PSoC5/ADC_SigDel.c **** *  ADC_CountsTo_mVolts, and ADC_CountsTo_Volts to subtract the offset from the 
 884:Generated_Source\PSoC5/ADC_SigDel.c **** *  given reading before calculating the voltage conversion.
 885:Generated_Source\PSoC5/ADC_SigDel.c **** *
 886:Generated_Source\PSoC5/ADC_SigDel.c **** * Parameters:
ARM GAS  C:\Users\ANNASP~1\AppData\Local\Temp\ccsUsXsi.s 			page 17


 887:Generated_Source\PSoC5/ADC_SigDel.c **** *  int32:  This value is a measured value when the inputs are shorted or 
 888:Generated_Source\PSoC5/ADC_SigDel.c **** *          connected to the same input voltage.
 889:Generated_Source\PSoC5/ADC_SigDel.c **** *
 890:Generated_Source\PSoC5/ADC_SigDel.c **** * Return:
 891:Generated_Source\PSoC5/ADC_SigDel.c **** *  None
 892:Generated_Source\PSoC5/ADC_SigDel.c **** *
 893:Generated_Source\PSoC5/ADC_SigDel.c **** * Global variables:
 894:Generated_Source\PSoC5/ADC_SigDel.c **** *  ADC_SigDel_Offset:  Modified to set the user provided offset. This
 895:Generated_Source\PSoC5/ADC_SigDel.c **** *  variable is used for offset calibration purpose.
 896:Generated_Source\PSoC5/ADC_SigDel.c **** *
 897:Generated_Source\PSoC5/ADC_SigDel.c **** * Side Effects:
 898:Generated_Source\PSoC5/ADC_SigDel.c **** *  Affects the ADC_SigDel_CountsTo_Volts,
 899:Generated_Source\PSoC5/ADC_SigDel.c **** *  ADC_SigDel_CountsTo_mVolts, ADC_SigDel_CountsTo_uVolts functions
 900:Generated_Source\PSoC5/ADC_SigDel.c **** *  by subtracting the given offset.
 901:Generated_Source\PSoC5/ADC_SigDel.c **** *
 902:Generated_Source\PSoC5/ADC_SigDel.c **** *******************************************************************************/
 903:Generated_Source\PSoC5/ADC_SigDel.c **** void ADC_SigDel_SetOffset(int32 offset) 
 904:Generated_Source\PSoC5/ADC_SigDel.c **** {
 905:Generated_Source\PSoC5/ADC_SigDel.c **** 
 906:Generated_Source\PSoC5/ADC_SigDel.c ****     ADC_SigDel_Offset = offset;
 907:Generated_Source\PSoC5/ADC_SigDel.c **** }
 908:Generated_Source\PSoC5/ADC_SigDel.c **** 
 909:Generated_Source\PSoC5/ADC_SigDel.c **** 
 910:Generated_Source\PSoC5/ADC_SigDel.c **** /*******************************************************************************
 911:Generated_Source\PSoC5/ADC_SigDel.c **** * Function Name: ADC_SigDel_SetGain
 912:Generated_Source\PSoC5/ADC_SigDel.c **** ********************************************************************************
 913:Generated_Source\PSoC5/ADC_SigDel.c **** *
 914:Generated_Source\PSoC5/ADC_SigDel.c **** * Summary:
 915:Generated_Source\PSoC5/ADC_SigDel.c **** *  Sets the ADC gain in counts per volt for the voltage conversion
 916:Generated_Source\PSoC5/ADC_SigDel.c **** *  functions below. This value is set by default by the reference and
 917:Generated_Source\PSoC5/ADC_SigDel.c **** *  input range settings. It should only be used to further calibrate the
 918:Generated_Source\PSoC5/ADC_SigDel.c **** *  ADC with a known input or if an external reference is used. This
 919:Generated_Source\PSoC5/ADC_SigDel.c **** *  function may also be used to calibrate an entire signal chain, not
 920:Generated_Source\PSoC5/ADC_SigDel.c **** *  just the ADC.
 921:Generated_Source\PSoC5/ADC_SigDel.c **** *
 922:Generated_Source\PSoC5/ADC_SigDel.c **** * Parameters:
 923:Generated_Source\PSoC5/ADC_SigDel.c **** *  int32: ADC gain in counts per volt.
 924:Generated_Source\PSoC5/ADC_SigDel.c **** *
 925:Generated_Source\PSoC5/ADC_SigDel.c **** * Return:
 926:Generated_Source\PSoC5/ADC_SigDel.c **** *  None
 927:Generated_Source\PSoC5/ADC_SigDel.c **** *
 928:Generated_Source\PSoC5/ADC_SigDel.c **** * Global variables:
 929:Generated_Source\PSoC5/ADC_SigDel.c **** *  ADC_SigDel_CountsPerVolt:  modified to set the ADC gain in counts
 930:Generated_Source\PSoC5/ADC_SigDel.c **** *   per volt.
 931:Generated_Source\PSoC5/ADC_SigDel.c **** *
 932:Generated_Source\PSoC5/ADC_SigDel.c **** * Side Effects:
 933:Generated_Source\PSoC5/ADC_SigDel.c **** *  Affects the ADC_SigDel_CountsTo_Volts,
 934:Generated_Source\PSoC5/ADC_SigDel.c **** *  ADC_SigDel_CountsTo_mVolts, ADC_SigDel_CountsTo_uVolts functions
 935:Generated_Source\PSoC5/ADC_SigDel.c **** *  supplying the correct conversion between ADC counts and voltage.
 936:Generated_Source\PSoC5/ADC_SigDel.c **** *
 937:Generated_Source\PSoC5/ADC_SigDel.c **** *******************************************************************************/
 938:Generated_Source\PSoC5/ADC_SigDel.c **** void ADC_SigDel_SetGain(int32 adcGain) 
 939:Generated_Source\PSoC5/ADC_SigDel.c **** {
 940:Generated_Source\PSoC5/ADC_SigDel.c ****     ADC_SigDel_CountsPerVolt = adcGain;
 941:Generated_Source\PSoC5/ADC_SigDel.c **** }
 942:Generated_Source\PSoC5/ADC_SigDel.c **** 
 943:Generated_Source\PSoC5/ADC_SigDel.c **** 
ARM GAS  C:\Users\ANNASP~1\AppData\Local\Temp\ccsUsXsi.s 			page 18


 944:Generated_Source\PSoC5/ADC_SigDel.c **** /*******************************************************************************
 945:Generated_Source\PSoC5/ADC_SigDel.c **** * Function Name: ADC_SigDel_CountsTo_mVolts
 946:Generated_Source\PSoC5/ADC_SigDel.c **** ********************************************************************************
 947:Generated_Source\PSoC5/ADC_SigDel.c **** *
 948:Generated_Source\PSoC5/ADC_SigDel.c **** * Summary:
 949:Generated_Source\PSoC5/ADC_SigDel.c **** *  Converts the ADC counts output to mVolts as a 16-bit integer. For
 950:Generated_Source\PSoC5/ADC_SigDel.c **** *  example, if the ADC measured 0.534 volts, the return value would
 951:Generated_Source\PSoC5/ADC_SigDel.c **** *  be 534 mVolts.
 952:Generated_Source\PSoC5/ADC_SigDel.c **** *
 953:Generated_Source\PSoC5/ADC_SigDel.c **** * Parameters:
 954:Generated_Source\PSoC5/ADC_SigDel.c **** *  int32: adcCounts Result from the ADC conversion.
 955:Generated_Source\PSoC5/ADC_SigDel.c **** *
 956:Generated_Source\PSoC5/ADC_SigDel.c **** * Return:
 957:Generated_Source\PSoC5/ADC_SigDel.c **** *  int16:  Result in mVolts
 958:Generated_Source\PSoC5/ADC_SigDel.c **** *
 959:Generated_Source\PSoC5/ADC_SigDel.c **** * Global variables:
 960:Generated_Source\PSoC5/ADC_SigDel.c **** *  ADC_SigDel_CountsPerVolt:  used to convert ADC counts to mVolts.
 961:Generated_Source\PSoC5/ADC_SigDel.c **** *  ADC_SigDel_Offset:  Used as the offset while converting ADC counts
 962:Generated_Source\PSoC5/ADC_SigDel.c **** *   to mVolts.
 963:Generated_Source\PSoC5/ADC_SigDel.c **** *
 964:Generated_Source\PSoC5/ADC_SigDel.c **** *******************************************************************************/
 965:Generated_Source\PSoC5/ADC_SigDel.c **** int16 ADC_SigDel_CountsTo_mVolts(int32 adcCounts) 
 966:Generated_Source\PSoC5/ADC_SigDel.c **** {
 967:Generated_Source\PSoC5/ADC_SigDel.c **** 
 968:Generated_Source\PSoC5/ADC_SigDel.c ****     int16 mVolts;
 969:Generated_Source\PSoC5/ADC_SigDel.c **** 
 970:Generated_Source\PSoC5/ADC_SigDel.c ****     /* Convert adcCounts to the right align if left option selected */
 971:Generated_Source\PSoC5/ADC_SigDel.c ****     #if(ADC_SigDel_CFG1_DEC_DIV != 0)
 972:Generated_Source\PSoC5/ADC_SigDel.c ****         if(ADC_SigDel_Config == ADC_SigDel_CFG1)
 973:Generated_Source\PSoC5/ADC_SigDel.c ****         {
 974:Generated_Source\PSoC5/ADC_SigDel.c ****             adcCounts /= ADC_SigDel_CFG1_DEC_DIV;
 975:Generated_Source\PSoC5/ADC_SigDel.c ****         }
 976:Generated_Source\PSoC5/ADC_SigDel.c ****     #endif /* ADC_SigDel_CFG1_DEC_DIV */
 977:Generated_Source\PSoC5/ADC_SigDel.c ****     #if((ADC_SigDel_CFG2_DEC_DIV != 0) && (ADC_SigDel_DEFAULT_NUM_CONFIGS > 1))
 978:Generated_Source\PSoC5/ADC_SigDel.c ****         if(ADC_SigDel_Config == ADC_SigDel_CFG2)
 979:Generated_Source\PSoC5/ADC_SigDel.c ****         {
 980:Generated_Source\PSoC5/ADC_SigDel.c ****             adcCounts /= ADC_SigDel_CFG2_DEC_DIV;
 981:Generated_Source\PSoC5/ADC_SigDel.c ****         }
 982:Generated_Source\PSoC5/ADC_SigDel.c ****     #endif /* ADC_SigDel_CFG2_DEC_DIV */
 983:Generated_Source\PSoC5/ADC_SigDel.c ****     #if((ADC_SigDel_CFG3_DEC_DIV != 0) && (ADC_SigDel_DEFAULT_NUM_CONFIGS > 2))
 984:Generated_Source\PSoC5/ADC_SigDel.c ****         if(ADC_SigDel_Config == ADC_SigDel_CFG3)
 985:Generated_Source\PSoC5/ADC_SigDel.c ****         {
 986:Generated_Source\PSoC5/ADC_SigDel.c ****             adcCounts /= ADC_SigDel_CFG3_DEC_DIV;
 987:Generated_Source\PSoC5/ADC_SigDel.c ****         }
 988:Generated_Source\PSoC5/ADC_SigDel.c ****     #endif /* ADC_SigDel_CFG2_DEC_DIV */
 989:Generated_Source\PSoC5/ADC_SigDel.c ****     #if((ADC_SigDel_CFG4_DEC_DIV != 0) && (ADC_SigDel_DEFAULT_NUM_CONFIGS > 3))
 990:Generated_Source\PSoC5/ADC_SigDel.c ****         if(ADC_SigDel_Config == ADC_SigDel_CFG4)
 991:Generated_Source\PSoC5/ADC_SigDel.c ****         {
 992:Generated_Source\PSoC5/ADC_SigDel.c ****             adcCounts /= ADC_SigDel_CFG4_DEC_DIV;
 993:Generated_Source\PSoC5/ADC_SigDel.c ****         }
 994:Generated_Source\PSoC5/ADC_SigDel.c ****     #endif /* ADC_SigDel_CFG2_DEC_DIV */
 995:Generated_Source\PSoC5/ADC_SigDel.c **** 
 996:Generated_Source\PSoC5/ADC_SigDel.c ****     /* Subtract ADC offset */
 997:Generated_Source\PSoC5/ADC_SigDel.c ****     adcCounts -= ADC_SigDel_Offset;
 998:Generated_Source\PSoC5/ADC_SigDel.c **** 
 999:Generated_Source\PSoC5/ADC_SigDel.c ****     mVolts = (int16)(( adcCounts * ADC_SigDel_1MV_COUNTS ) / ADC_SigDel_CountsPerVolt) ;
1000:Generated_Source\PSoC5/ADC_SigDel.c **** 
ARM GAS  C:\Users\ANNASP~1\AppData\Local\Temp\ccsUsXsi.s 			page 19


1001:Generated_Source\PSoC5/ADC_SigDel.c ****     return(mVolts);
1002:Generated_Source\PSoC5/ADC_SigDel.c **** }
1003:Generated_Source\PSoC5/ADC_SigDel.c **** 
1004:Generated_Source\PSoC5/ADC_SigDel.c **** 
1005:Generated_Source\PSoC5/ADC_SigDel.c **** /*******************************************************************************
1006:Generated_Source\PSoC5/ADC_SigDel.c **** * Function Name: ADC_SigDel_CountsTo_Volts
1007:Generated_Source\PSoC5/ADC_SigDel.c **** ********************************************************************************
1008:Generated_Source\PSoC5/ADC_SigDel.c **** *
1009:Generated_Source\PSoC5/ADC_SigDel.c **** * Summary:
1010:Generated_Source\PSoC5/ADC_SigDel.c **** *  Converts the ADC output to Volts as a floating point number. For
1011:Generated_Source\PSoC5/ADC_SigDel.c **** *  example, if the ADC measure a voltage of 1.2345 Volts, the
1012:Generated_Source\PSoC5/ADC_SigDel.c **** *  returned result would be +1.2345 Volts.
1013:Generated_Source\PSoC5/ADC_SigDel.c **** *
1014:Generated_Source\PSoC5/ADC_SigDel.c **** * Parameters:
1015:Generated_Source\PSoC5/ADC_SigDel.c **** *  int32 adcCounts:  Result from the ADC conversion.
1016:Generated_Source\PSoC5/ADC_SigDel.c **** *
1017:Generated_Source\PSoC5/ADC_SigDel.c **** * Return:
1018:Generated_Source\PSoC5/ADC_SigDel.c **** *  float32: Result in Volts
1019:Generated_Source\PSoC5/ADC_SigDel.c **** *
1020:Generated_Source\PSoC5/ADC_SigDel.c **** * Global variables:
1021:Generated_Source\PSoC5/ADC_SigDel.c **** *  ADC_SigDel_CountsPerVolt:  used to convert to Volts.
1022:Generated_Source\PSoC5/ADC_SigDel.c **** *  ADC_SigDel_Offset:  Used as the offset while converting ADC counts
1023:Generated_Source\PSoC5/ADC_SigDel.c **** *   to Volts.
1024:Generated_Source\PSoC5/ADC_SigDel.c **** *
1025:Generated_Source\PSoC5/ADC_SigDel.c **** *******************************************************************************/
1026:Generated_Source\PSoC5/ADC_SigDel.c **** float32 ADC_SigDel_CountsTo_Volts(int32 adcCounts) 
1027:Generated_Source\PSoC5/ADC_SigDel.c **** {
1028:Generated_Source\PSoC5/ADC_SigDel.c **** 
1029:Generated_Source\PSoC5/ADC_SigDel.c ****     float32 Volts;
1030:Generated_Source\PSoC5/ADC_SigDel.c **** 
1031:Generated_Source\PSoC5/ADC_SigDel.c ****     /* Convert adcCounts to the right align if left option selected */
1032:Generated_Source\PSoC5/ADC_SigDel.c ****     #if(ADC_SigDel_CFG1_DEC_DIV != 0)
1033:Generated_Source\PSoC5/ADC_SigDel.c ****         if(ADC_SigDel_Config == ADC_SigDel_CFG1)
1034:Generated_Source\PSoC5/ADC_SigDel.c ****         {
1035:Generated_Source\PSoC5/ADC_SigDel.c ****             adcCounts /= ADC_SigDel_CFG1_DEC_DIV;
1036:Generated_Source\PSoC5/ADC_SigDel.c ****         }
1037:Generated_Source\PSoC5/ADC_SigDel.c ****     #endif /* ADC_SigDel_CFG1_DEC_DIV */
1038:Generated_Source\PSoC5/ADC_SigDel.c ****     #if((ADC_SigDel_CFG2_DEC_DIV != 0) && (ADC_SigDel_DEFAULT_NUM_CONFIGS > 1))
1039:Generated_Source\PSoC5/ADC_SigDel.c ****         if(ADC_SigDel_Config == ADC_SigDel_CFG2)
1040:Generated_Source\PSoC5/ADC_SigDel.c ****         {
1041:Generated_Source\PSoC5/ADC_SigDel.c ****             adcCounts /= ADC_SigDel_CFG2_DEC_DIV;
1042:Generated_Source\PSoC5/ADC_SigDel.c ****         }
1043:Generated_Source\PSoC5/ADC_SigDel.c ****     #endif /* ADC_SigDel_CFG2_DEC_DIV */
1044:Generated_Source\PSoC5/ADC_SigDel.c ****     #if((ADC_SigDel_CFG3_DEC_DIV != 0) && (ADC_SigDel_DEFAULT_NUM_CONFIGS > 2))
1045:Generated_Source\PSoC5/ADC_SigDel.c ****         if(ADC_SigDel_Config == ADC_SigDel_CFG3)
1046:Generated_Source\PSoC5/ADC_SigDel.c ****         {
1047:Generated_Source\PSoC5/ADC_SigDel.c ****             adcCounts /= ADC_SigDel_CFG3_DEC_DIV;
1048:Generated_Source\PSoC5/ADC_SigDel.c ****         }
1049:Generated_Source\PSoC5/ADC_SigDel.c ****     #endif /* ADC_SigDel_CFG2_DEC_DIV */
1050:Generated_Source\PSoC5/ADC_SigDel.c ****     #if((ADC_SigDel_CFG4_DEC_DIV != 0) && (ADC_SigDel_DEFAULT_NUM_CONFIGS > 3))
1051:Generated_Source\PSoC5/ADC_SigDel.c ****         if(ADC_SigDel_Config == ADC_SigDel_CFG4)
1052:Generated_Source\PSoC5/ADC_SigDel.c ****         {
1053:Generated_Source\PSoC5/ADC_SigDel.c ****             adcCounts /= ADC_SigDel_CFG4_DEC_DIV;
1054:Generated_Source\PSoC5/ADC_SigDel.c ****         }
1055:Generated_Source\PSoC5/ADC_SigDel.c ****     #endif /* ADC_SigDel_CFG2_DEC_DIV */
1056:Generated_Source\PSoC5/ADC_SigDel.c **** 
1057:Generated_Source\PSoC5/ADC_SigDel.c ****     /* Subtract ADC offset */
ARM GAS  C:\Users\ANNASP~1\AppData\Local\Temp\ccsUsXsi.s 			page 20


1058:Generated_Source\PSoC5/ADC_SigDel.c ****     adcCounts -= ADC_SigDel_Offset;
1059:Generated_Source\PSoC5/ADC_SigDel.c **** 
1060:Generated_Source\PSoC5/ADC_SigDel.c ****     Volts = (float32)adcCounts / (float32)ADC_SigDel_CountsPerVolt;
1061:Generated_Source\PSoC5/ADC_SigDel.c **** 
1062:Generated_Source\PSoC5/ADC_SigDel.c ****     return( Volts );
1063:Generated_Source\PSoC5/ADC_SigDel.c **** }
1064:Generated_Source\PSoC5/ADC_SigDel.c **** 
1065:Generated_Source\PSoC5/ADC_SigDel.c **** 
1066:Generated_Source\PSoC5/ADC_SigDel.c **** /*******************************************************************************
1067:Generated_Source\PSoC5/ADC_SigDel.c **** * Function Name: ADC_SigDel_CountsTo_uVolts
1068:Generated_Source\PSoC5/ADC_SigDel.c **** ********************************************************************************
1069:Generated_Source\PSoC5/ADC_SigDel.c **** *
1070:Generated_Source\PSoC5/ADC_SigDel.c **** * Summary:
1071:Generated_Source\PSoC5/ADC_SigDel.c **** *  Converts the ADC output to uVolts as a 32-bit integer. For example,
1072:Generated_Source\PSoC5/ADC_SigDel.c **** *  if the ADC measured -0.02345 Volts, the return value would be -23450 uVolts.
1073:Generated_Source\PSoC5/ADC_SigDel.c **** *
1074:Generated_Source\PSoC5/ADC_SigDel.c **** * Parameters:
1075:Generated_Source\PSoC5/ADC_SigDel.c **** *  int32 adcCounts: Result from the ADC conversion.
1076:Generated_Source\PSoC5/ADC_SigDel.c **** *
1077:Generated_Source\PSoC5/ADC_SigDel.c **** * Return:
1078:Generated_Source\PSoC5/ADC_SigDel.c **** *  int32:  Result in uVolts
1079:Generated_Source\PSoC5/ADC_SigDel.c **** *
1080:Generated_Source\PSoC5/ADC_SigDel.c **** * Global variables:
1081:Generated_Source\PSoC5/ADC_SigDel.c **** *  ADC_SigDel_CountsPerVolt:  used to convert ADC counts to mVolts.
1082:Generated_Source\PSoC5/ADC_SigDel.c **** *  ADC_SigDel_Offset:  Used as the offset while converting ADC counts
1083:Generated_Source\PSoC5/ADC_SigDel.c **** *   to mVolts.
1084:Generated_Source\PSoC5/ADC_SigDel.c **** *
1085:Generated_Source\PSoC5/ADC_SigDel.c **** * Theory:
1086:Generated_Source\PSoC5/ADC_SigDel.c **** *  Care must be taken to not exceed the maximum value for a 31 bit signed
1087:Generated_Source\PSoC5/ADC_SigDel.c **** *  number in the conversion to uVolts and at the same time not lose resolution.
1088:Generated_Source\PSoC5/ADC_SigDel.c **** *
1089:Generated_Source\PSoC5/ADC_SigDel.c **** *  uVolts = ((A * adcCounts) / ((int32)ADC_SigDel_CountsPerVolt / B));
1090:Generated_Source\PSoC5/ADC_SigDel.c **** *
1091:Generated_Source\PSoC5/ADC_SigDel.c **** *******************************************************************************/
1092:Generated_Source\PSoC5/ADC_SigDel.c **** int32 ADC_SigDel_CountsTo_uVolts(int32 adcCounts) 
1093:Generated_Source\PSoC5/ADC_SigDel.c **** {
1094:Generated_Source\PSoC5/ADC_SigDel.c **** 
1095:Generated_Source\PSoC5/ADC_SigDel.c ****     int32 uVolts;
1096:Generated_Source\PSoC5/ADC_SigDel.c ****     int32 coefA;
1097:Generated_Source\PSoC5/ADC_SigDel.c ****     int32 coefB;
1098:Generated_Source\PSoC5/ADC_SigDel.c ****     uint8 resolution;
1099:Generated_Source\PSoC5/ADC_SigDel.c **** 
1100:Generated_Source\PSoC5/ADC_SigDel.c ****     /* Set the resolution based on the configuration */
1101:Generated_Source\PSoC5/ADC_SigDel.c ****     /* Convert adcCounts to the right align if left option selected */
1102:Generated_Source\PSoC5/ADC_SigDel.c ****     if (ADC_SigDel_Config == ADC_SigDel_CFG1)
1103:Generated_Source\PSoC5/ADC_SigDel.c ****     {
1104:Generated_Source\PSoC5/ADC_SigDel.c ****         resolution = ADC_SigDel_CFG1_RESOLUTION;
1105:Generated_Source\PSoC5/ADC_SigDel.c ****         #if(ADC_SigDel_CFG1_DEC_DIV != 0)
1106:Generated_Source\PSoC5/ADC_SigDel.c ****             adcCounts /= ADC_SigDel_CFG1_DEC_DIV;
1107:Generated_Source\PSoC5/ADC_SigDel.c ****         #endif /* ADC_SigDel_CFG1_DEC_DIV */
1108:Generated_Source\PSoC5/ADC_SigDel.c ****     }
1109:Generated_Source\PSoC5/ADC_SigDel.c ****     else if (ADC_SigDel_Config == ADC_SigDel_CFG2)
1110:Generated_Source\PSoC5/ADC_SigDel.c ****     {
1111:Generated_Source\PSoC5/ADC_SigDel.c ****         resolution = ADC_SigDel_CFG2_RESOLUTION;
1112:Generated_Source\PSoC5/ADC_SigDel.c ****         #if(ADC_SigDel_CFG2_DEC_DIV != 0)
1113:Generated_Source\PSoC5/ADC_SigDel.c ****             adcCounts /= ADC_SigDel_CFG2_DEC_DIV;
1114:Generated_Source\PSoC5/ADC_SigDel.c ****         #endif /* ADC_SigDel_CFG2_DEC_DIV */
ARM GAS  C:\Users\ANNASP~1\AppData\Local\Temp\ccsUsXsi.s 			page 21


1115:Generated_Source\PSoC5/ADC_SigDel.c ****     }
1116:Generated_Source\PSoC5/ADC_SigDel.c ****     else if (ADC_SigDel_Config == ADC_SigDel_CFG3)
1117:Generated_Source\PSoC5/ADC_SigDel.c ****     {
1118:Generated_Source\PSoC5/ADC_SigDel.c ****         resolution = ADC_SigDel_CFG3_RESOLUTION;
1119:Generated_Source\PSoC5/ADC_SigDel.c ****         #if(ADC_SigDel_CFG3_DEC_DIV != 0)
1120:Generated_Source\PSoC5/ADC_SigDel.c ****             adcCounts /= ADC_SigDel_CFG3_DEC_DIV;
1121:Generated_Source\PSoC5/ADC_SigDel.c ****         #endif /* ADC_SigDel_CFG3_DEC_DIV */
1122:Generated_Source\PSoC5/ADC_SigDel.c ****     }
1123:Generated_Source\PSoC5/ADC_SigDel.c ****     else
1124:Generated_Source\PSoC5/ADC_SigDel.c ****     {
1125:Generated_Source\PSoC5/ADC_SigDel.c ****         resolution = ADC_SigDel_CFG4_RESOLUTION;
1126:Generated_Source\PSoC5/ADC_SigDel.c ****         #if(ADC_SigDel_CFG4_DEC_DIV != 0)
1127:Generated_Source\PSoC5/ADC_SigDel.c ****             adcCounts /= ADC_SigDel_CFG4_DEC_DIV;
1128:Generated_Source\PSoC5/ADC_SigDel.c ****         #endif /* ADC_SigDel_CFG4_DEC_DIV */
1129:Generated_Source\PSoC5/ADC_SigDel.c ****     }
1130:Generated_Source\PSoC5/ADC_SigDel.c **** 
1131:Generated_Source\PSoC5/ADC_SigDel.c ****     switch (resolution)
1132:Generated_Source\PSoC5/ADC_SigDel.c ****     {
1133:Generated_Source\PSoC5/ADC_SigDel.c ****         #if( (ADC_SigDel_CFG1_RESOLUTION == ADC_SigDel__BITS_12) || \
1134:Generated_Source\PSoC5/ADC_SigDel.c ****              (ADC_SigDel_CFG2_RESOLUTION == ADC_SigDel__BITS_12) || \
1135:Generated_Source\PSoC5/ADC_SigDel.c ****              (ADC_SigDel_CFG3_RESOLUTION == ADC_SigDel__BITS_12) || \
1136:Generated_Source\PSoC5/ADC_SigDel.c ****              (ADC_SigDel_CFG4_RESOLUTION == ADC_SigDel__BITS_12) )
1137:Generated_Source\PSoC5/ADC_SigDel.c ****             case (uint8)ADC_SigDel__BITS_12:
1138:Generated_Source\PSoC5/ADC_SigDel.c ****                 coefA = ADC_SigDel_1UV_COUNTS / ADC_SigDel_DIVISOR_2;
1139:Generated_Source\PSoC5/ADC_SigDel.c ****                 coefB = ADC_SigDel_DIVISOR_2;
1140:Generated_Source\PSoC5/ADC_SigDel.c ****                 break;
1141:Generated_Source\PSoC5/ADC_SigDel.c ****         #endif /* ADC_SigDel__BITS_12 */    
1142:Generated_Source\PSoC5/ADC_SigDel.c ****         #if( (ADC_SigDel_CFG1_RESOLUTION == ADC_SigDel__BITS_13) || \
1143:Generated_Source\PSoC5/ADC_SigDel.c ****              (ADC_SigDel_CFG2_RESOLUTION == ADC_SigDel__BITS_13) || \
1144:Generated_Source\PSoC5/ADC_SigDel.c ****              (ADC_SigDel_CFG3_RESOLUTION == ADC_SigDel__BITS_13) || \
1145:Generated_Source\PSoC5/ADC_SigDel.c ****              (ADC_SigDel_CFG4_RESOLUTION == ADC_SigDel__BITS_13) )
1146:Generated_Source\PSoC5/ADC_SigDel.c ****             case (uint8)ADC_SigDel__BITS_13:
1147:Generated_Source\PSoC5/ADC_SigDel.c ****                 coefA = ADC_SigDel_1UV_COUNTS / ADC_SigDel_DIVISOR_4;
1148:Generated_Source\PSoC5/ADC_SigDel.c ****                 coefB = ADC_SigDel_DIVISOR_4;
1149:Generated_Source\PSoC5/ADC_SigDel.c ****                 break;
1150:Generated_Source\PSoC5/ADC_SigDel.c ****         #endif /* ADC_SigDel__BITS_13 */    
1151:Generated_Source\PSoC5/ADC_SigDel.c ****         #if( (ADC_SigDel_CFG1_RESOLUTION == ADC_SigDel__BITS_14) || \
1152:Generated_Source\PSoC5/ADC_SigDel.c ****              (ADC_SigDel_CFG2_RESOLUTION == ADC_SigDel__BITS_14) || \
1153:Generated_Source\PSoC5/ADC_SigDel.c ****              (ADC_SigDel_CFG3_RESOLUTION == ADC_SigDel__BITS_14) || \
1154:Generated_Source\PSoC5/ADC_SigDel.c ****              (ADC_SigDel_CFG4_RESOLUTION == ADC_SigDel__BITS_14) )
1155:Generated_Source\PSoC5/ADC_SigDel.c ****             case (uint8)ADC_SigDel__BITS_14:
1156:Generated_Source\PSoC5/ADC_SigDel.c ****                 coefA = ADC_SigDel_1UV_COUNTS / ADC_SigDel_DIVISOR_8;
1157:Generated_Source\PSoC5/ADC_SigDel.c ****                 coefB = ADC_SigDel_DIVISOR_8;
1158:Generated_Source\PSoC5/ADC_SigDel.c ****                 break;
1159:Generated_Source\PSoC5/ADC_SigDel.c ****         #endif /* ADC_SigDel__BITS_14 */    
1160:Generated_Source\PSoC5/ADC_SigDel.c ****         #if( (ADC_SigDel_CFG1_RESOLUTION == ADC_SigDel__BITS_15) || \
1161:Generated_Source\PSoC5/ADC_SigDel.c ****              (ADC_SigDel_CFG2_RESOLUTION == ADC_SigDel__BITS_15) || \
1162:Generated_Source\PSoC5/ADC_SigDel.c ****              (ADC_SigDel_CFG3_RESOLUTION == ADC_SigDel__BITS_15) || \
1163:Generated_Source\PSoC5/ADC_SigDel.c ****              (ADC_SigDel_CFG4_RESOLUTION == ADC_SigDel__BITS_15) )
1164:Generated_Source\PSoC5/ADC_SigDel.c ****             case (uint8)ADC_SigDel__BITS_15:
1165:Generated_Source\PSoC5/ADC_SigDel.c ****                 coefA = ADC_SigDel_1UV_COUNTS / ADC_SigDel_DIVISOR_16;
1166:Generated_Source\PSoC5/ADC_SigDel.c ****                 coefB = ADC_SigDel_DIVISOR_16;
1167:Generated_Source\PSoC5/ADC_SigDel.c ****                 break;
1168:Generated_Source\PSoC5/ADC_SigDel.c ****         #endif /* ADC_SigDel__BITS_15 */    
1169:Generated_Source\PSoC5/ADC_SigDel.c ****         #if( (ADC_SigDel_CFG1_RESOLUTION == ADC_SigDel__BITS_16) || \
1170:Generated_Source\PSoC5/ADC_SigDel.c ****              (ADC_SigDel_CFG2_RESOLUTION == ADC_SigDel__BITS_16) || \
1171:Generated_Source\PSoC5/ADC_SigDel.c ****              (ADC_SigDel_CFG3_RESOLUTION == ADC_SigDel__BITS_16) || \
ARM GAS  C:\Users\ANNASP~1\AppData\Local\Temp\ccsUsXsi.s 			page 22


1172:Generated_Source\PSoC5/ADC_SigDel.c ****              (ADC_SigDel_CFG4_RESOLUTION == ADC_SigDel__BITS_16) )
1173:Generated_Source\PSoC5/ADC_SigDel.c ****             case (uint8)ADC_SigDel__BITS_16:
1174:Generated_Source\PSoC5/ADC_SigDel.c ****                 coefA = ADC_SigDel_1UV_COUNTS / ADC_SigDel_DIVISOR_32;
1175:Generated_Source\PSoC5/ADC_SigDel.c ****                 coefB = ADC_SigDel_DIVISOR_32;
1176:Generated_Source\PSoC5/ADC_SigDel.c ****                 break;
1177:Generated_Source\PSoC5/ADC_SigDel.c ****         #endif /* ADC_SigDel__BITS_16 */    
1178:Generated_Source\PSoC5/ADC_SigDel.c ****         #if( (ADC_SigDel_CFG1_RESOLUTION == ADC_SigDel__BITS_17) || \
1179:Generated_Source\PSoC5/ADC_SigDel.c ****              (ADC_SigDel_CFG2_RESOLUTION == ADC_SigDel__BITS_17) || \
1180:Generated_Source\PSoC5/ADC_SigDel.c ****              (ADC_SigDel_CFG3_RESOLUTION == ADC_SigDel__BITS_17) || \
1181:Generated_Source\PSoC5/ADC_SigDel.c ****              (ADC_SigDel_CFG4_RESOLUTION == ADC_SigDel__BITS_17) )
1182:Generated_Source\PSoC5/ADC_SigDel.c ****             case (uint8)ADC_SigDel__BITS_17:
1183:Generated_Source\PSoC5/ADC_SigDel.c ****                 coefA = ADC_SigDel_1UV_COUNTS / ADC_SigDel_DIVISOR_64;
1184:Generated_Source\PSoC5/ADC_SigDel.c ****                 coefB = ADC_SigDel_DIVISOR_64;
1185:Generated_Source\PSoC5/ADC_SigDel.c ****                 break;
1186:Generated_Source\PSoC5/ADC_SigDel.c ****         #endif /* ADC_SigDel__BITS_17 */    
1187:Generated_Source\PSoC5/ADC_SigDel.c ****         #if( (ADC_SigDel_CFG1_RESOLUTION == ADC_SigDel__BITS_18) || \
1188:Generated_Source\PSoC5/ADC_SigDel.c ****              (ADC_SigDel_CFG2_RESOLUTION == ADC_SigDel__BITS_18) || \
1189:Generated_Source\PSoC5/ADC_SigDel.c ****              (ADC_SigDel_CFG3_RESOLUTION == ADC_SigDel__BITS_18) || \
1190:Generated_Source\PSoC5/ADC_SigDel.c ****              (ADC_SigDel_CFG4_RESOLUTION == ADC_SigDel__BITS_18) )
1191:Generated_Source\PSoC5/ADC_SigDel.c ****             case (uint8)ADC_SigDel__BITS_18:
1192:Generated_Source\PSoC5/ADC_SigDel.c ****                 coefA = ADC_SigDel_1UV_COUNTS / ADC_SigDel_DIVISOR_125;
1193:Generated_Source\PSoC5/ADC_SigDel.c ****                 coefB = ADC_SigDel_DIVISOR_125;
1194:Generated_Source\PSoC5/ADC_SigDel.c ****                 break;
1195:Generated_Source\PSoC5/ADC_SigDel.c ****         #endif /* ADC_SigDel__BITS_18 */    
1196:Generated_Source\PSoC5/ADC_SigDel.c ****         #if( (ADC_SigDel_CFG1_RESOLUTION == ADC_SigDel__BITS_19) || \
1197:Generated_Source\PSoC5/ADC_SigDel.c ****              (ADC_SigDel_CFG2_RESOLUTION == ADC_SigDel__BITS_19) || \
1198:Generated_Source\PSoC5/ADC_SigDel.c ****              (ADC_SigDel_CFG3_RESOLUTION == ADC_SigDel__BITS_19) || \
1199:Generated_Source\PSoC5/ADC_SigDel.c ****              (ADC_SigDel_CFG4_RESOLUTION == ADC_SigDel__BITS_19) )
1200:Generated_Source\PSoC5/ADC_SigDel.c ****             case (uint8)ADC_SigDel__BITS_19:
1201:Generated_Source\PSoC5/ADC_SigDel.c ****                 coefA = ADC_SigDel_1UV_COUNTS / ADC_SigDel_DIVISOR_250;
1202:Generated_Source\PSoC5/ADC_SigDel.c ****                 coefB = ADC_SigDel_DIVISOR_250;
1203:Generated_Source\PSoC5/ADC_SigDel.c ****                 break;
1204:Generated_Source\PSoC5/ADC_SigDel.c ****         #endif /* ADC_SigDel__BITS_19 */    
1205:Generated_Source\PSoC5/ADC_SigDel.c ****         #if( (ADC_SigDel_CFG1_RESOLUTION == ADC_SigDel__BITS_20) || \
1206:Generated_Source\PSoC5/ADC_SigDel.c ****              (ADC_SigDel_CFG2_RESOLUTION == ADC_SigDel__BITS_20) || \
1207:Generated_Source\PSoC5/ADC_SigDel.c ****              (ADC_SigDel_CFG3_RESOLUTION == ADC_SigDel__BITS_20) || \
1208:Generated_Source\PSoC5/ADC_SigDel.c ****              (ADC_SigDel_CFG4_RESOLUTION == ADC_SigDel__BITS_20) )
1209:Generated_Source\PSoC5/ADC_SigDel.c ****             case (uint8)ADC_SigDel__BITS_20:
1210:Generated_Source\PSoC5/ADC_SigDel.c ****                 coefA = ADC_SigDel_1UV_COUNTS / ADC_SigDel_DIVISOR_500;
1211:Generated_Source\PSoC5/ADC_SigDel.c ****                 coefB = ADC_SigDel_DIVISOR_500;
1212:Generated_Source\PSoC5/ADC_SigDel.c ****                 break;
1213:Generated_Source\PSoC5/ADC_SigDel.c ****         #endif /* ADC_SigDel__BITS_20 */    
1214:Generated_Source\PSoC5/ADC_SigDel.c ****         default:    /* resolution < 12 */
1215:Generated_Source\PSoC5/ADC_SigDel.c ****             /* 11 bits ADC + 2^20(1048576) = 31 bits */
1216:Generated_Source\PSoC5/ADC_SigDel.c ****             coefA = ADC_SigDel_1UV_COUNTS;
1217:Generated_Source\PSoC5/ADC_SigDel.c ****             coefB = ADC_SigDel_DIVISOR_1;
1218:Generated_Source\PSoC5/ADC_SigDel.c ****             break;
1219:Generated_Source\PSoC5/ADC_SigDel.c ****     }
1220:Generated_Source\PSoC5/ADC_SigDel.c ****     coefB = ADC_SigDel_CountsPerVolt / coefB;
1221:Generated_Source\PSoC5/ADC_SigDel.c ****     uVolts = ((coefA * adcCounts) / coefB) - ((coefA * ADC_SigDel_Offset) / coefB);
1222:Generated_Source\PSoC5/ADC_SigDel.c **** 
1223:Generated_Source\PSoC5/ADC_SigDel.c ****     return( uVolts );
1224:Generated_Source\PSoC5/ADC_SigDel.c **** }
1225:Generated_Source\PSoC5/ADC_SigDel.c **** 
1226:Generated_Source\PSoC5/ADC_SigDel.c **** 
1227:Generated_Source\PSoC5/ADC_SigDel.c **** /*******************************************************************************
1228:Generated_Source\PSoC5/ADC_SigDel.c **** * Function Name: ADC_SigDel_InitConfig(uint8 config)
ARM GAS  C:\Users\ANNASP~1\AppData\Local\Temp\ccsUsXsi.s 			page 23


1229:Generated_Source\PSoC5/ADC_SigDel.c **** ********************************************************************************
1230:Generated_Source\PSoC5/ADC_SigDel.c **** *
1231:Generated_Source\PSoC5/ADC_SigDel.c **** * Summary:
1232:Generated_Source\PSoC5/ADC_SigDel.c **** *  Initializes all registers based on customizer settings
1233:Generated_Source\PSoC5/ADC_SigDel.c **** *
1234:Generated_Source\PSoC5/ADC_SigDel.c **** * Parameters:
1235:Generated_Source\PSoC5/ADC_SigDel.c **** *   void
1236:Generated_Source\PSoC5/ADC_SigDel.c **** *
1237:Generated_Source\PSoC5/ADC_SigDel.c **** * Return:
1238:Generated_Source\PSoC5/ADC_SigDel.c **** *  None
1239:Generated_Source\PSoC5/ADC_SigDel.c **** *
1240:Generated_Source\PSoC5/ADC_SigDel.c **** * Global variables:
1241:Generated_Source\PSoC5/ADC_SigDel.c **** *  ADC_SigDel_CountsPerVolt:  Used to set the default counts per volt.
1242:Generated_Source\PSoC5/ADC_SigDel.c **** *
1243:Generated_Source\PSoC5/ADC_SigDel.c **** * Side Effects: Rewrites the coherency set by ADC_SigDel_SetCoherency()
1244:Generated_Source\PSoC5/ADC_SigDel.c **** *   API to the default value.
1245:Generated_Source\PSoC5/ADC_SigDel.c **** *
1246:Generated_Source\PSoC5/ADC_SigDel.c **** *******************************************************************************/
1247:Generated_Source\PSoC5/ADC_SigDel.c **** static void ADC_SigDel_InitConfig(uint8 config) 
1248:Generated_Source\PSoC5/ADC_SigDel.c **** {
1249:Generated_Source\PSoC5/ADC_SigDel.c ****     ADC_SigDel_stopConversion = 0u;
1250:Generated_Source\PSoC5/ADC_SigDel.c **** 
1251:Generated_Source\PSoC5/ADC_SigDel.c ****     if (config == 1u)
1252:Generated_Source\PSoC5/ADC_SigDel.c ****     {
1253:Generated_Source\PSoC5/ADC_SigDel.c ****         /* Default Config */
1254:Generated_Source\PSoC5/ADC_SigDel.c ****         ADC_SigDel_DEC_CR_REG      = ADC_SigDel_CFG1_DEC_CR;
1255:Generated_Source\PSoC5/ADC_SigDel.c ****         ADC_SigDel_DEC_SHIFT1_REG  = ADC_SigDel_CFG1_DEC_SHIFT1;
1256:Generated_Source\PSoC5/ADC_SigDel.c ****         ADC_SigDel_DEC_SHIFT2_REG  = ADC_SigDel_CFG1_DEC_SHIFT2;
1257:Generated_Source\PSoC5/ADC_SigDel.c ****         ADC_SigDel_DEC_DR2_REG     = ADC_SigDel_CFG1_DEC_DR2;
1258:Generated_Source\PSoC5/ADC_SigDel.c ****         ADC_SigDel_DEC_DR2H_REG    = ADC_SigDel_CFG1_DEC_DR2H;
1259:Generated_Source\PSoC5/ADC_SigDel.c ****         ADC_SigDel_DEC_DR1_REG     = ADC_SigDel_CFG1_DEC_DR1;
1260:Generated_Source\PSoC5/ADC_SigDel.c ****         ADC_SigDel_DEC_OCOR_REG    = ADC_SigDel_CFG1_DEC_OCOR;
1261:Generated_Source\PSoC5/ADC_SigDel.c ****         ADC_SigDel_DEC_OCORM_REG   = ADC_SigDel_CFG1_DEC_OCORM;
1262:Generated_Source\PSoC5/ADC_SigDel.c ****         ADC_SigDel_DEC_OCORH_REG   = ADC_SigDel_CFG1_DEC_OCORH;
1263:Generated_Source\PSoC5/ADC_SigDel.c ****         ADC_SigDel_DEC_COHER_REG   = ADC_SigDel_CFG1_DEC_COHER;
1264:Generated_Source\PSoC5/ADC_SigDel.c **** 
1265:Generated_Source\PSoC5/ADC_SigDel.c ****         ADC_SigDel_DSM_CR4_REG     = ADC_SigDel_CFG1_DSM_CR4;
1266:Generated_Source\PSoC5/ADC_SigDel.c ****         ADC_SigDel_DSM_CR5_REG     = ADC_SigDel_CFG1_DSM_CR5;
1267:Generated_Source\PSoC5/ADC_SigDel.c ****         ADC_SigDel_DSM_CR6_REG     = ADC_SigDel_CFG1_DSM_CR6;
1268:Generated_Source\PSoC5/ADC_SigDel.c ****         ADC_SigDel_DSM_CR7_REG     = ADC_SigDel_CFG1_DSM_CR7;
1269:Generated_Source\PSoC5/ADC_SigDel.c ****         ADC_SigDel_DSM_CR10_REG    = ADC_SigDel_CFG1_DSM_CR10;
1270:Generated_Source\PSoC5/ADC_SigDel.c ****         ADC_SigDel_DSM_CR11_REG    = ADC_SigDel_CFG1_DSM_CR11;
1271:Generated_Source\PSoC5/ADC_SigDel.c ****         ADC_SigDel_DSM_CR12_REG    = ADC_SigDel_CFG1_DSM_CR12;
1272:Generated_Source\PSoC5/ADC_SigDel.c ****         ADC_SigDel_DSM_CR14_REG    = ADC_SigDel_CFG1_DSM_CR14;
1273:Generated_Source\PSoC5/ADC_SigDel.c ****         ADC_SigDel_DSM_CR15_REG    = ADC_SigDel_CFG1_DSM_CR15;
1274:Generated_Source\PSoC5/ADC_SigDel.c ****         ADC_SigDel_DSM_CR16_REG    = ADC_SigDel_CFG1_DSM_CR16;
1275:Generated_Source\PSoC5/ADC_SigDel.c ****         ADC_SigDel_DSM_CR17_REG    = ADC_SigDel_CFG1_DSM_CR17;
1276:Generated_Source\PSoC5/ADC_SigDel.c ****         /* Set DSM_REF0_REG by disabling and enabling the PRESS circuit */
1277:Generated_Source\PSoC5/ADC_SigDel.c ****         ADC_SigDel_SetDSMRef0Reg(ADC_SigDel_CFG1_DSM_REF0);
1278:Generated_Source\PSoC5/ADC_SigDel.c ****         ADC_SigDel_DSM_REF2_REG    = ADC_SigDel_CFG1_DSM_REF2;
1279:Generated_Source\PSoC5/ADC_SigDel.c ****         ADC_SigDel_DSM_REF3_REG    = ADC_SigDel_CFG1_DSM_REF3;
1280:Generated_Source\PSoC5/ADC_SigDel.c **** 
1281:Generated_Source\PSoC5/ADC_SigDel.c ****         ADC_SigDel_DSM_BUF0_REG    = ADC_SigDel_CFG1_DSM_BUF0;
1282:Generated_Source\PSoC5/ADC_SigDel.c ****         ADC_SigDel_DSM_BUF1_REG    = ADC_SigDel_CFG1_DSM_BUF1;
1283:Generated_Source\PSoC5/ADC_SigDel.c ****         ADC_SigDel_DSM_BUF2_REG    = ADC_SigDel_CFG1_DSM_BUF2;
1284:Generated_Source\PSoC5/ADC_SigDel.c ****         ADC_SigDel_DSM_BUF3_REG    = ADC_SigDel_CFG1_DSM_BUF3;
1285:Generated_Source\PSoC5/ADC_SigDel.c **** 
ARM GAS  C:\Users\ANNASP~1\AppData\Local\Temp\ccsUsXsi.s 			page 24


1286:Generated_Source\PSoC5/ADC_SigDel.c ****         /* To select either Vssa or Vref to -ve input of DSM depending on
1287:Generated_Source\PSoC5/ADC_SigDel.c ****         *  the input  range selected.
1288:Generated_Source\PSoC5/ADC_SigDel.c ****         */
1289:Generated_Source\PSoC5/ADC_SigDel.c ****         #if(ADC_SigDel_DEFAULT_INPUT_MODE)
1290:Generated_Source\PSoC5/ADC_SigDel.c ****             #if (ADC_SigDel_CFG1_INPUT_RANGE == ADC_SigDel_IR_VSSA_TO_2VREF)
1291:Generated_Source\PSoC5/ADC_SigDel.c ****                 ADC_SigDel_AMux_Select(1u);
1292:Generated_Source\PSoC5/ADC_SigDel.c ****             #else
1293:Generated_Source\PSoC5/ADC_SigDel.c ****                 ADC_SigDel_AMux_Select(0u);
1294:Generated_Source\PSoC5/ADC_SigDel.c ****             #endif /* ADC_SigDel_IR_VSSA_TO_2VREF) */
1295:Generated_Source\PSoC5/ADC_SigDel.c ****         #endif /* ADC_SigDel_DEFAULT_INPUT_MODE */
1296:Generated_Source\PSoC5/ADC_SigDel.c **** 
1297:Generated_Source\PSoC5/ADC_SigDel.c ****         /* Set the Conversion stop if resolution is above 16 bit and conversion
1298:Generated_Source\PSoC5/ADC_SigDel.c ****         *   mode is Single sample
1299:Generated_Source\PSoC5/ADC_SigDel.c ****         */
1300:Generated_Source\PSoC5/ADC_SigDel.c ****         #if(ADC_SigDel_CFG1_RESOLUTION > 16 && \
1301:Generated_Source\PSoC5/ADC_SigDel.c ****             ADC_SigDel_CFG1_CONV_MODE == ADC_SigDel_MODE_SINGLE_SAMPLE)
1302:Generated_Source\PSoC5/ADC_SigDel.c ****             ADC_SigDel_stopConversion = 1u;
1303:Generated_Source\PSoC5/ADC_SigDel.c ****         #endif /* Single sample with resolution above 16 bits. */
1304:Generated_Source\PSoC5/ADC_SigDel.c **** 
1305:Generated_Source\PSoC5/ADC_SigDel.c ****         ADC_SigDel_CountsPerVolt = (int32)ADC_SigDel_CFG1_COUNTS_PER_VOLT;
1306:Generated_Source\PSoC5/ADC_SigDel.c **** 
1307:Generated_Source\PSoC5/ADC_SigDel.c ****         ADC_SigDel_Ext_CP_Clk_SetDividerRegister(ADC_SigDel_CFG1_CP_CLK_DIVIDER, 1u);
1308:Generated_Source\PSoC5/ADC_SigDel.c **** 
1309:Generated_Source\PSoC5/ADC_SigDel.c ****         /* This is only valid if there is an internal clock */
1310:Generated_Source\PSoC5/ADC_SigDel.c ****         #if(ADC_SigDel_DEFAULT_INTERNAL_CLK)
1311:Generated_Source\PSoC5/ADC_SigDel.c ****             ADC_SigDel_theACLK_SetDividerRegister(ADC_SigDel_CFG1_ADC_CLK_DIVIDER, 1u);
1312:Generated_Source\PSoC5/ADC_SigDel.c ****         #endif /* ADC_SigDel_DEFAULT_INTERNAL_CLK */
1313:Generated_Source\PSoC5/ADC_SigDel.c **** 
1314:Generated_Source\PSoC5/ADC_SigDel.c ****         #if(ADC_SigDel_IRQ_REMOVE == 0u)
1315:Generated_Source\PSoC5/ADC_SigDel.c ****             /* Set interrupt vector */
1316:Generated_Source\PSoC5/ADC_SigDel.c ****             (void)CyIntSetVector(ADC_SigDel_INTC_NUMBER, &ADC_SigDel_ISR1);
1317:Generated_Source\PSoC5/ADC_SigDel.c ****         #endif   /* End ADC_SigDel_IRQ_REMOVE */
1318:Generated_Source\PSoC5/ADC_SigDel.c ****     }
1319:Generated_Source\PSoC5/ADC_SigDel.c **** 
1320:Generated_Source\PSoC5/ADC_SigDel.c ****     #if(ADC_SigDel_DEFAULT_NUM_CONFIGS > 1)
1321:Generated_Source\PSoC5/ADC_SigDel.c ****         if(config == 2u)
1322:Generated_Source\PSoC5/ADC_SigDel.c ****         {
1323:Generated_Source\PSoC5/ADC_SigDel.c ****             /* Second Config */
1324:Generated_Source\PSoC5/ADC_SigDel.c ****             ADC_SigDel_DEC_CR_REG      = ADC_SigDel_CFG2_DEC_CR;
1325:Generated_Source\PSoC5/ADC_SigDel.c ****             ADC_SigDel_DEC_SHIFT1_REG  = ADC_SigDel_CFG2_DEC_SHIFT1;
1326:Generated_Source\PSoC5/ADC_SigDel.c ****             ADC_SigDel_DEC_SHIFT2_REG  = ADC_SigDel_CFG2_DEC_SHIFT2;
1327:Generated_Source\PSoC5/ADC_SigDel.c ****             ADC_SigDel_DEC_DR2_REG     = ADC_SigDel_CFG2_DEC_DR2;
1328:Generated_Source\PSoC5/ADC_SigDel.c ****             ADC_SigDel_DEC_DR2H_REG    = ADC_SigDel_CFG2_DEC_DR2H;
1329:Generated_Source\PSoC5/ADC_SigDel.c ****             ADC_SigDel_DEC_DR1_REG     = ADC_SigDel_CFG2_DEC_DR1;
1330:Generated_Source\PSoC5/ADC_SigDel.c ****             ADC_SigDel_DEC_OCOR_REG    = ADC_SigDel_CFG2_DEC_OCOR;
1331:Generated_Source\PSoC5/ADC_SigDel.c ****             ADC_SigDel_DEC_OCORM_REG   = ADC_SigDel_CFG2_DEC_OCORM;
1332:Generated_Source\PSoC5/ADC_SigDel.c ****             ADC_SigDel_DEC_OCORH_REG   = ADC_SigDel_CFG2_DEC_OCORH;
1333:Generated_Source\PSoC5/ADC_SigDel.c ****             ADC_SigDel_DEC_COHER_REG   = ADC_SigDel_CFG2_DEC_COHER;
1334:Generated_Source\PSoC5/ADC_SigDel.c **** 
1335:Generated_Source\PSoC5/ADC_SigDel.c ****             ADC_SigDel_DSM_CR4_REG     = ADC_SigDel_CFG2_DSM_CR4;
1336:Generated_Source\PSoC5/ADC_SigDel.c ****             ADC_SigDel_DSM_CR5_REG     = ADC_SigDel_CFG2_DSM_CR5;
1337:Generated_Source\PSoC5/ADC_SigDel.c ****             ADC_SigDel_DSM_CR6_REG     = ADC_SigDel_CFG2_DSM_CR6;
1338:Generated_Source\PSoC5/ADC_SigDel.c ****             ADC_SigDel_DSM_CR7_REG     = ADC_SigDel_CFG2_DSM_CR7;
1339:Generated_Source\PSoC5/ADC_SigDel.c ****             ADC_SigDel_DSM_CR10_REG    = ADC_SigDel_CFG2_DSM_CR10;
1340:Generated_Source\PSoC5/ADC_SigDel.c ****             ADC_SigDel_DSM_CR11_REG    = ADC_SigDel_CFG2_DSM_CR11;
1341:Generated_Source\PSoC5/ADC_SigDel.c ****             ADC_SigDel_DSM_CR12_REG    = ADC_SigDel_CFG2_DSM_CR12;
1342:Generated_Source\PSoC5/ADC_SigDel.c ****             ADC_SigDel_DSM_CR14_REG    = ADC_SigDel_CFG2_DSM_CR14;
ARM GAS  C:\Users\ANNASP~1\AppData\Local\Temp\ccsUsXsi.s 			page 25


1343:Generated_Source\PSoC5/ADC_SigDel.c ****             ADC_SigDel_DSM_CR15_REG    = ADC_SigDel_CFG2_DSM_CR15;
1344:Generated_Source\PSoC5/ADC_SigDel.c ****             ADC_SigDel_DSM_CR16_REG    = ADC_SigDel_CFG2_DSM_CR16;
1345:Generated_Source\PSoC5/ADC_SigDel.c ****             ADC_SigDel_DSM_CR17_REG    = ADC_SigDel_CFG2_DSM_CR17;
1346:Generated_Source\PSoC5/ADC_SigDel.c ****             /* Set DSM_REF0_REG by disabling and enabling the PRESS cirucit */
1347:Generated_Source\PSoC5/ADC_SigDel.c ****             ADC_SigDel_SetDSMRef0Reg(ADC_SigDel_CFG2_DSM_REF0);
1348:Generated_Source\PSoC5/ADC_SigDel.c ****             ADC_SigDel_DSM_REF2_REG    = ADC_SigDel_CFG2_DSM_REF2;
1349:Generated_Source\PSoC5/ADC_SigDel.c ****             ADC_SigDel_DSM_REF3_REG    = ADC_SigDel_CFG2_DSM_REF3;
1350:Generated_Source\PSoC5/ADC_SigDel.c **** 
1351:Generated_Source\PSoC5/ADC_SigDel.c ****             ADC_SigDel_DSM_BUF0_REG    = ADC_SigDel_CFG2_DSM_BUF0;
1352:Generated_Source\PSoC5/ADC_SigDel.c ****             ADC_SigDel_DSM_BUF1_REG    = ADC_SigDel_CFG2_DSM_BUF1;
1353:Generated_Source\PSoC5/ADC_SigDel.c ****             ADC_SigDel_DSM_BUF2_REG    = ADC_SigDel_CFG2_DSM_BUF2;
1354:Generated_Source\PSoC5/ADC_SigDel.c ****             ADC_SigDel_DSM_BUF3_REG    = ADC_SigDel_CFG2_DSM_BUF3;
1355:Generated_Source\PSoC5/ADC_SigDel.c **** 
1356:Generated_Source\PSoC5/ADC_SigDel.c ****             /* To select either Vssa or Vref to -ve input of DSM depending on
1357:Generated_Source\PSoC5/ADC_SigDel.c ****             *  the input range selected.
1358:Generated_Source\PSoC5/ADC_SigDel.c ****             */
1359:Generated_Source\PSoC5/ADC_SigDel.c **** 
1360:Generated_Source\PSoC5/ADC_SigDel.c ****             #if(ADC_SigDel_DEFAULT_INPUT_MODE)
1361:Generated_Source\PSoC5/ADC_SigDel.c ****                 #if (ADC_SigDel_CFG2_INPUT_RANGE == ADC_SigDel_IR_VSSA_TO_2VREF)
1362:Generated_Source\PSoC5/ADC_SigDel.c ****                     ADC_SigDel_AMux_Select(1u);
1363:Generated_Source\PSoC5/ADC_SigDel.c ****                 #else
1364:Generated_Source\PSoC5/ADC_SigDel.c ****                     ADC_SigDel_AMux_Select(0u);
1365:Generated_Source\PSoC5/ADC_SigDel.c ****                 #endif /* ADC_SigDel_IR_VSSA_TO_2VREF) */
1366:Generated_Source\PSoC5/ADC_SigDel.c ****             #endif /* ADC_SigDel_DEFAULT_INPUT_MODE */
1367:Generated_Source\PSoC5/ADC_SigDel.c **** 
1368:Generated_Source\PSoC5/ADC_SigDel.c ****             /* Set the Conversion stop if resolution is above 16 bit and
1369:Generated_Source\PSoC5/ADC_SigDel.c ****             *   conversion mode is Single sample
1370:Generated_Source\PSoC5/ADC_SigDel.c ****             */
1371:Generated_Source\PSoC5/ADC_SigDel.c ****             #if(ADC_SigDel_CFG2_RESOLUTION > 16 && \
1372:Generated_Source\PSoC5/ADC_SigDel.c ****                 ADC_SigDel_CFG2_CONV_MODE == ADC_SigDel_MODE_SINGLE_SAMPLE)
1373:Generated_Source\PSoC5/ADC_SigDel.c ****                 ADC_SigDel_stopConversion = 1u;
1374:Generated_Source\PSoC5/ADC_SigDel.c ****             #endif /* Single sample with resolution above 16 bits. */
1375:Generated_Source\PSoC5/ADC_SigDel.c **** 
1376:Generated_Source\PSoC5/ADC_SigDel.c ****             ADC_SigDel_CountsPerVolt = (int32)ADC_SigDel_CFG2_COUNTS_PER_VOLT;
1377:Generated_Source\PSoC5/ADC_SigDel.c **** 
1378:Generated_Source\PSoC5/ADC_SigDel.c ****             ADC_SigDel_Ext_CP_Clk_SetDividerRegister(ADC_SigDel_CFG2_CP_CLK_DIVIDER, 1u);
1379:Generated_Source\PSoC5/ADC_SigDel.c **** 
1380:Generated_Source\PSoC5/ADC_SigDel.c ****             /* This is only valid if there is an internal clock */
1381:Generated_Source\PSoC5/ADC_SigDel.c ****             #if(ADC_SigDel_DEFAULT_INTERNAL_CLK)
1382:Generated_Source\PSoC5/ADC_SigDel.c ****                 ADC_SigDel_theACLK_SetDividerRegister(ADC_SigDel_CFG2_ADC_CLK_DIVIDER, 1u);
1383:Generated_Source\PSoC5/ADC_SigDel.c ****             #endif /* ADC_SigDel_DEFAULT_INTERNAL_CLK */
1384:Generated_Source\PSoC5/ADC_SigDel.c **** 
1385:Generated_Source\PSoC5/ADC_SigDel.c ****             #if(ADC_SigDel_IRQ_REMOVE == 0u)
1386:Generated_Source\PSoC5/ADC_SigDel.c ****                 /* Set interrupt vector */
1387:Generated_Source\PSoC5/ADC_SigDel.c ****                 (void)CyIntSetVector(ADC_SigDel_INTC_NUMBER, &ADC_SigDel_ISR2);
1388:Generated_Source\PSoC5/ADC_SigDel.c ****             #endif   /* End ADC_SigDel_IRQ_REMOVE */
1389:Generated_Source\PSoC5/ADC_SigDel.c ****         }
1390:Generated_Source\PSoC5/ADC_SigDel.c ****     #endif /* ADC_SigDel_DEFAULT_NUM_CONFIGS > 1 */
1391:Generated_Source\PSoC5/ADC_SigDel.c **** 
1392:Generated_Source\PSoC5/ADC_SigDel.c ****     #if(ADC_SigDel_DEFAULT_NUM_CONFIGS > 2)
1393:Generated_Source\PSoC5/ADC_SigDel.c ****         if(config == 3u)
1394:Generated_Source\PSoC5/ADC_SigDel.c ****         {
1395:Generated_Source\PSoC5/ADC_SigDel.c ****             /* Third Config */
1396:Generated_Source\PSoC5/ADC_SigDel.c ****             ADC_SigDel_DEC_CR_REG      = ADC_SigDel_CFG3_DEC_CR;
1397:Generated_Source\PSoC5/ADC_SigDel.c ****             ADC_SigDel_DEC_SHIFT1_REG  = ADC_SigDel_CFG3_DEC_SHIFT1;
1398:Generated_Source\PSoC5/ADC_SigDel.c ****             ADC_SigDel_DEC_SHIFT2_REG  = ADC_SigDel_CFG3_DEC_SHIFT2;
1399:Generated_Source\PSoC5/ADC_SigDel.c ****             ADC_SigDel_DEC_DR2_REG     = ADC_SigDel_CFG3_DEC_DR2;
ARM GAS  C:\Users\ANNASP~1\AppData\Local\Temp\ccsUsXsi.s 			page 26


1400:Generated_Source\PSoC5/ADC_SigDel.c ****             ADC_SigDel_DEC_DR2H_REG    = ADC_SigDel_CFG3_DEC_DR2H;
1401:Generated_Source\PSoC5/ADC_SigDel.c ****             ADC_SigDel_DEC_DR1_REG     = ADC_SigDel_CFG3_DEC_DR1;
1402:Generated_Source\PSoC5/ADC_SigDel.c ****             ADC_SigDel_DEC_OCOR_REG    = ADC_SigDel_CFG3_DEC_OCOR;
1403:Generated_Source\PSoC5/ADC_SigDel.c ****             ADC_SigDel_DEC_OCORM_REG   = ADC_SigDel_CFG3_DEC_OCORM;
1404:Generated_Source\PSoC5/ADC_SigDel.c ****             ADC_SigDel_DEC_OCORH_REG   = ADC_SigDel_CFG3_DEC_OCORH;
1405:Generated_Source\PSoC5/ADC_SigDel.c ****             ADC_SigDel_DEC_COHER_REG   = ADC_SigDel_CFG3_DEC_COHER;
1406:Generated_Source\PSoC5/ADC_SigDel.c **** 
1407:Generated_Source\PSoC5/ADC_SigDel.c ****             ADC_SigDel_DSM_CR4_REG     = ADC_SigDel_CFG3_DSM_CR4;
1408:Generated_Source\PSoC5/ADC_SigDel.c ****             ADC_SigDel_DSM_CR5_REG     = ADC_SigDel_CFG3_DSM_CR5;
1409:Generated_Source\PSoC5/ADC_SigDel.c ****             ADC_SigDel_DSM_CR6_REG     = ADC_SigDel_CFG3_DSM_CR6;
1410:Generated_Source\PSoC5/ADC_SigDel.c ****             ADC_SigDel_DSM_CR7_REG     = ADC_SigDel_CFG3_DSM_CR7;
1411:Generated_Source\PSoC5/ADC_SigDel.c ****             ADC_SigDel_DSM_CR10_REG    = ADC_SigDel_CFG3_DSM_CR10;
1412:Generated_Source\PSoC5/ADC_SigDel.c ****             ADC_SigDel_DSM_CR11_REG    = ADC_SigDel_CFG3_DSM_CR11;
1413:Generated_Source\PSoC5/ADC_SigDel.c ****             ADC_SigDel_DSM_CR12_REG    = ADC_SigDel_CFG3_DSM_CR12;
1414:Generated_Source\PSoC5/ADC_SigDel.c ****             ADC_SigDel_DSM_CR14_REG    = ADC_SigDel_CFG3_DSM_CR14;
1415:Generated_Source\PSoC5/ADC_SigDel.c ****             ADC_SigDel_DSM_CR15_REG    = ADC_SigDel_CFG3_DSM_CR15;
1416:Generated_Source\PSoC5/ADC_SigDel.c ****             ADC_SigDel_DSM_CR16_REG    = ADC_SigDel_CFG3_DSM_CR16;
1417:Generated_Source\PSoC5/ADC_SigDel.c ****             ADC_SigDel_DSM_CR17_REG    = ADC_SigDel_CFG3_DSM_CR17;
1418:Generated_Source\PSoC5/ADC_SigDel.c ****             /* Set DSM_REF0_REG by disabling and enabling the PRESS circuit */
1419:Generated_Source\PSoC5/ADC_SigDel.c ****             ADC_SigDel_SetDSMRef0Reg(ADC_SigDel_CFG3_DSM_REF0);
1420:Generated_Source\PSoC5/ADC_SigDel.c ****             ADC_SigDel_DSM_REF2_REG    = ADC_SigDel_CFG3_DSM_REF2;
1421:Generated_Source\PSoC5/ADC_SigDel.c ****             ADC_SigDel_DSM_REF3_REG    = ADC_SigDel_CFG3_DSM_REF3;
1422:Generated_Source\PSoC5/ADC_SigDel.c **** 
1423:Generated_Source\PSoC5/ADC_SigDel.c ****             ADC_SigDel_DSM_BUF0_REG    = ADC_SigDel_CFG3_DSM_BUF0;
1424:Generated_Source\PSoC5/ADC_SigDel.c ****             ADC_SigDel_DSM_BUF1_REG    = ADC_SigDel_CFG3_DSM_BUF1;
1425:Generated_Source\PSoC5/ADC_SigDel.c ****             ADC_SigDel_DSM_BUF2_REG    = ADC_SigDel_CFG3_DSM_BUF2;
1426:Generated_Source\PSoC5/ADC_SigDel.c ****             ADC_SigDel_DSM_BUF3_REG    = ADC_SigDel_CFG3_DSM_BUF3;
1427:Generated_Source\PSoC5/ADC_SigDel.c **** 
1428:Generated_Source\PSoC5/ADC_SigDel.c ****             /* To select either Vssa or Vref to -ve input of DSM depending on
1429:Generated_Source\PSoC5/ADC_SigDel.c ****             *  the input range selected.
1430:Generated_Source\PSoC5/ADC_SigDel.c ****             */
1431:Generated_Source\PSoC5/ADC_SigDel.c ****             #if(ADC_SigDel_DEFAULT_INPUT_MODE)
1432:Generated_Source\PSoC5/ADC_SigDel.c ****                 #if (ADC_SigDel_CFG3_INPUT_RANGE == ADC_SigDel_IR_VSSA_TO_2VREF)
1433:Generated_Source\PSoC5/ADC_SigDel.c ****                     ADC_SigDel_AMux_Select(1u);
1434:Generated_Source\PSoC5/ADC_SigDel.c ****                 #else
1435:Generated_Source\PSoC5/ADC_SigDel.c ****                     ADC_SigDel_AMux_Select(0u);
1436:Generated_Source\PSoC5/ADC_SigDel.c ****                 #endif /* ADC_SigDel_IR_VSSA_TO_2VREF) */
1437:Generated_Source\PSoC5/ADC_SigDel.c ****             #endif /* ADC_SigDel_DEFAULT_INPUT_MODE */
1438:Generated_Source\PSoC5/ADC_SigDel.c **** 
1439:Generated_Source\PSoC5/ADC_SigDel.c ****             /* Set the Conversion stop if resolution is above 16 bit and
1440:Generated_Source\PSoC5/ADC_SigDel.c ****                conversion  mode is Single sample */
1441:Generated_Source\PSoC5/ADC_SigDel.c ****             #if(ADC_SigDel_CFG3_RESOLUTION > 16 && \
1442:Generated_Source\PSoC5/ADC_SigDel.c ****                 ADC_SigDel_CFG3_CONV_MODE == ADC_SigDel_MODE_SINGLE_SAMPLE)
1443:Generated_Source\PSoC5/ADC_SigDel.c ****                 ADC_SigDel_stopConversion = 1u;
1444:Generated_Source\PSoC5/ADC_SigDel.c ****             #endif /* Single sample with resolution above 16 bits */
1445:Generated_Source\PSoC5/ADC_SigDel.c **** 
1446:Generated_Source\PSoC5/ADC_SigDel.c ****             ADC_SigDel_CountsPerVolt = (int32)ADC_SigDel_CFG3_COUNTS_PER_VOLT;
1447:Generated_Source\PSoC5/ADC_SigDel.c **** 
1448:Generated_Source\PSoC5/ADC_SigDel.c ****             ADC_SigDel_Ext_CP_Clk_SetDividerRegister(ADC_SigDel_CFG3_CP_CLK_DIVIDER, 1u);
1449:Generated_Source\PSoC5/ADC_SigDel.c **** 
1450:Generated_Source\PSoC5/ADC_SigDel.c ****             /* This is only valid if there is an internal clock */
1451:Generated_Source\PSoC5/ADC_SigDel.c ****             #if(ADC_SigDel_DEFAULT_INTERNAL_CLK)
1452:Generated_Source\PSoC5/ADC_SigDel.c ****                 ADC_SigDel_theACLK_SetDividerRegister(ADC_SigDel_CFG3_ADC_CLK_DIVIDER, 1u);
1453:Generated_Source\PSoC5/ADC_SigDel.c ****             #endif /* ADC_SigDel_DEFAULT_INTERNAL_CLK */
1454:Generated_Source\PSoC5/ADC_SigDel.c **** 
1455:Generated_Source\PSoC5/ADC_SigDel.c ****             #if(ADC_SigDel_IRQ_REMOVE == 0u)
1456:Generated_Source\PSoC5/ADC_SigDel.c ****                 /* Set interrupt vector */
ARM GAS  C:\Users\ANNASP~1\AppData\Local\Temp\ccsUsXsi.s 			page 27


1457:Generated_Source\PSoC5/ADC_SigDel.c ****                 (void)CyIntSetVector(ADC_SigDel_INTC_NUMBER, &ADC_SigDel_ISR3);
1458:Generated_Source\PSoC5/ADC_SigDel.c ****             #endif   /* End ADC_SigDel_IRQ_REMOVE */
1459:Generated_Source\PSoC5/ADC_SigDel.c ****         }
1460:Generated_Source\PSoC5/ADC_SigDel.c ****     #endif /* ADC_SigDel_DEFAULT_NUM_CONFIGS > 2 */
1461:Generated_Source\PSoC5/ADC_SigDel.c **** 
1462:Generated_Source\PSoC5/ADC_SigDel.c ****     #if(ADC_SigDel_DEFAULT_NUM_CONFIGS > 3)
1463:Generated_Source\PSoC5/ADC_SigDel.c ****         if (config == 4u)
1464:Generated_Source\PSoC5/ADC_SigDel.c ****         {
1465:Generated_Source\PSoC5/ADC_SigDel.c ****             /* Fourth Config */
1466:Generated_Source\PSoC5/ADC_SigDel.c ****             ADC_SigDel_DEC_CR_REG      = ADC_SigDel_CFG4_DEC_CR;
1467:Generated_Source\PSoC5/ADC_SigDel.c ****             ADC_SigDel_DEC_SHIFT1_REG  = ADC_SigDel_CFG4_DEC_SHIFT1;
1468:Generated_Source\PSoC5/ADC_SigDel.c ****             ADC_SigDel_DEC_SHIFT2_REG  = ADC_SigDel_CFG4_DEC_SHIFT2;
1469:Generated_Source\PSoC5/ADC_SigDel.c ****             ADC_SigDel_DEC_DR2_REG     = ADC_SigDel_CFG4_DEC_DR2;
1470:Generated_Source\PSoC5/ADC_SigDel.c ****             ADC_SigDel_DEC_DR2H_REG    = ADC_SigDel_CFG4_DEC_DR2H;
1471:Generated_Source\PSoC5/ADC_SigDel.c ****             ADC_SigDel_DEC_DR1_REG     = ADC_SigDel_CFG4_DEC_DR1;
1472:Generated_Source\PSoC5/ADC_SigDel.c ****             ADC_SigDel_DEC_OCOR_REG    = ADC_SigDel_CFG4_DEC_OCOR;
1473:Generated_Source\PSoC5/ADC_SigDel.c ****             ADC_SigDel_DEC_OCORM_REG   = ADC_SigDel_CFG4_DEC_OCORM;
1474:Generated_Source\PSoC5/ADC_SigDel.c ****             ADC_SigDel_DEC_OCORH_REG   = ADC_SigDel_CFG4_DEC_OCORH;
1475:Generated_Source\PSoC5/ADC_SigDel.c ****             ADC_SigDel_DEC_COHER_REG   = ADC_SigDel_CFG4_DEC_COHER;
1476:Generated_Source\PSoC5/ADC_SigDel.c **** 
1477:Generated_Source\PSoC5/ADC_SigDel.c ****             ADC_SigDel_DSM_CR4_REG     = ADC_SigDel_CFG4_DSM_CR4;
1478:Generated_Source\PSoC5/ADC_SigDel.c ****             ADC_SigDel_DSM_CR5_REG     = ADC_SigDel_CFG4_DSM_CR5;
1479:Generated_Source\PSoC5/ADC_SigDel.c ****             ADC_SigDel_DSM_CR6_REG     = ADC_SigDel_CFG4_DSM_CR6;
1480:Generated_Source\PSoC5/ADC_SigDel.c ****             ADC_SigDel_DSM_CR7_REG     = ADC_SigDel_CFG4_DSM_CR7;
1481:Generated_Source\PSoC5/ADC_SigDel.c ****             ADC_SigDel_DSM_CR10_REG    = ADC_SigDel_CFG4_DSM_CR10;
1482:Generated_Source\PSoC5/ADC_SigDel.c ****             ADC_SigDel_DSM_CR11_REG    = ADC_SigDel_CFG4_DSM_CR11;
1483:Generated_Source\PSoC5/ADC_SigDel.c ****             ADC_SigDel_DSM_CR12_REG    = ADC_SigDel_CFG4_DSM_CR12;
1484:Generated_Source\PSoC5/ADC_SigDel.c ****             ADC_SigDel_DSM_CR14_REG    = ADC_SigDel_CFG4_DSM_CR14;
1485:Generated_Source\PSoC5/ADC_SigDel.c ****             ADC_SigDel_DSM_CR15_REG    = ADC_SigDel_CFG4_DSM_CR15;
1486:Generated_Source\PSoC5/ADC_SigDel.c ****             ADC_SigDel_DSM_CR16_REG    = ADC_SigDel_CFG4_DSM_CR16;
1487:Generated_Source\PSoC5/ADC_SigDel.c ****             ADC_SigDel_DSM_CR17_REG    = ADC_SigDel_CFG4_DSM_CR17;
1488:Generated_Source\PSoC5/ADC_SigDel.c ****             /* Set DSM_REF0_REG by disabling and enabling the PRESS circuit */
1489:Generated_Source\PSoC5/ADC_SigDel.c ****             ADC_SigDel_SetDSMRef0Reg(ADC_SigDel_CFG4_DSM_REF0);
1490:Generated_Source\PSoC5/ADC_SigDel.c ****             ADC_SigDel_DSM_REF2_REG    = ADC_SigDel_CFG4_DSM_REF2;
1491:Generated_Source\PSoC5/ADC_SigDel.c ****             ADC_SigDel_DSM_REF3_REG    = ADC_SigDel_CFG4_DSM_REF3;
1492:Generated_Source\PSoC5/ADC_SigDel.c **** 
1493:Generated_Source\PSoC5/ADC_SigDel.c ****             ADC_SigDel_DSM_BUF0_REG    = ADC_SigDel_CFG4_DSM_BUF0;
1494:Generated_Source\PSoC5/ADC_SigDel.c ****             ADC_SigDel_DSM_BUF1_REG    = ADC_SigDel_CFG4_DSM_BUF1;
1495:Generated_Source\PSoC5/ADC_SigDel.c ****             ADC_SigDel_DSM_BUF2_REG    = ADC_SigDel_CFG4_DSM_BUF2;
1496:Generated_Source\PSoC5/ADC_SigDel.c ****             ADC_SigDel_DSM_BUF3_REG    = ADC_SigDel_CFG4_DSM_BUF3;
1497:Generated_Source\PSoC5/ADC_SigDel.c **** 
1498:Generated_Source\PSoC5/ADC_SigDel.c ****             /* To select either Vssa or Vref to -ve input of DSM depending on
1499:Generated_Source\PSoC5/ADC_SigDel.c ****             *  the input range selected.
1500:Generated_Source\PSoC5/ADC_SigDel.c ****             */
1501:Generated_Source\PSoC5/ADC_SigDel.c ****             #if(ADC_SigDel_DEFAULT_INPUT_MODE)
1502:Generated_Source\PSoC5/ADC_SigDel.c ****                 #if (ADC_SigDel_CFG4_INPUT_RANGE == ADC_SigDel_IR_VSSA_TO_2VREF)
1503:Generated_Source\PSoC5/ADC_SigDel.c ****                     ADC_SigDel_AMux_Select(1u);
1504:Generated_Source\PSoC5/ADC_SigDel.c ****                 #else
1505:Generated_Source\PSoC5/ADC_SigDel.c ****                     ADC_SigDel_AMux_Select(0u);
1506:Generated_Source\PSoC5/ADC_SigDel.c ****                 #endif /* ADC_SigDel_IR_VSSA_TO_2VREF) */
1507:Generated_Source\PSoC5/ADC_SigDel.c ****             #endif /* ADC_SigDel_DEFAULT_INPUT_MODE */
1508:Generated_Source\PSoC5/ADC_SigDel.c **** 
1509:Generated_Source\PSoC5/ADC_SigDel.c ****             /* Set the Conversion stop if resolution is above 16 bit and
1510:Generated_Source\PSoC5/ADC_SigDel.c ****                conversion mode is Single sample */
1511:Generated_Source\PSoC5/ADC_SigDel.c ****             #if(ADC_SigDel_CFG4_RESOLUTION > 16 && \
1512:Generated_Source\PSoC5/ADC_SigDel.c ****                 ADC_SigDel_CFG4_CONV_MODE == ADC_SigDel_MODE_SINGLE_SAMPLE)
1513:Generated_Source\PSoC5/ADC_SigDel.c ****                 ADC_SigDel_stopConversion = 1u;
ARM GAS  C:\Users\ANNASP~1\AppData\Local\Temp\ccsUsXsi.s 			page 28


1514:Generated_Source\PSoC5/ADC_SigDel.c ****             #endif /* Single sample with resolution above 16 bits */
1515:Generated_Source\PSoC5/ADC_SigDel.c **** 
1516:Generated_Source\PSoC5/ADC_SigDel.c ****             ADC_SigDel_CountsPerVolt = (int32)ADC_SigDel_CFG4_COUNTS_PER_VOLT;
1517:Generated_Source\PSoC5/ADC_SigDel.c **** 
1518:Generated_Source\PSoC5/ADC_SigDel.c ****             ADC_SigDel_Ext_CP_Clk_SetDividerRegister(ADC_SigDel_CFG4_CP_CLK_DIVIDER, 1u);
1519:Generated_Source\PSoC5/ADC_SigDel.c **** 
1520:Generated_Source\PSoC5/ADC_SigDel.c ****             /* This is only valid if there is an internal clock */
1521:Generated_Source\PSoC5/ADC_SigDel.c ****             #if(ADC_SigDel_DEFAULT_INTERNAL_CLK)
1522:Generated_Source\PSoC5/ADC_SigDel.c ****                 ADC_SigDel_theACLK_SetDividerRegister(ADC_SigDel_CFG4_ADC_CLK_DIVIDER, 1u);
1523:Generated_Source\PSoC5/ADC_SigDel.c ****             #endif /* ADC_SigDel_DEFAULT_INTERNAL_CLK */
1524:Generated_Source\PSoC5/ADC_SigDel.c **** 
1525:Generated_Source\PSoC5/ADC_SigDel.c ****             #if(ADC_SigDel_IRQ_REMOVE == 0u)
1526:Generated_Source\PSoC5/ADC_SigDel.c ****                 /* Set interrupt vector */
1527:Generated_Source\PSoC5/ADC_SigDel.c ****                 (void)CyIntSetVector(ADC_SigDel_INTC_NUMBER, &ADC_SigDel_ISR4);
1528:Generated_Source\PSoC5/ADC_SigDel.c ****             #endif   /* End ADC_SigDel_IRQ_REMOVE */
1529:Generated_Source\PSoC5/ADC_SigDel.c ****         }
1530:Generated_Source\PSoC5/ADC_SigDel.c ****     #endif /* ADC_SigDel_DEFAULT_NUM_CONFIGS > 3 */
1531:Generated_Source\PSoC5/ADC_SigDel.c **** }
1532:Generated_Source\PSoC5/ADC_SigDel.c **** 
1533:Generated_Source\PSoC5/ADC_SigDel.c **** 
1534:Generated_Source\PSoC5/ADC_SigDel.c **** /*******************************************************************************
1535:Generated_Source\PSoC5/ADC_SigDel.c **** * Function Name: ADC_SigDel_SelectCofiguration
1536:Generated_Source\PSoC5/ADC_SigDel.c **** ********************************************************************************
1537:Generated_Source\PSoC5/ADC_SigDel.c **** *
1538:Generated_Source\PSoC5/ADC_SigDel.c **** * Summary:
1539:Generated_Source\PSoC5/ADC_SigDel.c **** *  Sets one of up to four ADC configurations. Before setting the new
1540:Generated_Source\PSoC5/ADC_SigDel.c **** *  configuration, the ADC is stopped and powered down. After setting
1541:Generated_Source\PSoC5/ADC_SigDel.c **** *  the new configuration, the ADC can be powered and conversion
1542:Generated_Source\PSoC5/ADC_SigDel.c **** *  can be restarted depending up on the value of second parameter
1543:Generated_Source\PSoC5/ADC_SigDel.c **** *  restart. If the value of this parameter is 1, then ADC will be
1544:Generated_Source\PSoC5/ADC_SigDel.c **** *  restarted. If this value is zero, then user must call ADC_SigDel_Start
1545:Generated_Source\PSoC5/ADC_SigDel.c **** *  and ADC_SigDel_StartConvert() to restart the conversion.
1546:Generated_Source\PSoC5/ADC_SigDel.c **** *
1547:Generated_Source\PSoC5/ADC_SigDel.c **** * Parameters:
1548:Generated_Source\PSoC5/ADC_SigDel.c **** *  config:  configuration user wants to select.
1549:Generated_Source\PSoC5/ADC_SigDel.c **** *           Valid range: 1..4
1550:Generated_Source\PSoC5/ADC_SigDel.c **** *  restart:  Restart option. 1 means start the ADC and restart the conversion.
1551:Generated_Source\PSoC5/ADC_SigDel.c **** *                            0 means do not start the ADC and conversion.
1552:Generated_Source\PSoC5/ADC_SigDel.c **** *
1553:Generated_Source\PSoC5/ADC_SigDel.c **** * Return:
1554:Generated_Source\PSoC5/ADC_SigDel.c **** *  None
1555:Generated_Source\PSoC5/ADC_SigDel.c **** *
1556:Generated_Source\PSoC5/ADC_SigDel.c **** * Side Effects: 
1557:Generated_Source\PSoC5/ADC_SigDel.c **** *  Enables internal interrupt.
1558:Generated_Source\PSoC5/ADC_SigDel.c **** *
1559:Generated_Source\PSoC5/ADC_SigDel.c **** *******************************************************************************/
1560:Generated_Source\PSoC5/ADC_SigDel.c **** void ADC_SigDel_SelectConfiguration(uint8 config, uint8 restart)
1561:Generated_Source\PSoC5/ADC_SigDel.c ****                                               
1562:Generated_Source\PSoC5/ADC_SigDel.c **** {
1563:Generated_Source\PSoC5/ADC_SigDel.c ****     /* Check whether the configuration number is valid or not */
1564:Generated_Source\PSoC5/ADC_SigDel.c ****     if((config > 0u) && (config <= ADC_SigDel_DEFAULT_NUM_CONFIGS))
1565:Generated_Source\PSoC5/ADC_SigDel.c ****     {
1566:Generated_Source\PSoC5/ADC_SigDel.c ****         /* Set the flag to ensure Start() API doesn't override the 
1567:Generated_Source\PSoC5/ADC_SigDel.c **** 		*  selected configuration
1568:Generated_Source\PSoC5/ADC_SigDel.c **** 		*/
1569:Generated_Source\PSoC5/ADC_SigDel.c ****         if(ADC_SigDel_initVar == 0u)
1570:Generated_Source\PSoC5/ADC_SigDel.c ****         {
ARM GAS  C:\Users\ANNASP~1\AppData\Local\Temp\ccsUsXsi.s 			page 29


1571:Generated_Source\PSoC5/ADC_SigDel.c ****             ADC_SigDel_started = 1u;
1572:Generated_Source\PSoC5/ADC_SigDel.c ****         }
1573:Generated_Source\PSoC5/ADC_SigDel.c **** 
1574:Generated_Source\PSoC5/ADC_SigDel.c ****         /* Update the config flag */
1575:Generated_Source\PSoC5/ADC_SigDel.c ****         ADC_SigDel_Config = config;
1576:Generated_Source\PSoC5/ADC_SigDel.c **** 
1577:Generated_Source\PSoC5/ADC_SigDel.c ****         /* Stop the ADC  */
1578:Generated_Source\PSoC5/ADC_SigDel.c ****         ADC_SigDel_Stop();
1579:Generated_Source\PSoC5/ADC_SigDel.c **** 
1580:Generated_Source\PSoC5/ADC_SigDel.c ****         /* Set the  ADC registers based on the configuration */
1581:Generated_Source\PSoC5/ADC_SigDel.c ****         ADC_SigDel_InitConfig(config);
1582:Generated_Source\PSoC5/ADC_SigDel.c **** 
1583:Generated_Source\PSoC5/ADC_SigDel.c ****         /* Compensate the gain */
1584:Generated_Source\PSoC5/ADC_SigDel.c ****         ADC_SigDel_DEC_GVAL_REG = ADC_SigDel_gcor[config - 1u].gval;
1585:Generated_Source\PSoC5/ADC_SigDel.c ****         CY_SET_REG16(ADC_SigDel_DEC_GCOR_16B_PTR, ADC_SigDel_gcor[config - 1u].gcor);
1586:Generated_Source\PSoC5/ADC_SigDel.c **** 
1587:Generated_Source\PSoC5/ADC_SigDel.c ****         if(restart == 1u)
1588:Generated_Source\PSoC5/ADC_SigDel.c ****         {
1589:Generated_Source\PSoC5/ADC_SigDel.c ****             /* Restart the ADC */
1590:Generated_Source\PSoC5/ADC_SigDel.c ****             ADC_SigDel_Start();
1591:Generated_Source\PSoC5/ADC_SigDel.c **** 
1592:Generated_Source\PSoC5/ADC_SigDel.c ****             /* Restart the ADC conversion */
1593:Generated_Source\PSoC5/ADC_SigDel.c ****             ADC_SigDel_StartConvert();
1594:Generated_Source\PSoC5/ADC_SigDel.c ****         }
1595:Generated_Source\PSoC5/ADC_SigDel.c ****     }
1596:Generated_Source\PSoC5/ADC_SigDel.c ****     else
1597:Generated_Source\PSoC5/ADC_SigDel.c ****     {
1598:Generated_Source\PSoC5/ADC_SigDel.c ****         /* Halt CPU in debug mode if config is out of valid range */
1599:Generated_Source\PSoC5/ADC_SigDel.c ****         CYASSERT(0u != 0u);
1600:Generated_Source\PSoC5/ADC_SigDel.c ****     }
1601:Generated_Source\PSoC5/ADC_SigDel.c **** }
1602:Generated_Source\PSoC5/ADC_SigDel.c **** 
1603:Generated_Source\PSoC5/ADC_SigDel.c **** 
1604:Generated_Source\PSoC5/ADC_SigDel.c **** /*******************************************************************************
1605:Generated_Source\PSoC5/ADC_SigDel.c **** * Function Name: ADC_SigDel_GainCompensation
1606:Generated_Source\PSoC5/ADC_SigDel.c **** ********************************************************************************
1607:Generated_Source\PSoC5/ADC_SigDel.c **** *
1608:Generated_Source\PSoC5/ADC_SigDel.c **** * Summary:
1609:Generated_Source\PSoC5/ADC_SigDel.c **** *  This API calculates the trim value and then store this to gcor structure.
1610:Generated_Source\PSoC5/ADC_SigDel.c **** *
1611:Generated_Source\PSoC5/ADC_SigDel.c **** * Parameters:
1612:Generated_Source\PSoC5/ADC_SigDel.c **** *  inputRange:  input range for which trim value is to be calculated.
1613:Generated_Source\PSoC5/ADC_SigDel.c **** *  IdealDecGain:  Ideal Decimator gain for the selected resolution and
1614:Generated_Source\PSoC5/ADC_SigDel.c **** *                 conversion  mode.
1615:Generated_Source\PSoC5/ADC_SigDel.c **** *  IdealOddDecGain:  Ideal odd decimation gain for the selected resolution and
1616:Generated_Source\PSoC5/ADC_SigDel.c ****                      conversion mode.
1617:Generated_Source\PSoC5/ADC_SigDel.c **** *  resolution:  Resolution to select the proper flash location for trim value.
1618:Generated_Source\PSoC5/ADC_SigDel.c **** *  config:      Specifies the configuration number
1619:Generated_Source\PSoC5/ADC_SigDel.c **** *               Valid range: 1..4
1620:Generated_Source\PSoC5/ADC_SigDel.c **** *
1621:Generated_Source\PSoC5/ADC_SigDel.c **** * Return:
1622:Generated_Source\PSoC5/ADC_SigDel.c **** *  None
1623:Generated_Source\PSoC5/ADC_SigDel.c **** *
1624:Generated_Source\PSoC5/ADC_SigDel.c **** *******************************************************************************/
1625:Generated_Source\PSoC5/ADC_SigDel.c **** static void ADC_SigDel_GainCompensation(uint8 inputRange, uint16 idealDecGain, uint16 idealOddDecGa
1626:Generated_Source\PSoC5/ADC_SigDel.c ****                               uint8 resolution, uint8 config) 
1627:Generated_Source\PSoC5/ADC_SigDel.c **** {
ARM GAS  C:\Users\ANNASP~1\AppData\Local\Temp\ccsUsXsi.s 			page 30


  27              		.loc 1 1627 0
  28              		.cfi_startproc
  29              		@ args = 4, pretend = 0, frame = 0
  30              		@ frame_needed = 0, uses_anonymous_args = 0
  31              	.LVL0:
  32 0000 38B5     		push	{r3, r4, r5, lr}
  33              		.cfi_def_cfa_offset 16
  34              		.cfi_offset 3, -16
  35              		.cfi_offset 4, -12
  36              		.cfi_offset 5, -8
  37              		.cfi_offset 14, -4
  38 0002 9DF81050 		ldrb	r5, [sp, #16]	@ zero_extendqisi2
1628:Generated_Source\PSoC5/ADC_SigDel.c ****     int8 flash;
1629:Generated_Source\PSoC5/ADC_SigDel.c **** 	int32 normalised;
1630:Generated_Source\PSoC5/ADC_SigDel.c **** 	uint16 gcorValue;
1631:Generated_Source\PSoC5/ADC_SigDel.c ****     uint32 gcorTmp;
1632:Generated_Source\PSoC5/ADC_SigDel.c **** 
1633:Generated_Source\PSoC5/ADC_SigDel.c ****     if((config > 0u) && (config <= ADC_SigDel_DEFAULT_NUM_CONFIGS))
  39              		.loc 1 1633 0
  40 0006 6C1E     		subs	r4, r5, #1
  41 0008 E4B2     		uxtb	r4, r4
  42 000a 012C     		cmp	r4, #1
  43 000c 51D8     		bhi	.L2
1634:Generated_Source\PSoC5/ADC_SigDel.c ****     {
1635:Generated_Source\PSoC5/ADC_SigDel.c ****         switch(inputRange)
  44              		.loc 1 1635 0
  45 000e 0138     		subs	r0, r0, #1
  46              	.LVL1:
  47 0010 0928     		cmp	r0, #9
  48 0012 2ED8     		bhi	.L16
  49 0014 DFE800F0 		tbb	[pc, r0]
  50              	.L5:
  51 0018 05       		.byte	(.L4-.L5)/2
  52 0019 2D       		.byte	(.L16-.L5)/2
  53 001a 2D       		.byte	(.L16-.L5)/2
  54 001b 05       		.byte	(.L4-.L5)/2
  55 001c 2D       		.byte	(.L16-.L5)/2
  56 001d 2D       		.byte	(.L16-.L5)/2
  57 001e 0F       		.byte	(.L6-.L5)/2
  58 001f 19       		.byte	(.L7-.L5)/2
  59 0020 2D       		.byte	(.L16-.L5)/2
  60 0021 23       		.byte	(.L8-.L5)/2
  61              		.p2align 1
  62              	.L4:
1636:Generated_Source\PSoC5/ADC_SigDel.c ****         {
1637:Generated_Source\PSoC5/ADC_SigDel.c ****             case ADC_SigDel_IR_VNEG_VREF_DIFF:
1638:Generated_Source\PSoC5/ADC_SigDel.c ****             case ADC_SigDel_IR_VSSA_TO_2VREF:
1639:Generated_Source\PSoC5/ADC_SigDel.c ****                 /* Normalize the flash Value */
1640:Generated_Source\PSoC5/ADC_SigDel.c ****                 if(resolution > 15u)
  63              		.loc 1 1640 0
  64 0022 0F2B     		cmp	r3, #15
  65 0024 03D9     		bls	.L9
1641:Generated_Source\PSoC5/ADC_SigDel.c ****                 {
1642:Generated_Source\PSoC5/ADC_SigDel.c ****                     flash = ADC_SigDel_DEC_TRIM_VREF_DIFF_16_20;
  66              		.loc 1 1642 0
  67 0026 2548     		ldr	r0, .L18
  68 0028 0078     		ldrb	r0, [r0]	@ zero_extendqisi2
ARM GAS  C:\Users\ANNASP~1\AppData\Local\Temp\ccsUsXsi.s 			page 31


  69 002a 40B2     		sxtb	r0, r0
  70              	.LVL2:
  71 002c 22E0     		b	.L3
  72              	.LVL3:
  73              	.L9:
1643:Generated_Source\PSoC5/ADC_SigDel.c ****                 }
1644:Generated_Source\PSoC5/ADC_SigDel.c ****                 else
1645:Generated_Source\PSoC5/ADC_SigDel.c ****                 {
1646:Generated_Source\PSoC5/ADC_SigDel.c ****                     flash = ADC_SigDel_DEC_TRIM_VREF_DIFF_8_15;
  74              		.loc 1 1646 0
  75 002e 2448     		ldr	r0, .L18+4
  76 0030 0078     		ldrb	r0, [r0]	@ zero_extendqisi2
  77 0032 40B2     		sxtb	r0, r0
  78              	.LVL4:
  79 0034 1EE0     		b	.L3
  80              	.LVL5:
  81              	.L6:
1647:Generated_Source\PSoC5/ADC_SigDel.c ****                 }
1648:Generated_Source\PSoC5/ADC_SigDel.c ****                 break;
1649:Generated_Source\PSoC5/ADC_SigDel.c **** 
1650:Generated_Source\PSoC5/ADC_SigDel.c ****             case ADC_SigDel_IR_VNEG_VREF_2_DIFF:
1651:Generated_Source\PSoC5/ADC_SigDel.c ****                 /* Normalize the flash Value */
1652:Generated_Source\PSoC5/ADC_SigDel.c ****                 if(resolution > 15u)
  82              		.loc 1 1652 0
  83 0036 0F2B     		cmp	r3, #15
  84 0038 03D9     		bls	.L10
1653:Generated_Source\PSoC5/ADC_SigDel.c ****                 {
1654:Generated_Source\PSoC5/ADC_SigDel.c ****                     flash = ADC_SigDel_DEC_TRIM_VREF_2_DIFF_16_20;
  85              		.loc 1 1654 0
  86 003a 2248     		ldr	r0, .L18+8
  87 003c 0078     		ldrb	r0, [r0]	@ zero_extendqisi2
  88 003e 40B2     		sxtb	r0, r0
  89              	.LVL6:
  90 0040 18E0     		b	.L3
  91              	.LVL7:
  92              	.L10:
1655:Generated_Source\PSoC5/ADC_SigDel.c ****                 }
1656:Generated_Source\PSoC5/ADC_SigDel.c ****                 else
1657:Generated_Source\PSoC5/ADC_SigDel.c ****                 {
1658:Generated_Source\PSoC5/ADC_SigDel.c ****                     flash = ADC_SigDel_DEC_TRIM_VREF_2_DIFF_8_15;
  93              		.loc 1 1658 0
  94 0042 2148     		ldr	r0, .L18+12
  95 0044 0078     		ldrb	r0, [r0]	@ zero_extendqisi2
  96 0046 40B2     		sxtb	r0, r0
  97              	.LVL8:
  98 0048 14E0     		b	.L3
  99              	.LVL9:
 100              	.L7:
1659:Generated_Source\PSoC5/ADC_SigDel.c ****                 }
1660:Generated_Source\PSoC5/ADC_SigDel.c ****                 break;
1661:Generated_Source\PSoC5/ADC_SigDel.c **** 
1662:Generated_Source\PSoC5/ADC_SigDel.c ****             case ADC_SigDel_IR_VNEG_VREF_4_DIFF:
1663:Generated_Source\PSoC5/ADC_SigDel.c ****                 /* Normalize the flash Value */
1664:Generated_Source\PSoC5/ADC_SigDel.c ****                 if(resolution > 15u)
 101              		.loc 1 1664 0
 102 004a 0F2B     		cmp	r3, #15
 103 004c 03D9     		bls	.L11
ARM GAS  C:\Users\ANNASP~1\AppData\Local\Temp\ccsUsXsi.s 			page 32


1665:Generated_Source\PSoC5/ADC_SigDel.c ****                 {
1666:Generated_Source\PSoC5/ADC_SigDel.c ****                     flash = ADC_SigDel_DEC_TRIM_VREF_4_DIFF_16_20;
 104              		.loc 1 1666 0
 105 004e 1F48     		ldr	r0, .L18+16
 106 0050 0078     		ldrb	r0, [r0]	@ zero_extendqisi2
 107 0052 40B2     		sxtb	r0, r0
 108              	.LVL10:
 109 0054 0EE0     		b	.L3
 110              	.LVL11:
 111              	.L11:
1667:Generated_Source\PSoC5/ADC_SigDel.c ****                 }
1668:Generated_Source\PSoC5/ADC_SigDel.c ****                 else
1669:Generated_Source\PSoC5/ADC_SigDel.c ****                 {
1670:Generated_Source\PSoC5/ADC_SigDel.c ****                     flash = ADC_SigDel_DEC_TRIM_VREF_4_DIFF_8_15;
 112              		.loc 1 1670 0
 113 0056 1E48     		ldr	r0, .L18+20
 114 0058 0078     		ldrb	r0, [r0]	@ zero_extendqisi2
 115 005a 40B2     		sxtb	r0, r0
 116              	.LVL12:
 117 005c 0AE0     		b	.L3
 118              	.LVL13:
 119              	.L8:
1671:Generated_Source\PSoC5/ADC_SigDel.c ****                 }
1672:Generated_Source\PSoC5/ADC_SigDel.c ****                 break;
1673:Generated_Source\PSoC5/ADC_SigDel.c **** 
1674:Generated_Source\PSoC5/ADC_SigDel.c ****             case ADC_SigDel_IR_VNEG_VREF_16_DIFF:
1675:Generated_Source\PSoC5/ADC_SigDel.c ****                 /* Normalize the flash Value */
1676:Generated_Source\PSoC5/ADC_SigDel.c ****                 if(resolution > 15u)
 120              		.loc 1 1676 0
 121 005e 0F2B     		cmp	r3, #15
 122 0060 03D9     		bls	.L12
1677:Generated_Source\PSoC5/ADC_SigDel.c ****                 {
1678:Generated_Source\PSoC5/ADC_SigDel.c ****                     flash = ADC_SigDel_DEC_TRIM_VREF_16_DIFF_16_20;
 123              		.loc 1 1678 0
 124 0062 1C48     		ldr	r0, .L18+24
 125 0064 0078     		ldrb	r0, [r0]	@ zero_extendqisi2
 126 0066 40B2     		sxtb	r0, r0
 127              	.LVL14:
 128 0068 04E0     		b	.L3
 129              	.LVL15:
 130              	.L12:
1679:Generated_Source\PSoC5/ADC_SigDel.c ****                 }
1680:Generated_Source\PSoC5/ADC_SigDel.c ****                 else
1681:Generated_Source\PSoC5/ADC_SigDel.c ****                 {
1682:Generated_Source\PSoC5/ADC_SigDel.c ****                     flash = ADC_SigDel_DEC_TRIM_VREF_16_DIFF_8_15;
 131              		.loc 1 1682 0
 132 006a 1B48     		ldr	r0, .L18+28
 133 006c 0078     		ldrb	r0, [r0]	@ zero_extendqisi2
 134 006e 40B2     		sxtb	r0, r0
 135              	.LVL16:
 136 0070 00E0     		b	.L3
 137              	.LVL17:
 138              	.L16:
1683:Generated_Source\PSoC5/ADC_SigDel.c ****                 }
1684:Generated_Source\PSoC5/ADC_SigDel.c ****                 break;
1685:Generated_Source\PSoC5/ADC_SigDel.c **** 
1686:Generated_Source\PSoC5/ADC_SigDel.c ****             default:
ARM GAS  C:\Users\ANNASP~1\AppData\Local\Temp\ccsUsXsi.s 			page 33


1687:Generated_Source\PSoC5/ADC_SigDel.c ****                 flash = 0;
 139              		.loc 1 1687 0
 140 0072 0020     		movs	r0, #0
 141              	.L3:
 142              	.LVL18:
1688:Generated_Source\PSoC5/ADC_SigDel.c ****                 break;
1689:Generated_Source\PSoC5/ADC_SigDel.c ****         }
1690:Generated_Source\PSoC5/ADC_SigDel.c **** 
1691:Generated_Source\PSoC5/ADC_SigDel.c ****         /* Add two values */
1692:Generated_Source\PSoC5/ADC_SigDel.c **** 		normalised = (int32)idealDecGain + ((int32)flash * 32);
 143              		.loc 1 1692 0
 144 0074 01EB4011 		add	r1, r1, r0, lsl #5
 145              	.LVL19:
1693:Generated_Source\PSoC5/ADC_SigDel.c ****         gcorTmp = (uint32)normalised * (uint32)idealOddDecGain;
 146              		.loc 1 1693 0
 147 0078 01FB02F1 		mul	r1, r1, r2
 148              	.LVL20:
1694:Generated_Source\PSoC5/ADC_SigDel.c ****         gcorValue = (uint16)(gcorTmp / ADC_SigDel_IDEAL_GAIN_CONST);
 149              		.loc 1 1694 0
 150 007c C90B     		lsrs	r1, r1, #15
 151              	.LVL21:
 152 007e 8AB2     		uxth	r2, r1
 153              	.LVL22:
1695:Generated_Source\PSoC5/ADC_SigDel.c **** 
1696:Generated_Source\PSoC5/ADC_SigDel.c ****         if (resolution < (ADC_SigDel_MAX_GVAL - 1u))
 154              		.loc 1 1696 0
 155 0080 0D2B     		cmp	r3, #13
 156 0082 0BD8     		bhi	.L13
1697:Generated_Source\PSoC5/ADC_SigDel.c ****         {
1698:Generated_Source\PSoC5/ADC_SigDel.c ****             gcorValue = (gcorValue >> (ADC_SigDel_MAX_GVAL - (resolution + 1u)));
 157              		.loc 1 1698 0
 158 0084 C3F10E02 		rsb	r2, r3, #14
 159              	.LVL23:
 160 0088 89B2     		uxth	r1, r1
 161 008a 1141     		asrs	r1, r1, r2
 162              	.LVL24:
 163 008c 8AB2     		uxth	r2, r1
 164              	.LVL25:
1699:Generated_Source\PSoC5/ADC_SigDel.c ****             ADC_SigDel_gcor[config - 1u].gval = (resolution + 1u);
 165              		.loc 1 1699 0
 166 008e 691E     		subs	r1, r5, #1
 167 0090 1248     		ldr	r0, .L18+32
 168              	.LVL26:
 169 0092 00EB8101 		add	r1, r0, r1, lsl #2
 170 0096 0133     		adds	r3, r3, #1
 171              	.LVL27:
 172 0098 8B70     		strb	r3, [r1, #2]
 173 009a 05E0     		b	.L14
 174              	.LVL28:
 175              	.L13:
1700:Generated_Source\PSoC5/ADC_SigDel.c ****         }
1701:Generated_Source\PSoC5/ADC_SigDel.c ****         else
1702:Generated_Source\PSoC5/ADC_SigDel.c ****         {
1703:Generated_Source\PSoC5/ADC_SigDel.c ****             /* Use all 16 bits */
1704:Generated_Source\PSoC5/ADC_SigDel.c ****             ADC_SigDel_gcor[config - 1u].gval = ADC_SigDel_MAX_GVAL;
 176              		.loc 1 1704 0
 177 009c 6B1E     		subs	r3, r5, #1
ARM GAS  C:\Users\ANNASP~1\AppData\Local\Temp\ccsUsXsi.s 			page 34


 178              	.LVL29:
 179 009e 0F49     		ldr	r1, .L18+32
 180 00a0 01EB8303 		add	r3, r1, r3, lsl #2
 181 00a4 0F21     		movs	r1, #15
 182 00a6 9970     		strb	r1, [r3, #2]
 183              	.LVL30:
 184              	.L14:
1705:Generated_Source\PSoC5/ADC_SigDel.c ****         }
1706:Generated_Source\PSoC5/ADC_SigDel.c **** 
1707:Generated_Source\PSoC5/ADC_SigDel.c ****         /* Save the gain correction register value */
1708:Generated_Source\PSoC5/ADC_SigDel.c ****         ADC_SigDel_gcor[config - 1u].gcor = gcorValue;
 185              		.loc 1 1708 0
 186 00a8 013D     		subs	r5, r5, #1
 187 00aa 0C4B     		ldr	r3, .L18+32
 188 00ac 23F82520 		strh	r2, [r3, r5, lsl #2]	@ movhi
 189 00b0 38BD     		pop	{r3, r4, r5, pc}
 190              	.LVL31:
 191              	.L2:
1709:Generated_Source\PSoC5/ADC_SigDel.c ****     }
1710:Generated_Source\PSoC5/ADC_SigDel.c ****     else
1711:Generated_Source\PSoC5/ADC_SigDel.c ****     {
1712:Generated_Source\PSoC5/ADC_SigDel.c ****         /* Halt CPU in debug mode if config is out of valid range */
1713:Generated_Source\PSoC5/ADC_SigDel.c ****         CYASSERT(0u != 0u);
 192              		.loc 1 1713 0 discriminator 1
 193 00b2 0020     		movs	r0, #0
 194              	.LVL32:
 195 00b4 FFF7FEFF 		bl	CyHalt
 196              	.LVL33:
 197 00b8 38BD     		pop	{r3, r4, r5, pc}
 198              	.LVL34:
 199              	.L19:
 200 00ba 00BF     		.align	2
 201              	.L18:
 202 00bc 18010049 		.word	1224737048
 203 00c0 1C010049 		.word	1224737052
 204 00c4 19010049 		.word	1224737049
 205 00c8 1D010049 		.word	1224737053
 206 00cc 1A010049 		.word	1224737050
 207 00d0 1E010049 		.word	1224737054
 208 00d4 1B010049 		.word	1224737051
 209 00d8 1F010049 		.word	1224737055
 210 00dc 00000000 		.word	.LANCHOR0
 211              		.cfi_endproc
 212              	.LFE21:
 213              		.size	ADC_SigDel_GainCompensation, .-ADC_SigDel_GainCompensation
 214              		.section	.text.ADC_SigDel_SetDSMRef0Reg,"ax",%progbits
 215              		.align	2
 216              		.thumb
 217              		.thumb_func
 218              		.type	ADC_SigDel_SetDSMRef0Reg, %function
 219              	ADC_SigDel_SetDSMRef0Reg:
 220              	.LFB22:
1714:Generated_Source\PSoC5/ADC_SigDel.c ****     }
1715:Generated_Source\PSoC5/ADC_SigDel.c **** }
1716:Generated_Source\PSoC5/ADC_SigDel.c **** 
1717:Generated_Source\PSoC5/ADC_SigDel.c **** 
1718:Generated_Source\PSoC5/ADC_SigDel.c **** /******************************************************************************
ARM GAS  C:\Users\ANNASP~1\AppData\Local\Temp\ccsUsXsi.s 			page 35


1719:Generated_Source\PSoC5/ADC_SigDel.c **** * Function Name: ADC_SigDel_SetDSMRef0Reg(uint8)
1720:Generated_Source\PSoC5/ADC_SigDel.c **** ******************************************************************************
1721:Generated_Source\PSoC5/ADC_SigDel.c **** *
1722:Generated_Source\PSoC5/ADC_SigDel.c **** * Summary:
1723:Generated_Source\PSoC5/ADC_SigDel.c **** *  This API sets the DSM_REF0 register. This is written for internal use.
1724:Generated_Source\PSoC5/ADC_SigDel.c **** *
1725:Generated_Source\PSoC5/ADC_SigDel.c **** * Parameters:
1726:Generated_Source\PSoC5/ADC_SigDel.c **** *  value:  Value to be written to DSM_REF0 register.
1727:Generated_Source\PSoC5/ADC_SigDel.c **** *
1728:Generated_Source\PSoC5/ADC_SigDel.c **** * Return:
1729:Generated_Source\PSoC5/ADC_SigDel.c **** *  None
1730:Generated_Source\PSoC5/ADC_SigDel.c **** *
1731:Generated_Source\PSoC5/ADC_SigDel.c **** ******************************************************************************/
1732:Generated_Source\PSoC5/ADC_SigDel.c **** static void ADC_SigDel_SetDSMRef0Reg(uint8 value) 
1733:Generated_Source\PSoC5/ADC_SigDel.c **** {
 221              		.loc 1 1733 0
 222              		.cfi_startproc
 223              		@ args = 0, pretend = 0, frame = 0
 224              		@ frame_needed = 0, uses_anonymous_args = 0
 225              	.LVL35:
 226 0000 F8B5     		push	{r3, r4, r5, r6, r7, lr}
 227              		.cfi_def_cfa_offset 24
 228              		.cfi_offset 3, -24
 229              		.cfi_offset 4, -20
 230              		.cfi_offset 5, -16
 231              		.cfi_offset 6, -12
 232              		.cfi_offset 7, -8
 233              		.cfi_offset 14, -4
 234 0002 0746     		mov	r7, r0
1734:Generated_Source\PSoC5/ADC_SigDel.c ****     uint8 enableInterrupts;
1735:Generated_Source\PSoC5/ADC_SigDel.c ****     enableInterrupts = CyEnterCriticalSection();
 235              		.loc 1 1735 0
 236 0004 FFF7FEFF 		bl	CyEnterCriticalSection
 237              	.LVL36:
 238 0008 0646     		mov	r6, r0
 239              	.LVL37:
1736:Generated_Source\PSoC5/ADC_SigDel.c **** 
1737:Generated_Source\PSoC5/ADC_SigDel.c ****     /* Disable PRES, Enable power to VCMBUF0, REFBUF0 and REFBUF1, enable PRES */
1738:Generated_Source\PSoC5/ADC_SigDel.c ****     ADC_SigDel_RESET_CR4_REG |= (ADC_SigDel_IGNORE_PRESA1 | ADC_SigDel_IGNORE_PRESD1);
 240              		.loc 1 1738 0
 241 000a 0D4D     		ldr	r5, .L22
 242 000c 2B78     		ldrb	r3, [r5]	@ zero_extendqisi2
 243 000e 43F00303 		orr	r3, r3, #3
 244 0012 2B70     		strb	r3, [r5]
1739:Generated_Source\PSoC5/ADC_SigDel.c ****     ADC_SigDel_RESET_CR5_REG |= (ADC_SigDel_IGNORE_PRESA2 | ADC_SigDel_IGNORE_PRESD2);
 245              		.loc 1 1739 0
 246 0014 0B4C     		ldr	r4, .L22+4
 247 0016 2378     		ldrb	r3, [r4]	@ zero_extendqisi2
 248 0018 43F00303 		orr	r3, r3, #3
 249 001c 2370     		strb	r3, [r4]
1740:Generated_Source\PSoC5/ADC_SigDel.c ****     ADC_SigDel_DSM_REF0_REG = value;
 250              		.loc 1 1740 0
 251 001e 0A4B     		ldr	r3, .L22+8
 252 0020 1F70     		strb	r7, [r3]
1741:Generated_Source\PSoC5/ADC_SigDel.c **** 
1742:Generated_Source\PSoC5/ADC_SigDel.c ****     /* Wait for 3 microseconds */
1743:Generated_Source\PSoC5/ADC_SigDel.c ****     CyDelayUs(ADC_SigDel_PRES_DELAY_TIME);
ARM GAS  C:\Users\ANNASP~1\AppData\Local\Temp\ccsUsXsi.s 			page 36


 253              		.loc 1 1743 0
 254 0022 0320     		movs	r0, #3
 255 0024 FFF7FEFF 		bl	CyDelayUs
 256              	.LVL38:
1744:Generated_Source\PSoC5/ADC_SigDel.c ****     /* Enable the press circuit */
1745:Generated_Source\PSoC5/ADC_SigDel.c ****     ADC_SigDel_RESET_CR4_REG &= (uint8)~(ADC_SigDel_IGNORE_PRESA1 | ADC_SigDel_IGNORE_PRESD1);
 257              		.loc 1 1745 0
 258 0028 2B78     		ldrb	r3, [r5]	@ zero_extendqisi2
 259 002a 03F0FC03 		and	r3, r3, #252
 260 002e 2B70     		strb	r3, [r5]
1746:Generated_Source\PSoC5/ADC_SigDel.c ****     ADC_SigDel_RESET_CR5_REG &= (uint8)~(ADC_SigDel_IGNORE_PRESA2 | ADC_SigDel_IGNORE_PRESD2);
 261              		.loc 1 1746 0
 262 0030 2378     		ldrb	r3, [r4]	@ zero_extendqisi2
 263 0032 03F0FC03 		and	r3, r3, #252
 264 0036 2370     		strb	r3, [r4]
1747:Generated_Source\PSoC5/ADC_SigDel.c **** 
1748:Generated_Source\PSoC5/ADC_SigDel.c ****     CyExitCriticalSection(enableInterrupts);
 265              		.loc 1 1748 0
 266 0038 3046     		mov	r0, r6
 267 003a FFF7FEFF 		bl	CyExitCriticalSection
 268              	.LVL39:
 269 003e F8BD     		pop	{r3, r4, r5, r6, r7, pc}
 270              	.LVL40:
 271              	.L23:
 272              		.align	2
 273              	.L22:
 274 0040 F8460040 		.word	1073759992
 275 0044 F9460040 		.word	1073759993
 276 0048 92580040 		.word	1073764498
 277              		.cfi_endproc
 278              	.LFE22:
 279              		.size	ADC_SigDel_SetDSMRef0Reg, .-ADC_SigDel_SetDSMRef0Reg
 280              		.section	.text.ADC_SigDel_InitConfig,"ax",%progbits
 281              		.align	2
 282              		.thumb
 283              		.thumb_func
 284              		.type	ADC_SigDel_InitConfig, %function
 285              	ADC_SigDel_InitConfig:
 286              	.LFB19:
1248:Generated_Source\PSoC5/ADC_SigDel.c ****     ADC_SigDel_stopConversion = 0u;
 287              		.loc 1 1248 0
 288              		.cfi_startproc
 289              		@ args = 0, pretend = 0, frame = 0
 290              		@ frame_needed = 0, uses_anonymous_args = 0
 291              	.LVL41:
 292 0000 70B5     		push	{r4, r5, r6, lr}
 293              		.cfi_def_cfa_offset 16
 294              		.cfi_offset 4, -16
 295              		.cfi_offset 5, -12
 296              		.cfi_offset 6, -8
 297              		.cfi_offset 14, -4
 298 0002 0446     		mov	r4, r0
1249:Generated_Source\PSoC5/ADC_SigDel.c **** 
 299              		.loc 1 1249 0
 300 0004 0022     		movs	r2, #0
 301 0006 5D4B     		ldr	r3, .L28
 302 0008 1A72     		strb	r2, [r3, #8]
ARM GAS  C:\Users\ANNASP~1\AppData\Local\Temp\ccsUsXsi.s 			page 37


1251:Generated_Source\PSoC5/ADC_SigDel.c ****     {
 303              		.loc 1 1251 0
 304 000a 0128     		cmp	r0, #1
 305 000c 58D1     		bne	.L25
1254:Generated_Source\PSoC5/ADC_SigDel.c ****         ADC_SigDel_DEC_SHIFT1_REG  = ADC_SigDel_CFG1_DEC_SHIFT1;
 306              		.loc 1 1254 0
 307 000e 3822     		movs	r2, #56
 308 0010 5B4B     		ldr	r3, .L28+4
 309 0012 1A70     		strb	r2, [r3]
1255:Generated_Source\PSoC5/ADC_SigDel.c ****         ADC_SigDel_DEC_SHIFT2_REG  = ADC_SigDel_CFG1_DEC_SHIFT2;
 310              		.loc 1 1255 0
 311 0014 0622     		movs	r2, #6
 312 0016 0233     		adds	r3, r3, #2
 313 0018 1A70     		strb	r2, [r3]
1256:Generated_Source\PSoC5/ADC_SigDel.c ****         ADC_SigDel_DEC_DR2_REG     = ADC_SigDel_CFG1_DEC_DR2;
 314              		.loc 1 1256 0
 315 001a 0923     		movs	r3, #9
 316 001c 594A     		ldr	r2, .L28+8
 317 001e 1370     		strb	r3, [r2]
1257:Generated_Source\PSoC5/ADC_SigDel.c ****         ADC_SigDel_DEC_DR2H_REG    = ADC_SigDel_CFG1_DEC_DR2H;
 318              		.loc 1 1257 0
 319 0020 0025     		movs	r5, #0
 320 0022 0132     		adds	r2, r2, #1
 321 0024 1570     		strb	r5, [r2]
1258:Generated_Source\PSoC5/ADC_SigDel.c ****         ADC_SigDel_DEC_DR1_REG     = ADC_SigDel_CFG1_DEC_DR1;
 322              		.loc 1 1258 0
 323 0026 0132     		adds	r2, r2, #1
 324 0028 1570     		strb	r5, [r2]
1259:Generated_Source\PSoC5/ADC_SigDel.c ****         ADC_SigDel_DEC_OCOR_REG    = ADC_SigDel_CFG1_DEC_OCOR;
 325              		.loc 1 1259 0
 326 002a 1F21     		movs	r1, #31
 327 002c 0132     		adds	r2, r2, #1
 328 002e 1170     		strb	r1, [r2]
1260:Generated_Source\PSoC5/ADC_SigDel.c ****         ADC_SigDel_DEC_OCORM_REG   = ADC_SigDel_CFG1_DEC_OCORM;
 329              		.loc 1 1260 0
 330 0030 0232     		adds	r2, r2, #2
 331 0032 1570     		strb	r5, [r2]
1261:Generated_Source\PSoC5/ADC_SigDel.c ****         ADC_SigDel_DEC_OCORH_REG   = ADC_SigDel_CFG1_DEC_OCORH;
 332              		.loc 1 1261 0
 333 0034 0132     		adds	r2, r2, #1
 334 0036 1570     		strb	r5, [r2]
1262:Generated_Source\PSoC5/ADC_SigDel.c ****         ADC_SigDel_DEC_COHER_REG   = ADC_SigDel_CFG1_DEC_COHER;
 335              		.loc 1 1262 0
 336 0038 0132     		adds	r2, r2, #1
 337 003a 1570     		strb	r5, [r2]
1263:Generated_Source\PSoC5/ADC_SigDel.c **** 
 338              		.loc 1 1263 0
 339 003c 0126     		movs	r6, #1
 340 003e 0A32     		adds	r2, r2, #10
 341 0040 1670     		strb	r6, [r2]
1265:Generated_Source\PSoC5/ADC_SigDel.c ****         ADC_SigDel_DSM_CR5_REG     = ADC_SigDel_CFG1_DSM_CR5;
 342              		.loc 1 1265 0
 343 0042 1421     		movs	r1, #20
 344 0044 02F52762 		add	r2, r2, #2672
 345 0048 1170     		strb	r1, [r2]
1266:Generated_Source\PSoC5/ADC_SigDel.c ****         ADC_SigDel_DSM_CR6_REG     = ADC_SigDel_CFG1_DSM_CR6;
 346              		.loc 1 1266 0
ARM GAS  C:\Users\ANNASP~1\AppData\Local\Temp\ccsUsXsi.s 			page 38


 347 004a 0421     		movs	r1, #4
 348 004c 0132     		adds	r2, r2, #1
 349 004e 1170     		strb	r1, [r2]
1267:Generated_Source\PSoC5/ADC_SigDel.c ****         ADC_SigDel_DSM_CR7_REG     = ADC_SigDel_CFG1_DSM_CR7;
 350              		.loc 1 1267 0
 351 0050 0132     		adds	r2, r2, #1
 352 0052 1370     		strb	r3, [r2]
1268:Generated_Source\PSoC5/ADC_SigDel.c ****         ADC_SigDel_DSM_CR10_REG    = ADC_SigDel_CFG1_DSM_CR10;
 353              		.loc 1 1268 0
 354 0054 4C4B     		ldr	r3, .L28+12
 355 0056 1D70     		strb	r5, [r3]
1269:Generated_Source\PSoC5/ADC_SigDel.c ****         ADC_SigDel_DSM_CR11_REG    = ADC_SigDel_CFG1_DSM_CR11;
 356              		.loc 1 1269 0
 357 0058 2223     		movs	r3, #34
 358 005a 0432     		adds	r2, r2, #4
 359 005c 1370     		strb	r3, [r2]
1270:Generated_Source\PSoC5/ADC_SigDel.c ****         ADC_SigDel_DSM_CR12_REG    = ADC_SigDel_CFG1_DSM_CR12;
 360              		.loc 1 1270 0
 361 005e 2421     		movs	r1, #36
 362 0060 0132     		adds	r2, r2, #1
 363 0062 1170     		strb	r1, [r2]
1271:Generated_Source\PSoC5/ADC_SigDel.c ****         ADC_SigDel_DSM_CR14_REG    = ADC_SigDel_CFG1_DSM_CR14;
 364              		.loc 1 1271 0
 365 0064 0132     		adds	r2, r2, #1
 366 0066 1670     		strb	r6, [r2]
1272:Generated_Source\PSoC5/ADC_SigDel.c ****         ADC_SigDel_DSM_CR15_REG    = ADC_SigDel_CFG1_DSM_CR15;
 367              		.loc 1 1272 0
 368 0068 0221     		movs	r1, #2
 369 006a 0232     		adds	r2, r2, #2
 370 006c 1170     		strb	r1, [r2]
1273:Generated_Source\PSoC5/ADC_SigDel.c ****         ADC_SigDel_DSM_CR16_REG    = ADC_SigDel_CFG1_DSM_CR16;
 371              		.loc 1 1273 0
 372 006e 0132     		adds	r2, r2, #1
 373 0070 1370     		strb	r3, [r2]
1274:Generated_Source\PSoC5/ADC_SigDel.c ****         ADC_SigDel_DSM_CR17_REG    = ADC_SigDel_CFG1_DSM_CR17;
 374              		.loc 1 1274 0
 375 0072 2822     		movs	r2, #40
 376 0074 454B     		ldr	r3, .L28+16
 377 0076 1A70     		strb	r2, [r3]
1275:Generated_Source\PSoC5/ADC_SigDel.c ****         /* Set DSM_REF0_REG by disabling and enabling the PRESS circuit */
 378              		.loc 1 1275 0
 379 0078 EB22     		movs	r2, #235
 380 007a 0133     		adds	r3, r3, #1
 381 007c 1A70     		strb	r2, [r3]
1277:Generated_Source\PSoC5/ADC_SigDel.c ****         ADC_SigDel_DSM_REF2_REG    = ADC_SigDel_CFG1_DSM_REF2;
 382              		.loc 1 1277 0
 383 007e 4420     		movs	r0, #68
 384              	.LVL42:
 385 0080 FFF7FEFF 		bl	ADC_SigDel_SetDSMRef0Reg
 386              	.LVL43:
1278:Generated_Source\PSoC5/ADC_SigDel.c ****         ADC_SigDel_DSM_REF3_REG    = ADC_SigDel_CFG1_DSM_REF3;
 387              		.loc 1 1278 0
 388 0084 5822     		movs	r2, #88
 389 0086 424B     		ldr	r3, .L28+20
 390 0088 1A70     		strb	r2, [r3]
1279:Generated_Source\PSoC5/ADC_SigDel.c **** 
 391              		.loc 1 1279 0
ARM GAS  C:\Users\ANNASP~1\AppData\Local\Temp\ccsUsXsi.s 			page 39


 392 008a 0133     		adds	r3, r3, #1
 393 008c 1D70     		strb	r5, [r3]
1281:Generated_Source\PSoC5/ADC_SigDel.c ****         ADC_SigDel_DSM_BUF1_REG    = ADC_SigDel_CFG1_DSM_BUF1;
 394              		.loc 1 1281 0
 395 008e 0533     		adds	r3, r3, #5
 396 0090 1E70     		strb	r6, [r3]
1282:Generated_Source\PSoC5/ADC_SigDel.c ****         ADC_SigDel_DSM_BUF2_REG    = ADC_SigDel_CFG1_DSM_BUF2;
 397              		.loc 1 1282 0
 398 0092 0133     		adds	r3, r3, #1
 399 0094 1E70     		strb	r6, [r3]
1283:Generated_Source\PSoC5/ADC_SigDel.c ****         ADC_SigDel_DSM_BUF3_REG    = ADC_SigDel_CFG1_DSM_BUF3;
 400              		.loc 1 1283 0
 401 0096 0133     		adds	r3, r3, #1
 402 0098 1D70     		strb	r5, [r3]
1284:Generated_Source\PSoC5/ADC_SigDel.c **** 
 403              		.loc 1 1284 0
 404 009a 0A22     		movs	r2, #10
 405 009c 0133     		adds	r3, r3, #1
 406 009e 1A70     		strb	r2, [r3]
1305:Generated_Source\PSoC5/ADC_SigDel.c **** 
 407              		.loc 1 1305 0
 408 00a0 4FF47A72 		mov	r2, #1000
 409 00a4 3B4B     		ldr	r3, .L28+24
 410 00a6 1A60     		str	r2, [r3]
1307:Generated_Source\PSoC5/ADC_SigDel.c **** 
 411              		.loc 1 1307 0
 412 00a8 3146     		mov	r1, r6
 413 00aa 0320     		movs	r0, #3
 414 00ac FFF7FEFF 		bl	ADC_SigDel_Ext_CP_Clk_SetDividerRegister
 415              	.LVL44:
1311:Generated_Source\PSoC5/ADC_SigDel.c ****         #endif /* ADC_SigDel_DEFAULT_INTERNAL_CLK */
 416              		.loc 1 1311 0
 417 00b0 3146     		mov	r1, r6
 418 00b2 0E20     		movs	r0, #14
 419 00b4 FFF7FEFF 		bl	ADC_SigDel_theACLK_SetDividerRegister
 420              	.LVL45:
1316:Generated_Source\PSoC5/ADC_SigDel.c ****         #endif   /* End ADC_SigDel_IRQ_REMOVE */
 421              		.loc 1 1316 0
 422 00b8 3749     		ldr	r1, .L28+28
 423 00ba 1D20     		movs	r0, #29
 424 00bc FFF7FEFF 		bl	CyIntSetVector
 425              	.LVL46:
 426              	.L25:
1321:Generated_Source\PSoC5/ADC_SigDel.c ****         {
 427              		.loc 1 1321 0
 428 00c0 022C     		cmp	r4, #2
 429 00c2 59D1     		bne	.L24
1324:Generated_Source\PSoC5/ADC_SigDel.c ****             ADC_SigDel_DEC_SHIFT1_REG  = ADC_SigDel_CFG2_DEC_SHIFT1;
 430              		.loc 1 1324 0
 431 00c4 3822     		movs	r2, #56
 432 00c6 2E4B     		ldr	r3, .L28+4
 433 00c8 1A70     		strb	r2, [r3]
1325:Generated_Source\PSoC5/ADC_SigDel.c ****             ADC_SigDel_DEC_SHIFT2_REG  = ADC_SigDel_CFG2_DEC_SHIFT2;
 434              		.loc 1 1325 0
 435 00ca 0622     		movs	r2, #6
 436 00cc 0233     		adds	r3, r3, #2
 437 00ce 1A70     		strb	r2, [r3]
ARM GAS  C:\Users\ANNASP~1\AppData\Local\Temp\ccsUsXsi.s 			page 40


1326:Generated_Source\PSoC5/ADC_SigDel.c ****             ADC_SigDel_DEC_DR2_REG     = ADC_SigDel_CFG2_DEC_DR2;
 438              		.loc 1 1326 0
 439 00d0 0923     		movs	r3, #9
 440 00d2 2C4A     		ldr	r2, .L28+8
 441 00d4 1370     		strb	r3, [r2]
1327:Generated_Source\PSoC5/ADC_SigDel.c ****             ADC_SigDel_DEC_DR2H_REG    = ADC_SigDel_CFG2_DEC_DR2H;
 442              		.loc 1 1327 0
 443 00d6 0024     		movs	r4, #0
 444 00d8 0132     		adds	r2, r2, #1
 445 00da 1470     		strb	r4, [r2]
1328:Generated_Source\PSoC5/ADC_SigDel.c ****             ADC_SigDel_DEC_DR1_REG     = ADC_SigDel_CFG2_DEC_DR1;
 446              		.loc 1 1328 0
 447 00dc 0132     		adds	r2, r2, #1
 448 00de 1470     		strb	r4, [r2]
1329:Generated_Source\PSoC5/ADC_SigDel.c ****             ADC_SigDel_DEC_OCOR_REG    = ADC_SigDel_CFG2_DEC_OCOR;
 449              		.loc 1 1329 0
 450 00e0 1F21     		movs	r1, #31
 451 00e2 0132     		adds	r2, r2, #1
 452 00e4 1170     		strb	r1, [r2]
1330:Generated_Source\PSoC5/ADC_SigDel.c ****             ADC_SigDel_DEC_OCORM_REG   = ADC_SigDel_CFG2_DEC_OCORM;
 453              		.loc 1 1330 0
 454 00e6 0232     		adds	r2, r2, #2
 455 00e8 1470     		strb	r4, [r2]
1331:Generated_Source\PSoC5/ADC_SigDel.c ****             ADC_SigDel_DEC_OCORH_REG   = ADC_SigDel_CFG2_DEC_OCORH;
 456              		.loc 1 1331 0
 457 00ea 0132     		adds	r2, r2, #1
 458 00ec 1470     		strb	r4, [r2]
1332:Generated_Source\PSoC5/ADC_SigDel.c ****             ADC_SigDel_DEC_COHER_REG   = ADC_SigDel_CFG2_DEC_COHER;
 459              		.loc 1 1332 0
 460 00ee 0132     		adds	r2, r2, #1
 461 00f0 1470     		strb	r4, [r2]
1333:Generated_Source\PSoC5/ADC_SigDel.c **** 
 462              		.loc 1 1333 0
 463 00f2 0125     		movs	r5, #1
 464 00f4 0A32     		adds	r2, r2, #10
 465 00f6 1570     		strb	r5, [r2]
1335:Generated_Source\PSoC5/ADC_SigDel.c ****             ADC_SigDel_DSM_CR5_REG     = ADC_SigDel_CFG2_DSM_CR5;
 466              		.loc 1 1335 0
 467 00f8 1421     		movs	r1, #20
 468 00fa 02F52762 		add	r2, r2, #2672
 469 00fe 1170     		strb	r1, [r2]
1336:Generated_Source\PSoC5/ADC_SigDel.c ****             ADC_SigDel_DSM_CR6_REG     = ADC_SigDel_CFG2_DSM_CR6;
 470              		.loc 1 1336 0
 471 0100 0132     		adds	r2, r2, #1
 472 0102 1370     		strb	r3, [r2]
1337:Generated_Source\PSoC5/ADC_SigDel.c ****             ADC_SigDel_DSM_CR7_REG     = ADC_SigDel_CFG2_DSM_CR7;
 473              		.loc 1 1337 0
 474 0104 0A26     		movs	r6, #10
 475 0106 254B     		ldr	r3, .L28+32
 476 0108 1E70     		strb	r6, [r3]
1338:Generated_Source\PSoC5/ADC_SigDel.c ****             ADC_SigDel_DSM_CR10_REG    = ADC_SigDel_CFG2_DSM_CR10;
 477              		.loc 1 1338 0
 478 010a 0133     		adds	r3, r3, #1
 479 010c 1C70     		strb	r4, [r3]
1339:Generated_Source\PSoC5/ADC_SigDel.c ****             ADC_SigDel_DSM_CR11_REG    = ADC_SigDel_CFG2_DSM_CR11;
 480              		.loc 1 1339 0
 481 010e 1122     		movs	r2, #17
ARM GAS  C:\Users\ANNASP~1\AppData\Local\Temp\ccsUsXsi.s 			page 41


 482 0110 0333     		adds	r3, r3, #3
 483 0112 1A70     		strb	r2, [r3]
1340:Generated_Source\PSoC5/ADC_SigDel.c ****             ADC_SigDel_DSM_CR12_REG    = ADC_SigDel_CFG2_DSM_CR12;
 484              		.loc 1 1340 0
 485 0114 1222     		movs	r2, #18
 486 0116 0133     		adds	r3, r3, #1
 487 0118 1A70     		strb	r2, [r3]
1341:Generated_Source\PSoC5/ADC_SigDel.c ****             ADC_SigDel_DSM_CR14_REG    = ADC_SigDel_CFG2_DSM_CR14;
 488              		.loc 1 1341 0
 489 011a 0133     		adds	r3, r3, #1
 490 011c 1D70     		strb	r5, [r3]
1342:Generated_Source\PSoC5/ADC_SigDel.c ****             ADC_SigDel_DSM_CR15_REG    = ADC_SigDel_CFG2_DSM_CR15;
 491              		.loc 1 1342 0
 492 011e 0222     		movs	r2, #2
 493 0120 0233     		adds	r3, r3, #2
 494 0122 1A70     		strb	r2, [r3]
1343:Generated_Source\PSoC5/ADC_SigDel.c ****             ADC_SigDel_DSM_CR16_REG    = ADC_SigDel_CFG2_DSM_CR16;
 495              		.loc 1 1343 0
 496 0124 2222     		movs	r2, #34
 497 0126 0133     		adds	r3, r3, #1
 498 0128 1A70     		strb	r2, [r3]
1344:Generated_Source\PSoC5/ADC_SigDel.c ****             ADC_SigDel_DSM_CR17_REG    = ADC_SigDel_CFG2_DSM_CR17;
 499              		.loc 1 1344 0
 500 012a 2822     		movs	r2, #40
 501 012c 0133     		adds	r3, r3, #1
 502 012e 1A70     		strb	r2, [r3]
1345:Generated_Source\PSoC5/ADC_SigDel.c ****             /* Set DSM_REF0_REG by disabling and enabling the PRESS cirucit */
 503              		.loc 1 1345 0
 504 0130 EB22     		movs	r2, #235
 505 0132 0133     		adds	r3, r3, #1
 506 0134 1A70     		strb	r2, [r3]
1347:Generated_Source\PSoC5/ADC_SigDel.c ****             ADC_SigDel_DSM_REF2_REG    = ADC_SigDel_CFG2_DSM_REF2;
 507              		.loc 1 1347 0
 508 0136 4420     		movs	r0, #68
 509 0138 FFF7FEFF 		bl	ADC_SigDel_SetDSMRef0Reg
 510              	.LVL47:
1348:Generated_Source\PSoC5/ADC_SigDel.c ****             ADC_SigDel_DSM_REF3_REG    = ADC_SigDel_CFG2_DSM_REF3;
 511              		.loc 1 1348 0
 512 013c 5822     		movs	r2, #88
 513 013e 144B     		ldr	r3, .L28+20
 514 0140 1A70     		strb	r2, [r3]
1349:Generated_Source\PSoC5/ADC_SigDel.c **** 
 515              		.loc 1 1349 0
 516 0142 0133     		adds	r3, r3, #1
 517 0144 1C70     		strb	r4, [r3]
1351:Generated_Source\PSoC5/ADC_SigDel.c ****             ADC_SigDel_DSM_BUF1_REG    = ADC_SigDel_CFG2_DSM_BUF1;
 518              		.loc 1 1351 0
 519 0146 0522     		movs	r2, #5
 520 0148 0533     		adds	r3, r3, #5
 521 014a 1A70     		strb	r2, [r3]
1352:Generated_Source\PSoC5/ADC_SigDel.c ****             ADC_SigDel_DSM_BUF2_REG    = ADC_SigDel_CFG2_DSM_BUF2;
 522              		.loc 1 1352 0
 523 014c 0133     		adds	r3, r3, #1
 524 014e 1D70     		strb	r5, [r3]
1353:Generated_Source\PSoC5/ADC_SigDel.c ****             ADC_SigDel_DSM_BUF3_REG    = ADC_SigDel_CFG2_DSM_BUF3;
 525              		.loc 1 1353 0
 526 0150 0133     		adds	r3, r3, #1
ARM GAS  C:\Users\ANNASP~1\AppData\Local\Temp\ccsUsXsi.s 			page 42


 527 0152 1C70     		strb	r4, [r3]
1354:Generated_Source\PSoC5/ADC_SigDel.c **** 
 528              		.loc 1 1354 0
 529 0154 0133     		adds	r3, r3, #1
 530 0156 1E70     		strb	r6, [r3]
1376:Generated_Source\PSoC5/ADC_SigDel.c **** 
 531              		.loc 1 1376 0
 532 0158 4FF4FA62 		mov	r2, #2000
 533 015c 0D4B     		ldr	r3, .L28+24
 534 015e 1A60     		str	r2, [r3]
1378:Generated_Source\PSoC5/ADC_SigDel.c **** 
 535              		.loc 1 1378 0
 536 0160 2946     		mov	r1, r5
 537 0162 0320     		movs	r0, #3
 538 0164 FFF7FEFF 		bl	ADC_SigDel_Ext_CP_Clk_SetDividerRegister
 539              	.LVL48:
1382:Generated_Source\PSoC5/ADC_SigDel.c ****             #endif /* ADC_SigDel_DEFAULT_INTERNAL_CLK */
 540              		.loc 1 1382 0
 541 0168 2946     		mov	r1, r5
 542 016a 0E20     		movs	r0, #14
 543 016c FFF7FEFF 		bl	ADC_SigDel_theACLK_SetDividerRegister
 544              	.LVL49:
1387:Generated_Source\PSoC5/ADC_SigDel.c ****             #endif   /* End ADC_SigDel_IRQ_REMOVE */
 545              		.loc 1 1387 0
 546 0170 0B49     		ldr	r1, .L28+36
 547 0172 1D20     		movs	r0, #29
 548 0174 FFF7FEFF 		bl	CyIntSetVector
 549              	.LVL50:
 550              	.L24:
 551 0178 70BD     		pop	{r4, r5, r6, pc}
 552              	.L29:
 553 017a 00BF     		.align	2
 554              	.L28:
 555 017c 00000000 		.word	.LANCHOR0
 556 0180 004E0040 		.word	1073761792
 557 0184 034E0040 		.word	1073761795
 558 0188 87580040 		.word	1073764487
 559 018c 90580040 		.word	1073764496
 560 0190 94580040 		.word	1073764500
 561 0194 00000000 		.word	ADC_SigDel_CountsPerVolt
 562 0198 00000000 		.word	ADC_SigDel_ISR1
 563 019c 86580040 		.word	1073764486
 564 01a0 00000000 		.word	ADC_SigDel_ISR2
 565              		.cfi_endproc
 566              	.LFE19:
 567              		.size	ADC_SigDel_InitConfig, .-ADC_SigDel_InitConfig
 568              		.section	.text.ADC_SigDel_Init,"ax",%progbits
 569              		.align	2
 570              		.global	ADC_SigDel_Init
 571              		.thumb
 572              		.thumb_func
 573              		.type	ADC_SigDel_Init, %function
 574              	ADC_SigDel_Init:
 575              	.LFB0:
  92:Generated_Source\PSoC5/ADC_SigDel.c **** 
 576              		.loc 1 92 0
 577              		.cfi_startproc
ARM GAS  C:\Users\ANNASP~1\AppData\Local\Temp\ccsUsXsi.s 			page 43


 578              		@ args = 0, pretend = 0, frame = 0
 579              		@ frame_needed = 0, uses_anonymous_args = 0
 580 0000 2DE9F041 		push	{r4, r5, r6, r7, r8, lr}
 581              		.cfi_def_cfa_offset 24
 582              		.cfi_offset 4, -24
 583              		.cfi_offset 5, -20
 584              		.cfi_offset 6, -16
 585              		.cfi_offset 7, -12
 586              		.cfi_offset 8, -8
 587              		.cfi_offset 14, -4
 588 0004 82B0     		sub	sp, sp, #8
 589              		.cfi_def_cfa_offset 32
  94:Generated_Source\PSoC5/ADC_SigDel.c ****     ADC_SigDel_convDone = 0u;
 590              		.loc 1 94 0
 591 0006 304D     		ldr	r5, .L32
 592 0008 4FF00108 		mov	r8, #1
 593 000c 85F80080 		strb	r8, [r5]
  95:Generated_Source\PSoC5/ADC_SigDel.c **** 
 594              		.loc 1 95 0
 595 0010 2E4E     		ldr	r6, .L32+4
 596 0012 0024     		movs	r4, #0
 597 0014 7472     		strb	r4, [r6, #9]
  97:Generated_Source\PSoC5/ADC_SigDel.c **** 
 598              		.loc 1 97 0
 599 0016 1020     		movs	r0, #16
 600 0018 FFF7FEFF 		bl	ADC_SigDel_Ext_CP_Clk_SetModeRegister
 601              	.LVL51:
 101:Generated_Source\PSoC5/ADC_SigDel.c ****     #endif /* ADC_SigDel_DEFAULT_INTERNAL_CLK */
 602              		.loc 1 101 0
 603 001c 1020     		movs	r0, #16
 604 001e FFF7FEFF 		bl	ADC_SigDel_theACLK_SetModeRegister
 605              	.LVL52:
 106:Generated_Source\PSoC5/ADC_SigDel.c ****     #endif   /* End ADC_SigDel_IRQ_REMOVE */
 606              		.loc 1 106 0
 607 0022 0721     		movs	r1, #7
 608 0024 1D20     		movs	r0, #29
 609 0026 FFF7FEFF 		bl	CyIntSetPriority
 610              	.LVL53:
 110:Generated_Source\PSoC5/ADC_SigDel.c ****     ADC_SigDel_DSM_DEM1_REG    = ADC_SigDel_CFG1_DSM_DEM1;
 611              		.loc 1 110 0
 612 002a 0427     		movs	r7, #4
 613 002c 284B     		ldr	r3, .L32+8
 614 002e 1F70     		strb	r7, [r3]
 111:Generated_Source\PSoC5/ADC_SigDel.c ****     ADC_SigDel_DSM_MISC_REG    = ADC_SigDel_CFG1_DSM_MISC;
 615              		.loc 1 111 0
 616 0030 0133     		adds	r3, r3, #1
 617 0032 1C70     		strb	r4, [r3]
 112:Generated_Source\PSoC5/ADC_SigDel.c ****     ADC_SigDel_DSM_CLK_REG    |= ADC_SigDel_CFG1_DSM_CLK;
 618              		.loc 1 112 0
 619 0034 0733     		adds	r3, r3, #7
 620 0036 1C70     		strb	r4, [r3]
 113:Generated_Source\PSoC5/ADC_SigDel.c ****     ADC_SigDel_DSM_REF1_REG    = ADC_SigDel_CFG1_DSM_REF1;
 621              		.loc 1 113 0
 622 0038 264A     		ldr	r2, .L32+12
 623 003a 1378     		ldrb	r3, [r2]	@ zero_extendqisi2
 624 003c 43F01803 		orr	r3, r3, #24
 625 0040 1370     		strb	r3, [r2]
ARM GAS  C:\Users\ANNASP~1\AppData\Local\Temp\ccsUsXsi.s 			page 44


 114:Generated_Source\PSoC5/ADC_SigDel.c **** 
 626              		.loc 1 114 0
 627 0042 254B     		ldr	r3, .L32+16
 628 0044 1C70     		strb	r4, [r3]
 116:Generated_Source\PSoC5/ADC_SigDel.c ****     ADC_SigDel_DSM_OUT1_REG    = ADC_SigDel_CFG1_DSM_OUT1;
 629              		.loc 1 116 0
 630 0046 03F2F523 		addw	r3, r3, #757
 631 004a 1C70     		strb	r4, [r3]
 117:Generated_Source\PSoC5/ADC_SigDel.c **** 
 632              		.loc 1 117 0
 633 004c 0133     		adds	r3, r3, #1
 634 004e 1C70     		strb	r4, [r3]
 119:Generated_Source\PSoC5/ADC_SigDel.c ****     ADC_SigDel_DSM_CR1_REG     = ADC_SigDel_CFG1_DSM_CR1;
 635              		.loc 1 119 0
 636 0050 0A22     		movs	r2, #10
 637 0052 A3F20933 		subw	r3, r3, #777
 638 0056 1A70     		strb	r2, [r3]
 120:Generated_Source\PSoC5/ADC_SigDel.c **** #if(ADC_SigDel_MI_ENABLE != 0u) /* Enable Modulator Input */
 639              		.loc 1 120 0
 640 0058 0133     		adds	r3, r3, #1
 641 005a 1C70     		strb	r4, [r3]
 124:Generated_Source\PSoC5/ADC_SigDel.c **** #endif /* ADC_SigDel_MI_ENABLE != 0u*/    
 642              		.loc 1 124 0
 643 005c 0233     		adds	r3, r3, #2
 644 005e 1C70     		strb	r4, [r3]
 126:Generated_Source\PSoC5/ADC_SigDel.c ****     ADC_SigDel_DSM_CR9_REG     = ADC_SigDel_CFG1_DSM_CR9;
 645              		.loc 1 126 0
 646 0060 1222     		movs	r2, #18
 647 0062 0533     		adds	r3, r3, #5
 648 0064 1A70     		strb	r2, [r3]
 127:Generated_Source\PSoC5/ADC_SigDel.c ****     ADC_SigDel_DSM_CR13_REG    = ADC_SigDel_CFG1_DSM_CR13;
 649              		.loc 1 127 0
 650 0066 1322     		movs	r2, #19
 651 0068 0133     		adds	r3, r3, #1
 652 006a 1A70     		strb	r2, [r3]
 128:Generated_Source\PSoC5/ADC_SigDel.c **** 
 653              		.loc 1 128 0
 654 006c 0433     		adds	r3, r3, #4
 655 006e 1C70     		strb	r4, [r3]
 130:Generated_Source\PSoC5/ADC_SigDel.c **** 
 656              		.loc 1 130 0
 657 0070 1422     		movs	r2, #20
 658 0072 A3F68C23 		subw	r3, r3, #2700
 659 0076 1A70     		strb	r2, [r3]
 133:Generated_Source\PSoC5/ADC_SigDel.c ****                                       ADC_SigDel_CFG1_IDEAL_DEC_GAIN,
 660              		.loc 1 133 0
 661 0078 CDF80080 		str	r8, [sp]
 662 007c 0C23     		movs	r3, #12
 663 007e 4FF40042 		mov	r2, #32768
 664 0082 48F65C71 		movw	r1, #36700
 665 0086 0520     		movs	r0, #5
 666 0088 FFF7FEFF 		bl	ADC_SigDel_GainCompensation
 667              	.LVL54:
 139:Generated_Source\PSoC5/ADC_SigDel.c ****                                           ADC_SigDel_CFG2_IDEAL_DEC_GAIN,
 668              		.loc 1 139 0
 669 008c 0223     		movs	r3, #2
 670 008e 0093     		str	r3, [sp]
ARM GAS  C:\Users\ANNASP~1\AppData\Local\Temp\ccsUsXsi.s 			page 45


 671 0090 0C23     		movs	r3, #12
 672 0092 4FF40042 		mov	r2, #32768
 673 0096 48F6B651 		movw	r1, #36278
 674 009a 3846     		mov	r0, r7
 675 009c FFF7FEFF 		bl	ADC_SigDel_GainCompensation
 676              	.LVL55:
 161:Generated_Source\PSoC5/ADC_SigDel.c ****     CY_SET_REG16(ADC_SigDel_DEC_GCOR_16B_PTR, ADC_SigDel_gcor[ADC_SigDel_Config - 1u].gcor);
 677              		.loc 1 161 0
 678 00a0 2B78     		ldrb	r3, [r5]	@ zero_extendqisi2
 679 00a2 013B     		subs	r3, r3, #1
 680 00a4 06EB8303 		add	r3, r6, r3, lsl #2
 681 00a8 9A78     		ldrb	r2, [r3, #2]	@ zero_extendqisi2
 682 00aa 0C4B     		ldr	r3, .L32+20
 683 00ac 1A70     		strb	r2, [r3]
 162:Generated_Source\PSoC5/ADC_SigDel.c **** 
 684              		.loc 1 162 0
 685 00ae 2B78     		ldrb	r3, [r5]	@ zero_extendqisi2
 686 00b0 013B     		subs	r3, r3, #1
 687 00b2 36F82320 		ldrh	r2, [r6, r3, lsl #2]
 688 00b6 0A4B     		ldr	r3, .L32+24
 689 00b8 1A80     		strh	r2, [r3]	@ movhi
 165:Generated_Source\PSoC5/ADC_SigDel.c **** }
 690              		.loc 1 165 0
 691 00ba 2878     		ldrb	r0, [r5]	@ zero_extendqisi2
 692 00bc FFF7FEFF 		bl	ADC_SigDel_InitConfig
 693              	.LVL56:
 166:Generated_Source\PSoC5/ADC_SigDel.c **** 
 694              		.loc 1 166 0
 695 00c0 02B0     		add	sp, sp, #8
 696              		.cfi_def_cfa_offset 24
 697              		@ sp needed
 698 00c2 BDE8F081 		pop	{r4, r5, r6, r7, r8, pc}
 699              	.L33:
 700 00c6 00BF     		.align	2
 701              	.L32:
 702 00c8 00000000 		.word	.LANCHOR1
 703 00cc 00000000 		.word	.LANCHOR0
 704 00d0 96580040 		.word	1073764502
 705 00d4 075B0040 		.word	1073765127
 706 00d8 93580040 		.word	1073764499
 707 00dc 0E4E0040 		.word	1073761806
 708 00e0 0C4E0040 		.word	1073761804
 709              		.cfi_endproc
 710              	.LFE0:
 711              		.size	ADC_SigDel_Init, .-ADC_SigDel_Init
 712              		.section	.text.ADC_SigDel_Enable,"ax",%progbits
 713              		.align	2
 714              		.global	ADC_SigDel_Enable
 715              		.thumb
 716              		.thumb_func
 717              		.type	ADC_SigDel_Enable, %function
 718              	ADC_SigDel_Enable:
 719              	.LFB1:
 187:Generated_Source\PSoC5/ADC_SigDel.c **** 	uint8 config;
 720              		.loc 1 187 0
 721              		.cfi_startproc
 722              		@ args = 0, pretend = 0, frame = 0
ARM GAS  C:\Users\ANNASP~1\AppData\Local\Temp\ccsUsXsi.s 			page 46


 723              		@ frame_needed = 0, uses_anonymous_args = 0
 724 0000 70B5     		push	{r4, r5, r6, lr}
 725              		.cfi_def_cfa_offset 16
 726              		.cfi_offset 4, -16
 727              		.cfi_offset 5, -12
 728              		.cfi_offset 6, -8
 729              		.cfi_offset 14, -4
 190:Generated_Source\PSoC5/ADC_SigDel.c **** 
 730              		.loc 1 190 0
 731 0002 FFF7FEFF 		bl	CyEnterCriticalSection
 732              	.LVL57:
 733 0006 0646     		mov	r6, r0
 734              	.LVL58:
 193:Generated_Source\PSoC5/ADC_SigDel.c ****     
 735              		.loc 1 193 0
 736 0008 2A4B     		ldr	r3, .L36
 737 000a 1B78     		ldrb	r3, [r3]	@ zero_extendqisi2
 738              	.LVL59:
 196:Generated_Source\PSoC5/ADC_SigDel.c ****     ADC_SigDel_PWRMGR_DSM_REG |= ADC_SigDel_ACT_PWR_DSM_EN;
 739              		.loc 1 196 0
 740 000c 2A4B     		ldr	r3, .L36+4
 741 000e 1A78     		ldrb	r2, [r3]	@ zero_extendqisi2
 742 0010 42F00102 		orr	r2, r2, #1
 743 0014 1A70     		strb	r2, [r3]
 197:Generated_Source\PSoC5/ADC_SigDel.c **** 
 744              		.loc 1 197 0
 745 0016 1A78     		ldrb	r2, [r3]	@ zero_extendqisi2
 746 0018 42F01002 		orr	r2, r2, #16
 747 001c 1A70     		strb	r2, [r3]
 200:Generated_Source\PSoC5/ADC_SigDel.c ****     ADC_SigDel_STBY_PWRMGR_DSM_REG |= ADC_SigDel_STBY_PWR_DSM_EN;
 748              		.loc 1 200 0
 749 001e 1033     		adds	r3, r3, #16
 750 0020 1A78     		ldrb	r2, [r3]	@ zero_extendqisi2
 751 0022 42F00102 		orr	r2, r2, #1
 752 0026 1A70     		strb	r2, [r3]
 201:Generated_Source\PSoC5/ADC_SigDel.c **** 
 753              		.loc 1 201 0
 754 0028 1A78     		ldrb	r2, [r3]	@ zero_extendqisi2
 755 002a 42F01002 		orr	r2, r2, #16
 756 002e 1A70     		strb	r2, [r3]
 204:Generated_Source\PSoC5/ADC_SigDel.c ****     ADC_SigDel_RESET_CR5_REG |= ADC_SigDel_IGNORE_PRESA2;
 757              		.loc 1 204 0
 758 0030 224D     		ldr	r5, .L36+8
 759 0032 2B78     		ldrb	r3, [r5]	@ zero_extendqisi2
 760 0034 43F00203 		orr	r3, r3, #2
 761 0038 2B70     		strb	r3, [r5]
 205:Generated_Source\PSoC5/ADC_SigDel.c **** 
 762              		.loc 1 205 0
 763 003a 214C     		ldr	r4, .L36+12
 764 003c 2378     		ldrb	r3, [r4]	@ zero_extendqisi2
 765 003e 43F00203 		orr	r3, r3, #2
 766 0042 2370     		strb	r3, [r4]
 207:Generated_Source\PSoC5/ADC_SigDel.c **** 
 767              		.loc 1 207 0
 768 0044 1F4A     		ldr	r2, .L36+16
 769 0046 1378     		ldrb	r3, [r2]	@ zero_extendqisi2
 770 0048 43F00303 		orr	r3, r3, #3
ARM GAS  C:\Users\ANNASP~1\AppData\Local\Temp\ccsUsXsi.s 			page 47


 771 004c 1370     		strb	r3, [r2]
 273:Generated_Source\PSoC5/ADC_SigDel.c **** 
 772              		.loc 1 273 0
 773 004e 0320     		movs	r0, #3
 774 0050 FFF7FEFF 		bl	CyDelayUs
 775              	.LVL60:
 276:Generated_Source\PSoC5/ADC_SigDel.c ****     ADC_SigDel_RESET_CR5_REG &= (uint8)~ADC_SigDel_IGNORE_PRESA2;
 776              		.loc 1 276 0
 777 0054 2B78     		ldrb	r3, [r5]	@ zero_extendqisi2
 778 0056 03F0FD03 		and	r3, r3, #253
 779 005a 2B70     		strb	r3, [r5]
 277:Generated_Source\PSoC5/ADC_SigDel.c **** 
 780              		.loc 1 277 0
 781 005c 2378     		ldrb	r3, [r4]	@ zero_extendqisi2
 782 005e 03F0FD03 		and	r3, r3, #253
 783 0062 2370     		strb	r3, [r4]
 280:Generated_Source\PSoC5/ADC_SigDel.c **** 
 784              		.loc 1 280 0
 785 0064 184A     		ldr	r2, .L36+20
 786 0066 1378     		ldrb	r3, [r2]	@ zero_extendqisi2
 787 0068 43F00603 		orr	r3, r3, #6
 788 006c 1370     		strb	r3, [r2]
 283:Generated_Source\PSoC5/ADC_SigDel.c **** 
 789              		.loc 1 283 0
 790 006e 7A22     		movs	r2, #122
 791 0070 164B     		ldr	r3, .L36+24
 792 0072 1A70     		strb	r2, [r3]
 287:Generated_Source\PSoC5/ADC_SigDel.c ****         ADC_SigDel_STBY_PWRMGR_CLK_REG |= ADC_SigDel_STBY_PWR_CLK_EN;
 793              		.loc 1 287 0
 794 0074 164A     		ldr	r2, .L36+28
 795 0076 1378     		ldrb	r3, [r2]	@ zero_extendqisi2
 796 0078 43F00103 		orr	r3, r3, #1
 797 007c 1370     		strb	r3, [r2]
 288:Generated_Source\PSoC5/ADC_SigDel.c ****     #endif /* ADC_SigDel_DEFAULT_INTERNAL_CLK */
 798              		.loc 1 288 0
 799 007e 1032     		adds	r2, r2, #16
 800 0080 1378     		ldrb	r3, [r2]	@ zero_extendqisi2
 801 0082 43F00103 		orr	r3, r3, #1
 802 0086 1370     		strb	r3, [r2]
 292:Generated_Source\PSoC5/ADC_SigDel.c ****     ADC_SigDel_STBY_PWRMGR_CHARGE_PUMP_CLK_REG |= ADC_SigDel_STBY_PWR_CHARGE_PUMP_CLK_EN;
 803              		.loc 1 292 0
 804 0088 0F3A     		subs	r2, r2, #15
 805 008a 1378     		ldrb	r3, [r2]	@ zero_extendqisi2
 806 008c 43F00203 		orr	r3, r3, #2
 807 0090 1370     		strb	r3, [r2]
 293:Generated_Source\PSoC5/ADC_SigDel.c **** 
 808              		.loc 1 293 0
 809 0092 1032     		adds	r2, r2, #16
 810 0094 1378     		ldrb	r3, [r2]	@ zero_extendqisi2
 811 0096 43F00203 		orr	r3, r3, #2
 812 009a 1370     		strb	r3, [r2]
 297:Generated_Source\PSoC5/ADC_SigDel.c ****         /* Enable interrupt */
 813              		.loc 1 297 0
 814 009c 4FF00053 		mov	r3, #536870912
 815 00a0 0C4A     		ldr	r2, .L36+32
 816 00a2 1360     		str	r3, [r2]
 299:Generated_Source\PSoC5/ADC_SigDel.c ****     #endif   /* End ADC_SigDel_IRQ_REMOVE */
ARM GAS  C:\Users\ANNASP~1\AppData\Local\Temp\ccsUsXsi.s 			page 48


 817              		.loc 1 299 0
 818 00a4 A2F5C072 		sub	r2, r2, #384
 819 00a8 1360     		str	r3, [r2]
 302:Generated_Source\PSoC5/ADC_SigDel.c **** 
 820              		.loc 1 302 0
 821 00aa 3046     		mov	r0, r6
 822 00ac FFF7FEFF 		bl	CyExitCriticalSection
 823              	.LVL61:
 824 00b0 70BD     		pop	{r4, r5, r6, pc}
 825              	.LVL62:
 826              	.L37:
 827 00b2 00BF     		.align	2
 828              	.L36:
 829 00b4 00000000 		.word	.LANCHOR1
 830 00b8 AA430040 		.word	1073759146
 831 00bc F8460040 		.word	1073759992
 832 00c0 F9460040 		.word	1073759993
 833 00c4 91580040 		.word	1073764497
 834 00c8 77580040 		.word	1073764471
 835 00cc 82580040 		.word	1073764482
 836 00d0 A1430040 		.word	1073759137
 837 00d4 80E200E0 		.word	-536812928
 838              		.cfi_endproc
 839              	.LFE1:
 840              		.size	ADC_SigDel_Enable, .-ADC_SigDel_Enable
 841              		.section	.text.ADC_SigDel_Start,"ax",%progbits
 842              		.align	2
 843              		.global	ADC_SigDel_Start
 844              		.thumb
 845              		.thumb_func
 846              		.type	ADC_SigDel_Start, %function
 847              	ADC_SigDel_Start:
 848              	.LFB2:
 335:Generated_Source\PSoC5/ADC_SigDel.c ****     if(ADC_SigDel_initVar == 0u)
 849              		.loc 1 335 0
 850              		.cfi_startproc
 851              		@ args = 0, pretend = 0, frame = 0
 852              		@ frame_needed = 0, uses_anonymous_args = 0
 853 0000 08B5     		push	{r3, lr}
 854              		.cfi_def_cfa_offset 8
 855              		.cfi_offset 3, -8
 856              		.cfi_offset 14, -4
 336:Generated_Source\PSoC5/ADC_SigDel.c ****     {
 857              		.loc 1 336 0
 858 0002 084B     		ldr	r3, .L42
 859 0004 9B7A     		ldrb	r3, [r3, #10]	@ zero_extendqisi2
 860 0006 4BB9     		cbnz	r3, .L39
 338:Generated_Source\PSoC5/ADC_SigDel.c ****         {
 861              		.loc 1 338 0
 862 0008 064B     		ldr	r3, .L42
 863 000a DB7A     		ldrb	r3, [r3, #11]	@ zero_extendqisi2
 864 000c 13F0FF0F 		tst	r3, #255
 865 0010 01D1     		bne	.L40
 340:Generated_Source\PSoC5/ADC_SigDel.c ****         }
 866              		.loc 1 340 0
 867 0012 FFF7FEFF 		bl	ADC_SigDel_Init
 868              	.LVL63:
ARM GAS  C:\Users\ANNASP~1\AppData\Local\Temp\ccsUsXsi.s 			page 49


 869              	.L40:
 342:Generated_Source\PSoC5/ADC_SigDel.c ****     }
 870              		.loc 1 342 0
 871 0016 0122     		movs	r2, #1
 872 0018 024B     		ldr	r3, .L42
 873 001a 9A72     		strb	r2, [r3, #10]
 874              	.L39:
 346:Generated_Source\PSoC5/ADC_SigDel.c **** }
 875              		.loc 1 346 0
 876 001c FFF7FEFF 		bl	ADC_SigDel_Enable
 877              	.LVL64:
 878 0020 08BD     		pop	{r3, pc}
 879              	.L43:
 880 0022 00BF     		.align	2
 881              	.L42:
 882 0024 00000000 		.word	.LANCHOR0
 883              		.cfi_endproc
 884              	.LFE2:
 885              		.size	ADC_SigDel_Start, .-ADC_SigDel_Start
 886              		.section	.text.ADC_SigDel_Stop,"ax",%progbits
 887              		.align	2
 888              		.global	ADC_SigDel_Stop
 889              		.thumb
 890              		.thumb_func
 891              		.type	ADC_SigDel_Stop, %function
 892              	ADC_SigDel_Stop:
 893              	.LFB3:
 368:Generated_Source\PSoC5/ADC_SigDel.c ****     uint8 enableInterrupts;
 894              		.loc 1 368 0
 895              		.cfi_startproc
 896              		@ args = 0, pretend = 0, frame = 0
 897              		@ frame_needed = 0, uses_anonymous_args = 0
 898 0000 70B5     		push	{r4, r5, r6, lr}
 899              		.cfi_def_cfa_offset 16
 900              		.cfi_offset 4, -16
 901              		.cfi_offset 5, -12
 902              		.cfi_offset 6, -8
 903              		.cfi_offset 14, -4
 370:Generated_Source\PSoC5/ADC_SigDel.c **** 
 904              		.loc 1 370 0
 905 0002 FFF7FEFF 		bl	CyEnterCriticalSection
 906              	.LVL65:
 907 0006 0646     		mov	r6, r0
 908              	.LVL66:
 373:Generated_Source\PSoC5/ADC_SigDel.c ****     ADC_SigDel_DEC_SR_REG |=  ADC_SigDel_DEC_INTR_CLEAR;
 909              		.loc 1 373 0
 910 0008 314A     		ldr	r2, .L46
 911 000a 1378     		ldrb	r3, [r2]	@ zero_extendqisi2
 912 000c 03F0FE03 		and	r3, r3, #254
 913 0010 1370     		strb	r3, [r2]
 374:Generated_Source\PSoC5/ADC_SigDel.c **** 
 914              		.loc 1 374 0
 915 0012 0132     		adds	r2, r2, #1
 916 0014 1378     		ldrb	r3, [r2]	@ zero_extendqisi2
 917 0016 43F00403 		orr	r3, r3, #4
 918 001a 1370     		strb	r3, [r2]
 378:Generated_Source\PSoC5/ADC_SigDel.c ****     ADC_SigDel_RESET_CR5_REG |= ADC_SigDel_IGNORE_PRESA2;
ARM GAS  C:\Users\ANNASP~1\AppData\Local\Temp\ccsUsXsi.s 			page 50


 919              		.loc 1 378 0
 920 001c 2D4D     		ldr	r5, .L46+4
 921 001e 2B78     		ldrb	r3, [r5]	@ zero_extendqisi2
 922 0020 43F00203 		orr	r3, r3, #2
 923 0024 2B70     		strb	r3, [r5]
 379:Generated_Source\PSoC5/ADC_SigDel.c **** 
 924              		.loc 1 379 0
 925 0026 2C4C     		ldr	r4, .L46+8
 926 0028 2378     		ldrb	r3, [r4]	@ zero_extendqisi2
 927 002a 43F00203 		orr	r3, r3, #2
 928 002e 2370     		strb	r3, [r4]
 381:Generated_Source\PSoC5/ADC_SigDel.c ****     ADC_SigDel_DSM_REF0_REG &= (uint8)~ADC_SigDel_DSM_EN_BUF_VREF_INN;
 929              		.loc 1 381 0
 930 0030 02F52962 		add	r2, r2, #2704
 931 0034 1378     		ldrb	r3, [r2]	@ zero_extendqisi2
 932 0036 03F0FC03 		and	r3, r3, #252
 933 003a 1370     		strb	r3, [r2]
 382:Generated_Source\PSoC5/ADC_SigDel.c **** 
 934              		.loc 1 382 0
 935 003c 0132     		adds	r2, r2, #1
 936 003e 1378     		ldrb	r3, [r2]	@ zero_extendqisi2
 937 0040 03F0F703 		and	r3, r3, #247
 938 0044 1370     		strb	r3, [r2]
 385:Generated_Source\PSoC5/ADC_SigDel.c **** 
 939              		.loc 1 385 0
 940 0046 0320     		movs	r0, #3
 941 0048 FFF7FEFF 		bl	CyDelayUs
 942              	.LVL67:
 388:Generated_Source\PSoC5/ADC_SigDel.c ****     ADC_SigDel_RESET_CR5_REG &= (uint8)~ADC_SigDel_IGNORE_PRESA2;
 943              		.loc 1 388 0
 944 004c 2B78     		ldrb	r3, [r5]	@ zero_extendqisi2
 945 004e 03F0FD03 		and	r3, r3, #253
 946 0052 2B70     		strb	r3, [r5]
 389:Generated_Source\PSoC5/ADC_SigDel.c **** 
 947              		.loc 1 389 0
 948 0054 2378     		ldrb	r3, [r4]	@ zero_extendqisi2
 949 0056 03F0FD03 		and	r3, r3, #253
 950 005a 2370     		strb	r3, [r4]
 392:Generated_Source\PSoC5/ADC_SigDel.c **** 
 951              		.loc 1 392 0
 952 005c 1F4B     		ldr	r3, .L46+12
 953 005e 1A78     		ldrb	r2, [r3]	@ zero_extendqisi2
 954 0060 02F0EF02 		and	r2, r2, #239
 955 0064 1A70     		strb	r2, [r3]
 395:Generated_Source\PSoC5/ADC_SigDel.c **** 
 956              		.loc 1 395 0
 957 0066 1A78     		ldrb	r2, [r3]	@ zero_extendqisi2
 958 0068 02F0FE02 		and	r2, r2, #254
 959 006c 1A70     		strb	r2, [r3]
 398:Generated_Source\PSoC5/ADC_SigDel.c ****     ADC_SigDel_STBY_PWRMGR_DSM_REG &= (uint8)~ADC_SigDel_STBY_PWR_DSM_EN;
 960              		.loc 1 398 0
 961 006e 1033     		adds	r3, r3, #16
 962 0070 1A78     		ldrb	r2, [r3]	@ zero_extendqisi2
 963 0072 02F0FE02 		and	r2, r2, #254
 964 0076 1A70     		strb	r2, [r3]
 399:Generated_Source\PSoC5/ADC_SigDel.c **** 
 965              		.loc 1 399 0
ARM GAS  C:\Users\ANNASP~1\AppData\Local\Temp\ccsUsXsi.s 			page 51


 966 0078 1A78     		ldrb	r2, [r3]	@ zero_extendqisi2
 967 007a 02F0EF02 		and	r2, r2, #239
 968 007e 1A70     		strb	r2, [r3]
 402:Generated_Source\PSoC5/ADC_SigDel.c **** 
 969              		.loc 1 402 0
 970 0080 174A     		ldr	r2, .L46+16
 971 0082 1378     		ldrb	r3, [r2]	@ zero_extendqisi2
 972 0084 03F0F903 		and	r3, r3, #249
 973 0088 1370     		strb	r3, [r2]
 406:Generated_Source\PSoC5/ADC_SigDel.c ****         ADC_SigDel_STBY_PWRMGR_CLK_REG &= (uint8)~ADC_SigDel_STBY_PWR_CLK_EN;
 974              		.loc 1 406 0
 975 008a A2F5A652 		sub	r2, r2, #5312
 976 008e 163A     		subs	r2, r2, #22
 977 0090 1378     		ldrb	r3, [r2]	@ zero_extendqisi2
 978 0092 03F0FE03 		and	r3, r3, #254
 979 0096 1370     		strb	r3, [r2]
 407:Generated_Source\PSoC5/ADC_SigDel.c ****     #endif /* ADC_SigDel_DEFAULT_INTERNAL_CLK */
 980              		.loc 1 407 0
 981 0098 1032     		adds	r2, r2, #16
 982 009a 1378     		ldrb	r3, [r2]	@ zero_extendqisi2
 983 009c 03F0FE03 		and	r3, r3, #254
 984 00a0 1370     		strb	r3, [r2]
 411:Generated_Source\PSoC5/ADC_SigDel.c ****     /* Disable power to charge pump clock */
 985              		.loc 1 411 0
 986 00a2 02F5A652 		add	r2, r2, #5312
 987 00a6 1132     		adds	r2, r2, #17
 988 00a8 1378     		ldrb	r3, [r2]	@ zero_extendqisi2
 989 00aa 03F0F703 		and	r3, r3, #247
 990 00ae 1370     		strb	r3, [r2]
 413:Generated_Source\PSoC5/ADC_SigDel.c ****     ADC_SigDel_STBY_PWRMGR_CHARGE_PUMP_CLK_REG &= (uint8)~ADC_SigDel_STBY_PWR_CHARGE_PUMP_CLK_EN;
 991              		.loc 1 413 0
 992 00b0 A2F5A752 		sub	r2, r2, #5344
 993 00b4 1378     		ldrb	r3, [r2]	@ zero_extendqisi2
 994 00b6 03F0FD03 		and	r3, r3, #253
 995 00ba 1370     		strb	r3, [r2]
 414:Generated_Source\PSoC5/ADC_SigDel.c ****     
 996              		.loc 1 414 0
 997 00bc 1032     		adds	r2, r2, #16
 998 00be 1378     		ldrb	r3, [r2]	@ zero_extendqisi2
 999 00c0 03F0FD03 		and	r3, r3, #253
 1000 00c4 1370     		strb	r3, [r2]
 416:Generated_Source\PSoC5/ADC_SigDel.c **** }
 1001              		.loc 1 416 0
 1002 00c6 3046     		mov	r0, r6
 1003 00c8 FFF7FEFF 		bl	CyExitCriticalSection
 1004              	.LVL68:
 1005 00cc 70BD     		pop	{r4, r5, r6, pc}
 1006              	.LVL69:
 1007              	.L47:
 1008 00ce 00BF     		.align	2
 1009              	.L46:
 1010 00d0 004E0040 		.word	1073761792
 1011 00d4 F8460040 		.word	1073759992
 1012 00d8 F9460040 		.word	1073759993
 1013 00dc AA430040 		.word	1073759146
 1014 00e0 77580040 		.word	1073764471
 1015              		.cfi_endproc
ARM GAS  C:\Users\ANNASP~1\AppData\Local\Temp\ccsUsXsi.s 			page 52


 1016              	.LFE3:
 1017              		.size	ADC_SigDel_Stop, .-ADC_SigDel_Stop
 1018              		.section	.text.ADC_SigDel_SetBufferGain,"ax",%progbits
 1019              		.align	2
 1020              		.global	ADC_SigDel_SetBufferGain
 1021              		.thumb
 1022              		.thumb_func
 1023              		.type	ADC_SigDel_SetBufferGain, %function
 1024              	ADC_SigDel_SetBufferGain:
 1025              	.LFB4:
 435:Generated_Source\PSoC5/ADC_SigDel.c ****     uint8 tmpReg;
 1026              		.loc 1 435 0
 1027              		.cfi_startproc
 1028              		@ args = 0, pretend = 0, frame = 0
 1029              		@ frame_needed = 0, uses_anonymous_args = 0
 1030              		@ link register save eliminated.
 1031              	.LVL70:
 437:Generated_Source\PSoC5/ADC_SigDel.c ****     tmpReg |= (uint8)(gain << ADC_SigDel_DSM_GAIN_SHIFT) & ADC_SigDel_DSM_GAIN_MASK;
 1032              		.loc 1 437 0
 1033 0000 044A     		ldr	r2, .L49
 1034 0002 1378     		ldrb	r3, [r2]	@ zero_extendqisi2
 1035 0004 03F0F303 		and	r3, r3, #243
 1036              	.LVL71:
 438:Generated_Source\PSoC5/ADC_SigDel.c ****     ADC_SigDel_DSM_BUF1_REG = tmpReg;
 1037              		.loc 1 438 0
 1038 0008 8000     		lsls	r0, r0, #2
 1039              	.LVL72:
 1040 000a 00F00C00 		and	r0, r0, #12
 1041 000e 1843     		orrs	r0, r0, r3
 1042              	.LVL73:
 439:Generated_Source\PSoC5/ADC_SigDel.c **** }
 1043              		.loc 1 439 0
 1044 0010 1070     		strb	r0, [r2]
 1045 0012 7047     		bx	lr
 1046              	.L50:
 1047              		.align	2
 1048              	.L49:
 1049 0014 9B580040 		.word	1073764507
 1050              		.cfi_endproc
 1051              	.LFE4:
 1052              		.size	ADC_SigDel_SetBufferGain, .-ADC_SigDel_SetBufferGain
 1053              		.section	.text.ADC_SigDel_SetCoherency,"ax",%progbits
 1054              		.align	2
 1055              		.global	ADC_SigDel_SetCoherency
 1056              		.thumb
 1057              		.thumb_func
 1058              		.type	ADC_SigDel_SetCoherency, %function
 1059              	ADC_SigDel_SetCoherency:
 1060              	.LFB5:
 471:Generated_Source\PSoC5/ADC_SigDel.c ****     uint8 tmpReg;
 1061              		.loc 1 471 0
 1062              		.cfi_startproc
 1063              		@ args = 0, pretend = 0, frame = 0
 1064              		@ frame_needed = 0, uses_anonymous_args = 0
 1065              		@ link register save eliminated.
 1066              	.LVL74:
 474:Generated_Source\PSoC5/ADC_SigDel.c ****     tmpReg |= coherency & ADC_SigDel_DEC_SAMP_KEY_MASK;
ARM GAS  C:\Users\ANNASP~1\AppData\Local\Temp\ccsUsXsi.s 			page 53


 1067              		.loc 1 474 0
 1068 0000 044A     		ldr	r2, .L52
 1069 0002 1378     		ldrb	r3, [r2]	@ zero_extendqisi2
 1070 0004 03F0FC03 		and	r3, r3, #252
 1071              	.LVL75:
 475:Generated_Source\PSoC5/ADC_SigDel.c ****     ADC_SigDel_DEC_COHER_REG = tmpReg;
 1072              		.loc 1 475 0
 1073 0008 00F00300 		and	r0, r0, #3
 1074              	.LVL76:
 1075 000c 1843     		orrs	r0, r0, r3
 1076              	.LVL77:
 476:Generated_Source\PSoC5/ADC_SigDel.c **** }
 1077              		.loc 1 476 0
 1078 000e 1070     		strb	r0, [r2]
 1079 0010 7047     		bx	lr
 1080              	.L53:
 1081 0012 00BF     		.align	2
 1082              	.L52:
 1083 0014 144E0040 		.word	1073761812
 1084              		.cfi_endproc
 1085              	.LFE5:
 1086              		.size	ADC_SigDel_SetCoherency, .-ADC_SigDel_SetCoherency
 1087              		.global	__aeabi_ui2f
 1088              		.global	__aeabi_fmul
 1089              		.global	__aeabi_f2d
 1090              		.global	__aeabi_dcmpgt
 1091              		.global	__aeabi_f2uiz
 1092              		.section	.text.ADC_SigDel_SetGCOR,"ax",%progbits
 1093              		.align	2
 1094              		.global	ADC_SigDel_SetGCOR
 1095              		.thumb
 1096              		.thumb_func
 1097              		.type	ADC_SigDel_SetGCOR, %function
 1098              	ADC_SigDel_SetGCOR:
 1099              	.LFB6:
 511:Generated_Source\PSoC5/ADC_SigDel.c ****     uint16 tmpReg;
 1100              		.loc 1 511 0
 1101              		.cfi_startproc
 1102              		@ args = 0, pretend = 0, frame = 0
 1103              		@ frame_needed = 0, uses_anonymous_args = 0
 1104              	.LVL78:
 1105 0000 10B5     		push	{r4, lr}
 1106              		.cfi_def_cfa_offset 8
 1107              		.cfi_offset 4, -8
 1108              		.cfi_offset 14, -4
 1109 0002 0446     		mov	r4, r0
 516:Generated_Source\PSoC5/ADC_SigDel.c ****     tmpValue = ((float32)tmpReg / (float32)ADC_SigDel_IDEAL_GAIN_CONST);
 1110              		.loc 1 516 0
 1111 0004 184B     		ldr	r3, .L58+8
 1112 0006 1B78     		ldrb	r3, [r3]	@ zero_extendqisi2
 1113 0008 013B     		subs	r3, r3, #1
 1114              	.LVL79:
 517:Generated_Source\PSoC5/ADC_SigDel.c ****     tmpValue = tmpValue * gainAdjust;
 1115              		.loc 1 517 0
 1116 000a 184A     		ldr	r2, .L58+12
 1117 000c 32F82300 		ldrh	r0, [r2, r3, lsl #2]
 1118              	.LVL80:
ARM GAS  C:\Users\ANNASP~1\AppData\Local\Temp\ccsUsXsi.s 			page 54


 1119 0010 FFF7FEFF 		bl	__aeabi_ui2f
 1120              	.LVL81:
 1121 0014 4FF06051 		mov	r1, #939524096
 1122 0018 FFF7FEFF 		bl	__aeabi_fmul
 1123              	.LVL82:
 518:Generated_Source\PSoC5/ADC_SigDel.c **** 
 1124              		.loc 1 518 0
 1125 001c 2146     		mov	r1, r4
 1126 001e FFF7FEFF 		bl	__aeabi_fmul
 1127              	.LVL83:
 1128 0022 0446     		mov	r4, r0
 1129              	.LVL84:
 520:Generated_Source\PSoC5/ADC_SigDel.c ****     {
 1130              		.loc 1 520 0
 1131 0024 FFF7FEFF 		bl	__aeabi_f2d
 1132              	.LVL85:
 1133 0028 0DA3     		adr	r3, .L58
 1134 002a D3E90023 		ldrd	r2, [r3]
 1135 002e FFF7FEFF 		bl	__aeabi_dcmpgt
 1136              	.LVL86:
 1137 0032 88B9     		cbnz	r0, .L56
 526:Generated_Source\PSoC5/ADC_SigDel.c **** 		tmpReg = (uint16)tmpValue;
 1138              		.loc 1 526 0
 1139 0034 4FF08E41 		mov	r1, #1191182336
 1140 0038 2046     		mov	r0, r4
 1141 003a FFF7FEFF 		bl	__aeabi_fmul
 1142              	.LVL87:
 527:Generated_Source\PSoC5/ADC_SigDel.c ****         CY_SET_REG16(ADC_SigDel_DEC_GCOR_16B_PTR, tmpReg);
 1143              		.loc 1 527 0
 1144 003e FFF7FEFF 		bl	__aeabi_f2uiz
 1145              	.LVL88:
 1146 0042 80B2     		uxth	r0, r0
 1147              	.LVL89:
 528:Generated_Source\PSoC5/ADC_SigDel.c ****         /* Update gain array to be used by SelectConfiguration() API */
 1148              		.loc 1 528 0
 1149 0044 0A4B     		ldr	r3, .L58+16
 1150 0046 1880     		strh	r0, [r3]	@ movhi
 530:Generated_Source\PSoC5/ADC_SigDel.c **** 
 1151              		.loc 1 530 0
 1152 0048 074B     		ldr	r3, .L58+8
 1153 004a 1B78     		ldrb	r3, [r3]	@ zero_extendqisi2
 1154 004c 013B     		subs	r3, r3, #1
 1155 004e 074A     		ldr	r2, .L58+12
 1156 0050 22F82300 		strh	r0, [r2, r3, lsl #2]	@ movhi
 1157              	.LVL90:
 532:Generated_Source\PSoC5/ADC_SigDel.c **** 
 1158              		.loc 1 532 0
 1159 0054 0020     		movs	r0, #0
 1160              	.LVL91:
 1161 0056 10BD     		pop	{r4, pc}
 1162              	.LVL92:
 1163              	.L56:
 522:Generated_Source\PSoC5/ADC_SigDel.c ****     }
 1164              		.loc 1 522 0
 1165 0058 0120     		movs	r0, #1
 1166              	.LVL93:
 536:Generated_Source\PSoC5/ADC_SigDel.c **** 
ARM GAS  C:\Users\ANNASP~1\AppData\Local\Temp\ccsUsXsi.s 			page 55


 1167              		.loc 1 536 0
 1168 005a 10BD     		pop	{r4, pc}
 1169              	.LVL94:
 1170              	.L59:
 1171 005c AFF30080 		.align	3
 1172              	.L58:
 1173 0060 8F537424 		.word	611603343
 1174 0064 97FFFF3F 		.word	1073741719
 1175 0068 00000000 		.word	.LANCHOR1
 1176 006c 00000000 		.word	.LANCHOR0
 1177 0070 0C4E0040 		.word	1073761804
 1178              		.cfi_endproc
 1179              	.LFE6:
 1180              		.size	ADC_SigDel_SetGCOR, .-ADC_SigDel_SetGCOR
 1181              		.section	.text.ADC_SigDel_ReadGCOR,"ax",%progbits
 1182              		.align	2
 1183              		.global	ADC_SigDel_ReadGCOR
 1184              		.thumb
 1185              		.thumb_func
 1186              		.type	ADC_SigDel_ReadGCOR, %function
 1187              	ADC_SigDel_ReadGCOR:
 1188              	.LFB7:
 558:Generated_Source\PSoC5/ADC_SigDel.c ****     uint8 gValue;
 1189              		.loc 1 558 0
 1190              		.cfi_startproc
 1191              		@ args = 0, pretend = 0, frame = 0
 1192              		@ frame_needed = 0, uses_anonymous_args = 0
 1193              		@ link register save eliminated.
 562:Generated_Source\PSoC5/ADC_SigDel.c ****     gcorValue = CY_GET_REG16(ADC_SigDel_DEC_GCOR_16B_PTR);
 1194              		.loc 1 562 0
 1195 0000 064B     		ldr	r3, .L62
 1196 0002 1B78     		ldrb	r3, [r3]	@ zero_extendqisi2
 1197 0004 DBB2     		uxtb	r3, r3
 1198              	.LVL95:
 563:Generated_Source\PSoC5/ADC_SigDel.c **** 
 1199              		.loc 1 563 0
 1200 0006 064A     		ldr	r2, .L62+4
 1201 0008 1088     		ldrh	r0, [r2]
 1202 000a 80B2     		uxth	r0, r0
 1203              	.LVL96:
 565:Generated_Source\PSoC5/ADC_SigDel.c ****     {
 1204              		.loc 1 565 0
 1205 000c 0E2B     		cmp	r3, #14
 1206 000e 03D8     		bhi	.L61
 567:Generated_Source\PSoC5/ADC_SigDel.c ****     }
 1207              		.loc 1 567 0
 1208 0010 C3F10F03 		rsb	r3, r3, #15
 1209              	.LVL97:
 1210 0014 9840     		lsls	r0, r0, r3
 1211              	.LVL98:
 1212 0016 80B2     		uxth	r0, r0
 1213              	.LVL99:
 1214              	.L61:
 571:Generated_Source\PSoC5/ADC_SigDel.c **** 
 1215              		.loc 1 571 0
 1216 0018 7047     		bx	lr
 1217              	.L63:
ARM GAS  C:\Users\ANNASP~1\AppData\Local\Temp\ccsUsXsi.s 			page 56


 1218 001a 00BF     		.align	2
 1219              	.L62:
 1220 001c 0E4E0040 		.word	1073761806
 1221 0020 0C4E0040 		.word	1073761804
 1222              		.cfi_endproc
 1223              	.LFE7:
 1224              		.size	ADC_SigDel_ReadGCOR, .-ADC_SigDel_ReadGCOR
 1225              		.section	.text.ADC_SigDel_StartConvert,"ax",%progbits
 1226              		.align	2
 1227              		.global	ADC_SigDel_StartConvert
 1228              		.thumb
 1229              		.thumb_func
 1230              		.type	ADC_SigDel_StartConvert, %function
 1231              	ADC_SigDel_StartConvert:
 1232              	.LFB8:
 592:Generated_Source\PSoC5/ADC_SigDel.c ****     /* Start the conversion */
 1233              		.loc 1 592 0
 1234              		.cfi_startproc
 1235              		@ args = 0, pretend = 0, frame = 0
 1236              		@ frame_needed = 0, uses_anonymous_args = 0
 1237              		@ link register save eliminated.
 594:Generated_Source\PSoC5/ADC_SigDel.c **** }
 1238              		.loc 1 594 0
 1239 0000 024A     		ldr	r2, .L65
 1240 0002 1378     		ldrb	r3, [r2]	@ zero_extendqisi2
 1241 0004 43F00103 		orr	r3, r3, #1
 1242 0008 1370     		strb	r3, [r2]
 1243 000a 7047     		bx	lr
 1244              	.L66:
 1245              		.align	2
 1246              	.L65:
 1247 000c 004E0040 		.word	1073761792
 1248              		.cfi_endproc
 1249              	.LFE8:
 1250              		.size	ADC_SigDel_StartConvert, .-ADC_SigDel_StartConvert
 1251              		.section	.text.ADC_SigDel_StopConvert,"ax",%progbits
 1252              		.align	2
 1253              		.global	ADC_SigDel_StopConvert
 1254              		.thumb
 1255              		.thumb_func
 1256              		.type	ADC_SigDel_StopConvert, %function
 1257              	ADC_SigDel_StopConvert:
 1258              	.LFB9:
 615:Generated_Source\PSoC5/ADC_SigDel.c ****     /* Stop all conversions */
 1259              		.loc 1 615 0
 1260              		.cfi_startproc
 1261              		@ args = 0, pretend = 0, frame = 0
 1262              		@ frame_needed = 0, uses_anonymous_args = 0
 1263              		@ link register save eliminated.
 617:Generated_Source\PSoC5/ADC_SigDel.c **** }
 1264              		.loc 1 617 0
 1265 0000 024A     		ldr	r2, .L68
 1266 0002 1378     		ldrb	r3, [r2]	@ zero_extendqisi2
 1267 0004 03F0FE03 		and	r3, r3, #254
 1268 0008 1370     		strb	r3, [r2]
 1269 000a 7047     		bx	lr
 1270              	.L69:
ARM GAS  C:\Users\ANNASP~1\AppData\Local\Temp\ccsUsXsi.s 			page 57


 1271              		.align	2
 1272              	.L68:
 1273 000c 004E0040 		.word	1073761792
 1274              		.cfi_endproc
 1275              	.LFE9:
 1276              		.size	ADC_SigDel_StopConvert, .-ADC_SigDel_StopConvert
 1277              		.section	.text.ADC_SigDel_IsEndConversion,"ax",%progbits
 1278              		.align	2
 1279              		.global	ADC_SigDel_IsEndConversion
 1280              		.thumb
 1281              		.thumb_func
 1282              		.type	ADC_SigDel_IsEndConversion, %function
 1283              	ADC_SigDel_IsEndConversion:
 1284              	.LFB10:
 650:Generated_Source\PSoC5/ADC_SigDel.c ****     uint8 status;
 1285              		.loc 1 650 0
 1286              		.cfi_startproc
 1287              		@ args = 0, pretend = 0, frame = 0
 1288              		@ frame_needed = 0, uses_anonymous_args = 0
 1289              		@ link register save eliminated.
 1290              	.LVL100:
 1291              	.L74:
 658:Generated_Source\PSoC5/ADC_SigDel.c ****         {
 1292              		.loc 1 658 0
 1293 0000 094B     		ldr	r3, .L75
 1294 0002 1B7A     		ldrb	r3, [r3, #8]	@ zero_extendqisi2
 1295 0004 13F0FF0F 		tst	r3, #255
 1296 0008 03D0     		beq	.L71
 660:Generated_Source\PSoC5/ADC_SigDel.c ****         }
 1297              		.loc 1 660 0
 1298 000a 074B     		ldr	r3, .L75
 1299 000c 5B7A     		ldrb	r3, [r3, #9]	@ zero_extendqisi2
 1300 000e DBB2     		uxtb	r3, r3
 1301              	.LVL101:
 1302 0010 03E0     		b	.L72
 1303              	.LVL102:
 1304              	.L71:
 664:Generated_Source\PSoC5/ADC_SigDel.c ****         }
 1305              		.loc 1 664 0
 1306 0012 064B     		ldr	r3, .L75+4
 1307 0014 1B78     		ldrb	r3, [r3]	@ zero_extendqisi2
 1308 0016 03F00103 		and	r3, r3, #1
 1309              	.LVL103:
 1310              	.L72:
 666:Generated_Source\PSoC5/ADC_SigDel.c **** 
 1311              		.loc 1 666 0
 1312 001a 012B     		cmp	r3, #1
 1313 001c 01D0     		beq	.L73
 666:Generated_Source\PSoC5/ADC_SigDel.c **** 
 1314              		.loc 1 666 0 is_stmt 0 discriminator 1
 1315 001e 0028     		cmp	r0, #0
 1316 0020 EED0     		beq	.L74
 1317              	.L73:
 669:Generated_Source\PSoC5/ADC_SigDel.c **** 
 1318              		.loc 1 669 0 is_stmt 1
 1319 0022 1846     		mov	r0, r3
 1320              	.LVL104:
ARM GAS  C:\Users\ANNASP~1\AppData\Local\Temp\ccsUsXsi.s 			page 58


 1321 0024 7047     		bx	lr
 1322              	.L76:
 1323 0026 00BF     		.align	2
 1324              	.L75:
 1325 0028 00000000 		.word	.LANCHOR0
 1326 002c 014E0040 		.word	1073761793
 1327              		.cfi_endproc
 1328              	.LFE10:
 1329              		.size	ADC_SigDel_IsEndConversion, .-ADC_SigDel_IsEndConversion
 1330              		.section	.text.ADC_SigDel_GetResult8,"ax",%progbits
 1331              		.align	2
 1332              		.global	ADC_SigDel_GetResult8
 1333              		.thumb
 1334              		.thumb_func
 1335              		.type	ADC_SigDel_GetResult8, %function
 1336              	ADC_SigDel_GetResult8:
 1337              	.LFB11:
 697:Generated_Source\PSoC5/ADC_SigDel.c ****     int8 result;
 1338              		.loc 1 697 0
 1339              		.cfi_startproc
 1340              		@ args = 0, pretend = 0, frame = 0
 1341              		@ frame_needed = 0, uses_anonymous_args = 0
 1342              		@ link register save eliminated.
 702:Generated_Source\PSoC5/ADC_SigDel.c **** 
 1343              		.loc 1 702 0
 1344 0000 0C4B     		ldr	r3, .L81
 1345 0002 1B78     		ldrb	r3, [r3]	@ zero_extendqisi2
 1346 0004 03F00303 		and	r3, r3, #3
 1347              	.LVL105:
 704:Generated_Source\PSoC5/ADC_SigDel.c **** 
 1348              		.loc 1 704 0
 1349 0008 0B4A     		ldr	r2, .L81+4
 1350 000a 1078     		ldrb	r0, [r2]	@ zero_extendqisi2
 1351 000c 40B2     		sxtb	r0, r0
 1352              	.LVL106:
 706:Generated_Source\PSoC5/ADC_SigDel.c ****     {   /* Dummy read of the middle byte to unlock the coherency */
 1353              		.loc 1 706 0
 1354 000e 022B     		cmp	r3, #2
 1355 0010 02D1     		bne	.L78
 708:Generated_Source\PSoC5/ADC_SigDel.c ****     }
 1356              		.loc 1 708 0
 1357 0012 0A4B     		ldr	r3, .L81+8
 1358              	.LVL107:
 1359 0014 1B78     		ldrb	r3, [r3]	@ zero_extendqisi2
 1360 0016 03E0     		b	.L79
 1361              	.LVL108:
 1362              	.L78:
 710:Generated_Source\PSoC5/ADC_SigDel.c ****     {   /* Dummy read of the MSB byte to unlock the coherency */
 1363              		.loc 1 710 0
 1364 0018 032B     		cmp	r3, #3
 1365 001a 01D1     		bne	.L79
 712:Generated_Source\PSoC5/ADC_SigDel.c ****     }
 1366              		.loc 1 712 0
 1367 001c 084B     		ldr	r3, .L81+12
 1368              	.LVL109:
 1369 001e 1B78     		ldrb	r3, [r3]	@ zero_extendqisi2
 1370              	.L79:
ARM GAS  C:\Users\ANNASP~1\AppData\Local\Temp\ccsUsXsi.s 			page 59


 718:Generated_Source\PSoC5/ADC_SigDel.c ****     {
 1371              		.loc 1 718 0
 1372 0020 084B     		ldr	r3, .L81+16
 1373 0022 1B7A     		ldrb	r3, [r3, #8]	@ zero_extendqisi2
 1374 0024 13F0FF0F 		tst	r3, #255
 1375 0028 02D0     		beq	.L80
 720:Generated_Source\PSoC5/ADC_SigDel.c ****     }
 1376              		.loc 1 720 0
 1377 002a 0022     		movs	r2, #0
 1378 002c 054B     		ldr	r3, .L81+16
 1379 002e 5A72     		strb	r2, [r3, #9]
 1380              	.L80:
 723:Generated_Source\PSoC5/ADC_SigDel.c **** 
 1381              		.loc 1 723 0
 1382 0030 7047     		bx	lr
 1383              	.L82:
 1384 0032 00BF     		.align	2
 1385              	.L81:
 1386 0034 144E0040 		.word	1073761812
 1387 0038 104E0040 		.word	1073761808
 1388 003c 114E0040 		.word	1073761809
 1389 0040 124E0040 		.word	1073761810
 1390 0044 00000000 		.word	.LANCHOR0
 1391              		.cfi_endproc
 1392              	.LFE11:
 1393              		.size	ADC_SigDel_GetResult8, .-ADC_SigDel_GetResult8
 1394              		.section	.text.ADC_SigDel_GetResult16,"ax",%progbits
 1395              		.align	2
 1396              		.global	ADC_SigDel_GetResult16
 1397              		.thumb
 1398              		.thumb_func
 1399              		.type	ADC_SigDel_GetResult16, %function
 1400              	ADC_SigDel_GetResult16:
 1401              	.LFB12:
 751:Generated_Source\PSoC5/ADC_SigDel.c ****     uint16 result;
 1402              		.loc 1 751 0
 1403              		.cfi_startproc
 1404              		@ args = 0, pretend = 0, frame = 0
 1405              		@ frame_needed = 0, uses_anonymous_args = 0
 1406              		@ link register save eliminated.
 756:Generated_Source\PSoC5/ADC_SigDel.c **** 
 1407              		.loc 1 756 0
 1408 0000 0E4B     		ldr	r3, .L87
 1409 0002 1B78     		ldrb	r3, [r3]	@ zero_extendqisi2
 1410 0004 03F00303 		and	r3, r3, #3
 1411              	.LVL110:
 758:Generated_Source\PSoC5/ADC_SigDel.c ****     {   /*  Use default method to read result registers i.e. LSB byte read at the end*/
 1412              		.loc 1 758 0
 1413 0008 012B     		cmp	r3, #1
 1414 000a 03D8     		bhi	.L84
 764:Generated_Source\PSoC5/ADC_SigDel.c ****         #endif /* CY_PSOC3 */
 1415              		.loc 1 764 0
 1416 000c 0C4B     		ldr	r3, .L87+4
 1417              	.LVL111:
 1418 000e 1888     		ldrh	r0, [r3]
 1419 0010 80B2     		uxth	r0, r0
 1420              	.LVL112:
ARM GAS  C:\Users\ANNASP~1\AppData\Local\Temp\ccsUsXsi.s 			page 60


 1421 0012 09E0     		b	.L85
 1422              	.LVL113:
 1423              	.L84:
 772:Generated_Source\PSoC5/ADC_SigDel.c ****             result |=  (uint16)((uint16)ADC_SigDel_DEC_SAMPM_REG << 8u);
 1424              		.loc 1 772 0
 1425 0014 0A4A     		ldr	r2, .L87+4
 1426 0016 1278     		ldrb	r2, [r2]	@ zero_extendqisi2
 1427              	.LVL114:
 773:Generated_Source\PSoC5/ADC_SigDel.c ****         #endif /* CY_PSOC3 */
 1428              		.loc 1 773 0
 1429 0018 0A49     		ldr	r1, .L87+8
 1430 001a 0878     		ldrb	r0, [r1]	@ zero_extendqisi2
 1431 001c 42EA0020 		orr	r0, r2, r0, lsl #8
 1432              	.LVL115:
 775:Generated_Source\PSoC5/ADC_SigDel.c ****         {   /* Dummy read of the MSB byte to unlock the coherency */
 1433              		.loc 1 775 0
 1434 0020 032B     		cmp	r3, #3
 1435 0022 01D1     		bne	.L85
 777:Generated_Source\PSoC5/ADC_SigDel.c ****         }
 1436              		.loc 1 777 0
 1437 0024 084B     		ldr	r3, .L87+12
 1438              	.LVL116:
 1439 0026 1B78     		ldrb	r3, [r3]	@ zero_extendqisi2
 1440              	.L85:
 781:Generated_Source\PSoC5/ADC_SigDel.c ****     {
 1441              		.loc 1 781 0
 1442 0028 084B     		ldr	r3, .L87+16
 1443 002a 1B7A     		ldrb	r3, [r3, #8]	@ zero_extendqisi2
 1444 002c 13F0FF0F 		tst	r3, #255
 1445 0030 02D0     		beq	.L86
 783:Generated_Source\PSoC5/ADC_SigDel.c ****     }
 1446              		.loc 1 783 0
 1447 0032 0022     		movs	r2, #0
 1448 0034 054B     		ldr	r3, .L87+16
 1449 0036 5A72     		strb	r2, [r3, #9]
 1450              	.L86:
 787:Generated_Source\PSoC5/ADC_SigDel.c **** 
 1451              		.loc 1 787 0
 1452 0038 00B2     		sxth	r0, r0
 1453 003a 7047     		bx	lr
 1454              	.L88:
 1455              		.align	2
 1456              	.L87:
 1457 003c 144E0040 		.word	1073761812
 1458 0040 104E0040 		.word	1073761808
 1459 0044 114E0040 		.word	1073761809
 1460 0048 124E0040 		.word	1073761810
 1461 004c 00000000 		.word	.LANCHOR0
 1462              		.cfi_endproc
 1463              	.LFE12:
 1464              		.size	ADC_SigDel_GetResult16, .-ADC_SigDel_GetResult16
 1465              		.section	.text.ADC_SigDel_GetResult32,"ax",%progbits
 1466              		.align	2
 1467              		.global	ADC_SigDel_GetResult32
 1468              		.thumb
 1469              		.thumb_func
 1470              		.type	ADC_SigDel_GetResult32, %function
ARM GAS  C:\Users\ANNASP~1\AppData\Local\Temp\ccsUsXsi.s 			page 61


 1471              	ADC_SigDel_GetResult32:
 1472              	.LFB13:
 811:Generated_Source\PSoC5/ADC_SigDel.c ****     uint32 result;
 1473              		.loc 1 811 0
 1474              		.cfi_startproc
 1475              		@ args = 0, pretend = 0, frame = 0
 1476              		@ frame_needed = 0, uses_anonymous_args = 0
 1477              		@ link register save eliminated.
 819:Generated_Source\PSoC5/ADC_SigDel.c **** 
 1478              		.loc 1 819 0
 1479 0000 154B     		ldr	r3, .L94
 1480 0002 1B78     		ldrb	r3, [r3]	@ zero_extendqisi2
 1481 0004 03F00303 		and	r3, r3, #3
 1482              	.LVL117:
 821:Generated_Source\PSoC5/ADC_SigDel.c ****     {   /*  Use default method to read result registers i.e. LSB byte read at the end*/
 1483              		.loc 1 821 0
 1484 0008 012B     		cmp	r3, #1
 1485 000a 07D8     		bhi	.L90
 832:Generated_Source\PSoC5/ADC_SigDel.c ****             result = (result << 16u) | (CY_GET_REG16(ADC_SigDel_DEC_SAMP_16B_PTR));
 1486              		.loc 1 832 0
 1487 000c 134B     		ldr	r3, .L94+4
 1488              	.LVL118:
 1489 000e 1888     		ldrh	r0, [r3]
 1490              	.LVL119:
 833:Generated_Source\PSoC5/ADC_SigDel.c ****         #endif /* CY_PSOC3 */
 1491              		.loc 1 833 0
 1492 0010 023B     		subs	r3, r3, #2
 1493 0012 1B88     		ldrh	r3, [r3]
 1494 0014 9BB2     		uxth	r3, r3
 1495 0016 43EA0040 		orr	r0, r3, r0, lsl #16
 1496              	.LVL120:
 1497 001a 13E0     		b	.L91
 1498              	.LVL121:
 1499              	.L90:
 836:Generated_Source\PSoC5/ADC_SigDel.c ****     {   /* Read middle byte at the end */
 1500              		.loc 1 836 0
 1501 001c 022B     		cmp	r3, #2
 1502 001e 0AD1     		bne	.L92
 846:Generated_Source\PSoC5/ADC_SigDel.c ****             result = (result << 16u) | ADC_SigDel_DEC_SAMP_REG;
 1503              		.loc 1 846 0
 1504 0020 0E4B     		ldr	r3, .L94+4
 1505              	.LVL122:
 1506 0022 1888     		ldrh	r0, [r3]
 1507              	.LVL123:
 847:Generated_Source\PSoC5/ADC_SigDel.c ****             result |=  (uint32)((uint32)ADC_SigDel_DEC_SAMPM_REG << 8u);
 1508              		.loc 1 847 0
 1509 0024 023B     		subs	r3, r3, #2
 1510 0026 1B78     		ldrb	r3, [r3]	@ zero_extendqisi2
 1511 0028 43EA0043 		orr	r3, r3, r0, lsl #16
 1512              	.LVL124:
 848:Generated_Source\PSoC5/ADC_SigDel.c ****         #endif /* CY_PSOC3 */
 1513              		.loc 1 848 0
 1514 002c 0C4A     		ldr	r2, .L94+8
 1515 002e 1078     		ldrb	r0, [r2]	@ zero_extendqisi2
 1516 0030 43EA0020 		orr	r0, r3, r0, lsl #8
 1517              	.LVL125:
 1518 0034 06E0     		b	.L91
ARM GAS  C:\Users\ANNASP~1\AppData\Local\Temp\ccsUsXsi.s 			page 62


 1519              	.LVL126:
 1520              	.L92:
 863:Generated_Source\PSoC5/ADC_SigDel.c ****             result |= (uint32)((uint32)CY_GET_REG16(ADC_SigDel_DEC_SAMPH_16B_PTR) << 16u);
 1521              		.loc 1 863 0
 1522 0036 0B4B     		ldr	r3, .L94+12
 1523              	.LVL127:
 1524 0038 1888     		ldrh	r0, [r3]
 1525 003a 83B2     		uxth	r3, r0
 1526              	.LVL128:
 864:Generated_Source\PSoC5/ADC_SigDel.c ****         #endif /* CY_PSOC3 */
 1527              		.loc 1 864 0
 1528 003c 074A     		ldr	r2, .L94+4
 1529 003e 1088     		ldrh	r0, [r2]
 1530 0040 43EA0040 		orr	r0, r3, r0, lsl #16
 1531              	.LVL129:
 1532              	.L91:
 868:Generated_Source\PSoC5/ADC_SigDel.c ****     {
 1533              		.loc 1 868 0
 1534 0044 084B     		ldr	r3, .L94+16
 1535 0046 1B7A     		ldrb	r3, [r3, #8]	@ zero_extendqisi2
 1536 0048 13F0FF0F 		tst	r3, #255
 1537 004c 02D0     		beq	.L93
 870:Generated_Source\PSoC5/ADC_SigDel.c ****     }
 1538              		.loc 1 870 0
 1539 004e 0022     		movs	r2, #0
 1540 0050 054B     		ldr	r3, .L94+16
 1541 0052 5A72     		strb	r2, [r3, #9]
 1542              	.L93:
 874:Generated_Source\PSoC5/ADC_SigDel.c **** 
 1543              		.loc 1 874 0
 1544 0054 7047     		bx	lr
 1545              	.L95:
 1546 0056 00BF     		.align	2
 1547              	.L94:
 1548 0058 144E0040 		.word	1073761812
 1549 005c 124E0040 		.word	1073761810
 1550 0060 114E0040 		.word	1073761809
 1551 0064 104E0040 		.word	1073761808
 1552 0068 00000000 		.word	.LANCHOR0
 1553              		.cfi_endproc
 1554              	.LFE13:
 1555              		.size	ADC_SigDel_GetResult32, .-ADC_SigDel_GetResult32
 1556              		.section	.text.ADC_SigDel_SetOffset,"ax",%progbits
 1557              		.align	2
 1558              		.global	ADC_SigDel_SetOffset
 1559              		.thumb
 1560              		.thumb_func
 1561              		.type	ADC_SigDel_SetOffset, %function
 1562              	ADC_SigDel_SetOffset:
 1563              	.LFB14:
 904:Generated_Source\PSoC5/ADC_SigDel.c **** 
 1564              		.loc 1 904 0
 1565              		.cfi_startproc
 1566              		@ args = 0, pretend = 0, frame = 0
 1567              		@ frame_needed = 0, uses_anonymous_args = 0
 1568              		@ link register save eliminated.
 1569              	.LVL130:
ARM GAS  C:\Users\ANNASP~1\AppData\Local\Temp\ccsUsXsi.s 			page 63


 906:Generated_Source\PSoC5/ADC_SigDel.c **** }
 1570              		.loc 1 906 0
 1571 0000 014B     		ldr	r3, .L97
 1572 0002 D860     		str	r0, [r3, #12]
 1573 0004 7047     		bx	lr
 1574              	.L98:
 1575 0006 00BF     		.align	2
 1576              	.L97:
 1577 0008 00000000 		.word	.LANCHOR0
 1578              		.cfi_endproc
 1579              	.LFE14:
 1580              		.size	ADC_SigDel_SetOffset, .-ADC_SigDel_SetOffset
 1581              		.section	.text.ADC_SigDel_SetGain,"ax",%progbits
 1582              		.align	2
 1583              		.global	ADC_SigDel_SetGain
 1584              		.thumb
 1585              		.thumb_func
 1586              		.type	ADC_SigDel_SetGain, %function
 1587              	ADC_SigDel_SetGain:
 1588              	.LFB15:
 939:Generated_Source\PSoC5/ADC_SigDel.c ****     ADC_SigDel_CountsPerVolt = adcGain;
 1589              		.loc 1 939 0
 1590              		.cfi_startproc
 1591              		@ args = 0, pretend = 0, frame = 0
 1592              		@ frame_needed = 0, uses_anonymous_args = 0
 1593              		@ link register save eliminated.
 1594              	.LVL131:
 940:Generated_Source\PSoC5/ADC_SigDel.c **** }
 1595              		.loc 1 940 0
 1596 0000 014B     		ldr	r3, .L100
 1597 0002 1860     		str	r0, [r3]
 1598 0004 7047     		bx	lr
 1599              	.L101:
 1600 0006 00BF     		.align	2
 1601              	.L100:
 1602 0008 00000000 		.word	ADC_SigDel_CountsPerVolt
 1603              		.cfi_endproc
 1604              	.LFE15:
 1605              		.size	ADC_SigDel_SetGain, .-ADC_SigDel_SetGain
 1606              		.section	.text.ADC_SigDel_CountsTo_mVolts,"ax",%progbits
 1607              		.align	2
 1608              		.global	ADC_SigDel_CountsTo_mVolts
 1609              		.thumb
 1610              		.thumb_func
 1611              		.type	ADC_SigDel_CountsTo_mVolts, %function
 1612              	ADC_SigDel_CountsTo_mVolts:
 1613              	.LFB16:
 966:Generated_Source\PSoC5/ADC_SigDel.c **** 
 1614              		.loc 1 966 0
 1615              		.cfi_startproc
 1616              		@ args = 0, pretend = 0, frame = 0
 1617              		@ frame_needed = 0, uses_anonymous_args = 0
 1618              		@ link register save eliminated.
 1619              	.LVL132:
 997:Generated_Source\PSoC5/ADC_SigDel.c **** 
 1620              		.loc 1 997 0
 1621 0000 064B     		ldr	r3, .L103
ARM GAS  C:\Users\ANNASP~1\AppData\Local\Temp\ccsUsXsi.s 			page 64


 1622 0002 DB68     		ldr	r3, [r3, #12]
 1623 0004 C01A     		subs	r0, r0, r3
 1624              	.LVL133:
 999:Generated_Source\PSoC5/ADC_SigDel.c **** 
 1625              		.loc 1 999 0
 1626 0006 4FF47A73 		mov	r3, #1000
 1627 000a 03FB00F0 		mul	r0, r3, r0
 1628              	.LVL134:
 1629 000e 044B     		ldr	r3, .L103+4
 1630 0010 1B68     		ldr	r3, [r3]
 1631 0012 90FBF3F0 		sdiv	r0, r0, r3
 1632              	.LVL135:
1002:Generated_Source\PSoC5/ADC_SigDel.c **** 
 1633              		.loc 1 1002 0
 1634 0016 00B2     		sxth	r0, r0
 1635 0018 7047     		bx	lr
 1636              	.L104:
 1637 001a 00BF     		.align	2
 1638              	.L103:
 1639 001c 00000000 		.word	.LANCHOR0
 1640 0020 00000000 		.word	ADC_SigDel_CountsPerVolt
 1641              		.cfi_endproc
 1642              	.LFE16:
 1643              		.size	ADC_SigDel_CountsTo_mVolts, .-ADC_SigDel_CountsTo_mVolts
 1644              		.global	__aeabi_i2f
 1645              		.global	__aeabi_fdiv
 1646              		.section	.text.ADC_SigDel_CountsTo_Volts,"ax",%progbits
 1647              		.align	2
 1648              		.global	ADC_SigDel_CountsTo_Volts
 1649              		.thumb
 1650              		.thumb_func
 1651              		.type	ADC_SigDel_CountsTo_Volts, %function
 1652              	ADC_SigDel_CountsTo_Volts:
 1653              	.LFB17:
1027:Generated_Source\PSoC5/ADC_SigDel.c **** 
 1654              		.loc 1 1027 0
 1655              		.cfi_startproc
 1656              		@ args = 0, pretend = 0, frame = 0
 1657              		@ frame_needed = 0, uses_anonymous_args = 0
 1658              	.LVL136:
 1659 0000 10B5     		push	{r4, lr}
 1660              		.cfi_def_cfa_offset 8
 1661              		.cfi_offset 4, -8
 1662              		.cfi_offset 14, -4
1058:Generated_Source\PSoC5/ADC_SigDel.c **** 
 1663              		.loc 1 1058 0
 1664 0002 074B     		ldr	r3, .L107
 1665 0004 DB68     		ldr	r3, [r3, #12]
 1666              	.LVL137:
1060:Generated_Source\PSoC5/ADC_SigDel.c **** 
 1667              		.loc 1 1060 0
 1668 0006 C01A     		subs	r0, r0, r3
 1669              	.LVL138:
 1670 0008 FFF7FEFF 		bl	__aeabi_i2f
 1671              	.LVL139:
 1672 000c 0446     		mov	r4, r0
 1673 000e 054B     		ldr	r3, .L107+4
ARM GAS  C:\Users\ANNASP~1\AppData\Local\Temp\ccsUsXsi.s 			page 65


 1674 0010 1868     		ldr	r0, [r3]
 1675 0012 FFF7FEFF 		bl	__aeabi_i2f
 1676              	.LVL140:
 1677 0016 0146     		mov	r1, r0
 1678 0018 2046     		mov	r0, r4
 1679 001a FFF7FEFF 		bl	__aeabi_fdiv
 1680              	.LVL141:
1063:Generated_Source\PSoC5/ADC_SigDel.c **** 
 1681              		.loc 1 1063 0
 1682 001e 10BD     		pop	{r4, pc}
 1683              	.L108:
 1684              		.align	2
 1685              	.L107:
 1686 0020 00000000 		.word	.LANCHOR0
 1687 0024 00000000 		.word	ADC_SigDel_CountsPerVolt
 1688              		.cfi_endproc
 1689              	.LFE17:
 1690              		.size	ADC_SigDel_CountsTo_Volts, .-ADC_SigDel_CountsTo_Volts
 1691              		.section	.text.ADC_SigDel_CountsTo_uVolts,"ax",%progbits
 1692              		.align	2
 1693              		.global	ADC_SigDel_CountsTo_uVolts
 1694              		.thumb
 1695              		.thumb_func
 1696              		.type	ADC_SigDel_CountsTo_uVolts, %function
 1697              	ADC_SigDel_CountsTo_uVolts:
 1698              	.LFB18:
1093:Generated_Source\PSoC5/ADC_SigDel.c **** 
 1699              		.loc 1 1093 0
 1700              		.cfi_startproc
 1701              		@ args = 0, pretend = 0, frame = 0
 1702              		@ frame_needed = 0, uses_anonymous_args = 0
 1703              		@ link register save eliminated.
 1704              	.LVL142:
 1705 0000 10B4     		push	{r4}
 1706              		.cfi_def_cfa_offset 4
 1707              		.cfi_offset 4, -4
1102:Generated_Source\PSoC5/ADC_SigDel.c ****     {
 1708              		.loc 1 1102 0
 1709 0002 184B     		ldr	r3, .L119
 1710 0004 1B78     		ldrb	r3, [r3]	@ zero_extendqisi2
 1711 0006 DBB2     		uxtb	r3, r3
 1712 0008 012B     		cmp	r3, #1
 1713 000a 08D0     		beq	.L114
1109:Generated_Source\PSoC5/ADC_SigDel.c ****     {
 1714              		.loc 1 1109 0
 1715 000c 154B     		ldr	r3, .L119
 1716 000e 1B78     		ldrb	r3, [r3]	@ zero_extendqisi2
 1717 0010 DBB2     		uxtb	r3, r3
 1718 0012 022B     		cmp	r3, #2
 1719 0014 05D0     		beq	.L115
1116:Generated_Source\PSoC5/ADC_SigDel.c ****     {
 1720              		.loc 1 1116 0
 1721 0016 134B     		ldr	r3, .L119
 1722 0018 1B78     		ldrb	r3, [r3]	@ zero_extendqisi2
1118:Generated_Source\PSoC5/ADC_SigDel.c ****         #if(ADC_SigDel_CFG3_DEC_DIV != 0)
 1723              		.loc 1 1118 0
 1724 001a 1023     		movs	r3, #16
ARM GAS  C:\Users\ANNASP~1\AppData\Local\Temp\ccsUsXsi.s 			page 66


 1725 001c 02E0     		b	.L110
 1726              	.L114:
1104:Generated_Source\PSoC5/ADC_SigDel.c ****         #if(ADC_SigDel_CFG1_DEC_DIV != 0)
 1727              		.loc 1 1104 0
 1728 001e 0C23     		movs	r3, #12
 1729 0020 00E0     		b	.L110
 1730              	.L115:
1111:Generated_Source\PSoC5/ADC_SigDel.c ****         #if(ADC_SigDel_CFG2_DEC_DIV != 0)
 1731              		.loc 1 1111 0
 1732 0022 0C23     		movs	r3, #12
 1733              	.L110:
 1734              	.LVL143:
1131:Generated_Source\PSoC5/ADC_SigDel.c ****     {
 1735              		.loc 1 1131 0
 1736 0024 0C2B     		cmp	r3, #12
 1737 0026 02D0     		beq	.L112
 1738 0028 102B     		cmp	r3, #16
 1739 002a 06D0     		beq	.L116
 1740 002c 02E0     		b	.L117
 1741              	.L112:
1139:Generated_Source\PSoC5/ADC_SigDel.c ****                 break;
 1742              		.loc 1 1139 0
 1743 002e 0221     		movs	r1, #2
1138:Generated_Source\PSoC5/ADC_SigDel.c ****                 coefB = ADC_SigDel_DIVISOR_2;
 1744              		.loc 1 1138 0
 1745 0030 0D4C     		ldr	r4, .L119+4
 1746 0032 05E0     		b	.L113
 1747              	.L117:
 1748              	.LVL144:
1217:Generated_Source\PSoC5/ADC_SigDel.c ****             break;
 1749              		.loc 1 1217 0
 1750 0034 0121     		movs	r1, #1
1216:Generated_Source\PSoC5/ADC_SigDel.c ****             coefB = ADC_SigDel_DIVISOR_1;
 1751              		.loc 1 1216 0
 1752 0036 0D4C     		ldr	r4, .L119+8
1218:Generated_Source\PSoC5/ADC_SigDel.c ****     }
 1753              		.loc 1 1218 0
 1754 0038 02E0     		b	.L113
 1755              	.LVL145:
 1756              	.L116:
1175:Generated_Source\PSoC5/ADC_SigDel.c ****                 break;
 1757              		.loc 1 1175 0
 1758 003a 2021     		movs	r1, #32
1174:Generated_Source\PSoC5/ADC_SigDel.c ****                 coefB = ADC_SigDel_DIVISOR_32;
 1759              		.loc 1 1174 0
 1760 003c 47F61224 		movw	r4, #31250
 1761              	.L113:
 1762              	.LVL146:
1220:Generated_Source\PSoC5/ADC_SigDel.c ****     uVolts = ((coefA * adcCounts) / coefB) - ((coefA * ADC_SigDel_Offset) / coefB);
 1763              		.loc 1 1220 0
 1764 0040 0B4B     		ldr	r3, .L119+12
 1765              	.LVL147:
 1766 0042 1B68     		ldr	r3, [r3]
 1767 0044 93FBF1F1 		sdiv	r1, r3, r1
 1768              	.LVL148:
1221:Generated_Source\PSoC5/ADC_SigDel.c **** 
 1769              		.loc 1 1221 0
ARM GAS  C:\Users\ANNASP~1\AppData\Local\Temp\ccsUsXsi.s 			page 67


 1770 0048 00FB04F0 		mul	r0, r0, r4
 1771              	.LVL149:
 1772 004c 90FBF1F3 		sdiv	r3, r0, r1
 1773 0050 084A     		ldr	r2, .L119+16
 1774 0052 D268     		ldr	r2, [r2, #12]
 1775 0054 02FB04F2 		mul	r2, r2, r4
 1776 0058 92FBF1F0 		sdiv	r0, r2, r1
 1777              	.LVL150:
1224:Generated_Source\PSoC5/ADC_SigDel.c **** 
 1778              		.loc 1 1224 0
 1779 005c 181A     		subs	r0, r3, r0
 1780              	.LVL151:
 1781 005e 10BC     		pop	{r4}
 1782              		.cfi_restore 4
 1783              		.cfi_def_cfa_offset 0
 1784              	.LVL152:
 1785 0060 7047     		bx	lr
 1786              	.L120:
 1787 0062 00BF     		.align	2
 1788              	.L119:
 1789 0064 00000000 		.word	.LANCHOR1
 1790 0068 20A10700 		.word	500000
 1791 006c 40420F00 		.word	1000000
 1792 0070 00000000 		.word	ADC_SigDel_CountsPerVolt
 1793 0074 00000000 		.word	.LANCHOR0
 1794              		.cfi_endproc
 1795              	.LFE18:
 1796              		.size	ADC_SigDel_CountsTo_uVolts, .-ADC_SigDel_CountsTo_uVolts
 1797              		.section	.text.ADC_SigDel_SelectConfiguration,"ax",%progbits
 1798              		.align	2
 1799              		.global	ADC_SigDel_SelectConfiguration
 1800              		.thumb
 1801              		.thumb_func
 1802              		.type	ADC_SigDel_SelectConfiguration, %function
 1803              	ADC_SigDel_SelectConfiguration:
 1804              	.LFB20:
1562:Generated_Source\PSoC5/ADC_SigDel.c ****     /* Check whether the configuration number is valid or not */
 1805              		.loc 1 1562 0
 1806              		.cfi_startproc
 1807              		@ args = 0, pretend = 0, frame = 0
 1808              		@ frame_needed = 0, uses_anonymous_args = 0
 1809              	.LVL153:
 1810 0000 38B5     		push	{r3, r4, r5, lr}
 1811              		.cfi_def_cfa_offset 16
 1812              		.cfi_offset 3, -16
 1813              		.cfi_offset 4, -12
 1814              		.cfi_offset 5, -8
 1815              		.cfi_offset 14, -4
1564:Generated_Source\PSoC5/ADC_SigDel.c ****     {
 1816              		.loc 1 1564 0
 1817 0002 431E     		subs	r3, r0, #1
 1818 0004 DBB2     		uxtb	r3, r3
 1819 0006 012B     		cmp	r3, #1
 1820 0008 20D8     		bhi	.L122
 1821 000a 0446     		mov	r4, r0
 1822 000c 0D46     		mov	r5, r1
1569:Generated_Source\PSoC5/ADC_SigDel.c ****         {
ARM GAS  C:\Users\ANNASP~1\AppData\Local\Temp\ccsUsXsi.s 			page 68


 1823              		.loc 1 1569 0
 1824 000e 114B     		ldr	r3, .L126
 1825 0010 9B7A     		ldrb	r3, [r3, #10]	@ zero_extendqisi2
 1826 0012 13B9     		cbnz	r3, .L123
1571:Generated_Source\PSoC5/ADC_SigDel.c ****         }
 1827              		.loc 1 1571 0
 1828 0014 0122     		movs	r2, #1
 1829 0016 0F4B     		ldr	r3, .L126
 1830 0018 DA72     		strb	r2, [r3, #11]
 1831              	.L123:
1575:Generated_Source\PSoC5/ADC_SigDel.c **** 
 1832              		.loc 1 1575 0
 1833 001a 0F4B     		ldr	r3, .L126+4
 1834 001c 1C70     		strb	r4, [r3]
1578:Generated_Source\PSoC5/ADC_SigDel.c **** 
 1835              		.loc 1 1578 0
 1836 001e FFF7FEFF 		bl	ADC_SigDel_Stop
 1837              	.LVL154:
1581:Generated_Source\PSoC5/ADC_SigDel.c **** 
 1838              		.loc 1 1581 0
 1839 0022 2046     		mov	r0, r4
 1840 0024 FFF7FEFF 		bl	ADC_SigDel_InitConfig
 1841              	.LVL155:
1584:Generated_Source\PSoC5/ADC_SigDel.c ****         CY_SET_REG16(ADC_SigDel_DEC_GCOR_16B_PTR, ADC_SigDel_gcor[config - 1u].gcor);
 1842              		.loc 1 1584 0
 1843 0028 013C     		subs	r4, r4, #1
 1844 002a 0A4B     		ldr	r3, .L126
 1845 002c 03EB8402 		add	r2, r3, r4, lsl #2
 1846 0030 9178     		ldrb	r1, [r2, #2]	@ zero_extendqisi2
 1847 0032 0A4A     		ldr	r2, .L126+8
 1848 0034 1170     		strb	r1, [r2]
1585:Generated_Source\PSoC5/ADC_SigDel.c **** 
 1849              		.loc 1 1585 0
 1850 0036 33F82420 		ldrh	r2, [r3, r4, lsl #2]
 1851 003a 094B     		ldr	r3, .L126+12
 1852 003c 1A80     		strh	r2, [r3]	@ movhi
1587:Generated_Source\PSoC5/ADC_SigDel.c ****         {
 1853              		.loc 1 1587 0
 1854 003e 012D     		cmp	r5, #1
 1855 0040 07D1     		bne	.L121
1590:Generated_Source\PSoC5/ADC_SigDel.c **** 
 1856              		.loc 1 1590 0
 1857 0042 FFF7FEFF 		bl	ADC_SigDel_Start
 1858              	.LVL156:
1593:Generated_Source\PSoC5/ADC_SigDel.c ****         }
 1859              		.loc 1 1593 0
 1860 0046 FFF7FEFF 		bl	ADC_SigDel_StartConvert
 1861              	.LVL157:
 1862 004a 38BD     		pop	{r3, r4, r5, pc}
 1863              	.LVL158:
 1864              	.L122:
1599:Generated_Source\PSoC5/ADC_SigDel.c ****     }
 1865              		.loc 1 1599 0 discriminator 1
 1866 004c 0020     		movs	r0, #0
 1867              	.LVL159:
 1868 004e FFF7FEFF 		bl	CyHalt
 1869              	.LVL160:
ARM GAS  C:\Users\ANNASP~1\AppData\Local\Temp\ccsUsXsi.s 			page 69


 1870              	.L121:
 1871 0052 38BD     		pop	{r3, r4, r5, pc}
 1872              	.L127:
 1873              		.align	2
 1874              	.L126:
 1875 0054 00000000 		.word	.LANCHOR0
 1876 0058 00000000 		.word	.LANCHOR1
 1877 005c 0E4E0040 		.word	1073761806
 1878 0060 0C4E0040 		.word	1073761804
 1879              		.cfi_endproc
 1880              	.LFE20:
 1881              		.size	ADC_SigDel_SelectConfiguration, .-ADC_SigDel_SelectConfiguration
 1882              		.section	.text.ADC_SigDel_Read8,"ax",%progbits
 1883              		.align	2
 1884              		.global	ADC_SigDel_Read8
 1885              		.thumb
 1886              		.thumb_func
 1887              		.type	ADC_SigDel_Read8, %function
 1888              	ADC_SigDel_Read8:
 1889              	.LFB23:
1749:Generated_Source\PSoC5/ADC_SigDel.c **** }
1750:Generated_Source\PSoC5/ADC_SigDel.c **** 
1751:Generated_Source\PSoC5/ADC_SigDel.c **** 
1752:Generated_Source\PSoC5/ADC_SigDel.c **** /*******************************************************************************
1753:Generated_Source\PSoC5/ADC_SigDel.c **** * Function Name: ADC_SigDel_Read8
1754:Generated_Source\PSoC5/ADC_SigDel.c **** ********************************************************************************
1755:Generated_Source\PSoC5/ADC_SigDel.c **** *
1756:Generated_Source\PSoC5/ADC_SigDel.c **** * Summary:
1757:Generated_Source\PSoC5/ADC_SigDel.c **** *  This function simplifies getting results from the ADC when only a
1758:Generated_Source\PSoC5/ADC_SigDel.c **** *  single reading is required. When called, it will start ADC
1759:Generated_Source\PSoC5/ADC_SigDel.c **** *  conversions, wait for the conversion to be complete, stop ADC
1760:Generated_Source\PSoC5/ADC_SigDel.c **** *  conversion and return the result. This is a blocking function and will
1761:Generated_Source\PSoC5/ADC_SigDel.c **** *  not return until the result is ready.
1762:Generated_Source\PSoC5/ADC_SigDel.c **** *
1763:Generated_Source\PSoC5/ADC_SigDel.c **** * Parameters:
1764:Generated_Source\PSoC5/ADC_SigDel.c **** *  None
1765:Generated_Source\PSoC5/ADC_SigDel.c **** *
1766:Generated_Source\PSoC5/ADC_SigDel.c **** * Return:
1767:Generated_Source\PSoC5/ADC_SigDel.c **** *  int8:  ADC result.
1768:Generated_Source\PSoC5/ADC_SigDel.c **** *
1769:Generated_Source\PSoC5/ADC_SigDel.c **** *******************************************************************************/
1770:Generated_Source\PSoC5/ADC_SigDel.c **** int8 ADC_SigDel_Read8(void) 
1771:Generated_Source\PSoC5/ADC_SigDel.c **** {
 1890              		.loc 1 1771 0
 1891              		.cfi_startproc
 1892              		@ args = 0, pretend = 0, frame = 0
 1893              		@ frame_needed = 0, uses_anonymous_args = 0
 1894 0000 10B5     		push	{r4, lr}
 1895              		.cfi_def_cfa_offset 8
 1896              		.cfi_offset 4, -8
 1897              		.cfi_offset 14, -4
1772:Generated_Source\PSoC5/ADC_SigDel.c ****     int8 result;
1773:Generated_Source\PSoC5/ADC_SigDel.c **** 
1774:Generated_Source\PSoC5/ADC_SigDel.c ****     /* Clear pending conversion done status */
1775:Generated_Source\PSoC5/ADC_SigDel.c ****     ADC_SigDel_DEC_SR_REG |= ADC_SigDel_DEC_INTR_CLEAR;
 1898              		.loc 1 1775 0
 1899 0002 084A     		ldr	r2, .L130
ARM GAS  C:\Users\ANNASP~1\AppData\Local\Temp\ccsUsXsi.s 			page 70


 1900 0004 1378     		ldrb	r3, [r2]	@ zero_extendqisi2
 1901 0006 43F00403 		orr	r3, r3, #4
 1902 000a 1370     		strb	r3, [r2]
1776:Generated_Source\PSoC5/ADC_SigDel.c ****     ADC_SigDel_StartConvert();
 1903              		.loc 1 1776 0
 1904 000c FFF7FEFF 		bl	ADC_SigDel_StartConvert
 1905              	.LVL161:
1777:Generated_Source\PSoC5/ADC_SigDel.c ****     (void)ADC_SigDel_IsEndConversion(ADC_SigDel_WAIT_FOR_RESULT);
 1906              		.loc 1 1777 0
 1907 0010 0020     		movs	r0, #0
 1908 0012 FFF7FEFF 		bl	ADC_SigDel_IsEndConversion
 1909              	.LVL162:
1778:Generated_Source\PSoC5/ADC_SigDel.c ****      result = ADC_SigDel_GetResult8();
 1910              		.loc 1 1778 0
 1911 0016 FFF7FEFF 		bl	ADC_SigDel_GetResult8
 1912              	.LVL163:
 1913 001a 0446     		mov	r4, r0
 1914              	.LVL164:
1779:Generated_Source\PSoC5/ADC_SigDel.c ****     ADC_SigDel_StopConvert();
 1915              		.loc 1 1779 0
 1916 001c FFF7FEFF 		bl	ADC_SigDel_StopConvert
 1917              	.LVL165:
1780:Generated_Source\PSoC5/ADC_SigDel.c ****     
1781:Generated_Source\PSoC5/ADC_SigDel.c ****      return(result);
1782:Generated_Source\PSoC5/ADC_SigDel.c **** }
 1918              		.loc 1 1782 0
 1919 0020 2046     		mov	r0, r4
 1920 0022 10BD     		pop	{r4, pc}
 1921              	.LVL166:
 1922              	.L131:
 1923              		.align	2
 1924              	.L130:
 1925 0024 014E0040 		.word	1073761793
 1926              		.cfi_endproc
 1927              	.LFE23:
 1928              		.size	ADC_SigDel_Read8, .-ADC_SigDel_Read8
 1929              		.section	.text.ADC_SigDel_Read16,"ax",%progbits
 1930              		.align	2
 1931              		.global	ADC_SigDel_Read16
 1932              		.thumb
 1933              		.thumb_func
 1934              		.type	ADC_SigDel_Read16, %function
 1935              	ADC_SigDel_Read16:
 1936              	.LFB24:
1783:Generated_Source\PSoC5/ADC_SigDel.c **** 
1784:Generated_Source\PSoC5/ADC_SigDel.c **** 
1785:Generated_Source\PSoC5/ADC_SigDel.c **** /*******************************************************************************
1786:Generated_Source\PSoC5/ADC_SigDel.c **** * Function Name: ADC_SigDel_Read16
1787:Generated_Source\PSoC5/ADC_SigDel.c **** ********************************************************************************
1788:Generated_Source\PSoC5/ADC_SigDel.c **** *
1789:Generated_Source\PSoC5/ADC_SigDel.c **** * Summary:
1790:Generated_Source\PSoC5/ADC_SigDel.c **** *  This function simplifies getting results from the ADC when only a
1791:Generated_Source\PSoC5/ADC_SigDel.c **** *  single reading is required. When called, it will start ADC
1792:Generated_Source\PSoC5/ADC_SigDel.c **** *  conversions, wait for the conversion to be complete, stop ADC
1793:Generated_Source\PSoC5/ADC_SigDel.c **** *  conversion and return the result. This is a blocking function and will
1794:Generated_Source\PSoC5/ADC_SigDel.c **** *  not return until the result is ready.
1795:Generated_Source\PSoC5/ADC_SigDel.c **** *
ARM GAS  C:\Users\ANNASP~1\AppData\Local\Temp\ccsUsXsi.s 			page 71


1796:Generated_Source\PSoC5/ADC_SigDel.c **** * Parameters:
1797:Generated_Source\PSoC5/ADC_SigDel.c **** *   void
1798:Generated_Source\PSoC5/ADC_SigDel.c **** *
1799:Generated_Source\PSoC5/ADC_SigDel.c **** * Return:
1800:Generated_Source\PSoC5/ADC_SigDel.c **** *  int16:  ADC result.
1801:Generated_Source\PSoC5/ADC_SigDel.c **** *
1802:Generated_Source\PSoC5/ADC_SigDel.c **** *******************************************************************************/
1803:Generated_Source\PSoC5/ADC_SigDel.c **** int16 ADC_SigDel_Read16(void) 
1804:Generated_Source\PSoC5/ADC_SigDel.c **** {
 1937              		.loc 1 1804 0
 1938              		.cfi_startproc
 1939              		@ args = 0, pretend = 0, frame = 0
 1940              		@ frame_needed = 0, uses_anonymous_args = 0
 1941 0000 10B5     		push	{r4, lr}
 1942              		.cfi_def_cfa_offset 8
 1943              		.cfi_offset 4, -8
 1944              		.cfi_offset 14, -4
1805:Generated_Source\PSoC5/ADC_SigDel.c ****     int16 result;
1806:Generated_Source\PSoC5/ADC_SigDel.c **** 
1807:Generated_Source\PSoC5/ADC_SigDel.c ****     /* Clear pending conversion done status */
1808:Generated_Source\PSoC5/ADC_SigDel.c ****     ADC_SigDel_DEC_SR_REG |= ADC_SigDel_DEC_INTR_CLEAR;
 1945              		.loc 1 1808 0
 1946 0002 084A     		ldr	r2, .L134
 1947 0004 1378     		ldrb	r3, [r2]	@ zero_extendqisi2
 1948 0006 43F00403 		orr	r3, r3, #4
 1949 000a 1370     		strb	r3, [r2]
1809:Generated_Source\PSoC5/ADC_SigDel.c ****     ADC_SigDel_StartConvert();
 1950              		.loc 1 1809 0
 1951 000c FFF7FEFF 		bl	ADC_SigDel_StartConvert
 1952              	.LVL167:
1810:Generated_Source\PSoC5/ADC_SigDel.c ****     (void)ADC_SigDel_IsEndConversion(ADC_SigDel_WAIT_FOR_RESULT);
 1953              		.loc 1 1810 0
 1954 0010 0020     		movs	r0, #0
 1955 0012 FFF7FEFF 		bl	ADC_SigDel_IsEndConversion
 1956              	.LVL168:
1811:Generated_Source\PSoC5/ADC_SigDel.c ****      result = ADC_SigDel_GetResult16();
 1957              		.loc 1 1811 0
 1958 0016 FFF7FEFF 		bl	ADC_SigDel_GetResult16
 1959              	.LVL169:
 1960 001a 0446     		mov	r4, r0
 1961              	.LVL170:
1812:Generated_Source\PSoC5/ADC_SigDel.c ****     ADC_SigDel_StopConvert();
 1962              		.loc 1 1812 0
 1963 001c FFF7FEFF 		bl	ADC_SigDel_StopConvert
 1964              	.LVL171:
1813:Generated_Source\PSoC5/ADC_SigDel.c ****     
1814:Generated_Source\PSoC5/ADC_SigDel.c ****      return(result);
1815:Generated_Source\PSoC5/ADC_SigDel.c **** }
 1965              		.loc 1 1815 0
 1966 0020 2046     		mov	r0, r4
 1967 0022 10BD     		pop	{r4, pc}
 1968              	.LVL172:
 1969              	.L135:
 1970              		.align	2
 1971              	.L134:
 1972 0024 014E0040 		.word	1073761793
 1973              		.cfi_endproc
ARM GAS  C:\Users\ANNASP~1\AppData\Local\Temp\ccsUsXsi.s 			page 72


 1974              	.LFE24:
 1975              		.size	ADC_SigDel_Read16, .-ADC_SigDel_Read16
 1976              		.section	.text.ADC_SigDel_Read32,"ax",%progbits
 1977              		.align	2
 1978              		.global	ADC_SigDel_Read32
 1979              		.thumb
 1980              		.thumb_func
 1981              		.type	ADC_SigDel_Read32, %function
 1982              	ADC_SigDel_Read32:
 1983              	.LFB25:
1816:Generated_Source\PSoC5/ADC_SigDel.c **** 
1817:Generated_Source\PSoC5/ADC_SigDel.c **** 
1818:Generated_Source\PSoC5/ADC_SigDel.c **** /*******************************************************************************
1819:Generated_Source\PSoC5/ADC_SigDel.c **** * Function Name: ADC_SigDel_Read32
1820:Generated_Source\PSoC5/ADC_SigDel.c **** ********************************************************************************
1821:Generated_Source\PSoC5/ADC_SigDel.c **** *
1822:Generated_Source\PSoC5/ADC_SigDel.c **** * Summary:
1823:Generated_Source\PSoC5/ADC_SigDel.c **** *  This function simplifies getting results from the ADC when only a
1824:Generated_Source\PSoC5/ADC_SigDel.c **** *  single reading is required. When called, it will start ADC
1825:Generated_Source\PSoC5/ADC_SigDel.c **** *  conversions, wait for the conversion to be complete, stop ADC
1826:Generated_Source\PSoC5/ADC_SigDel.c **** *  conversion and return the result. This is a blocking function and will
1827:Generated_Source\PSoC5/ADC_SigDel.c **** *  not return until the result is ready.
1828:Generated_Source\PSoC5/ADC_SigDel.c **** *
1829:Generated_Source\PSoC5/ADC_SigDel.c **** * Parameters:
1830:Generated_Source\PSoC5/ADC_SigDel.c **** *  None
1831:Generated_Source\PSoC5/ADC_SigDel.c **** *
1832:Generated_Source\PSoC5/ADC_SigDel.c **** * Return:
1833:Generated_Source\PSoC5/ADC_SigDel.c **** *  int32: ADC result.
1834:Generated_Source\PSoC5/ADC_SigDel.c **** *
1835:Generated_Source\PSoC5/ADC_SigDel.c **** *******************************************************************************/
1836:Generated_Source\PSoC5/ADC_SigDel.c **** int32 ADC_SigDel_Read32(void) 
1837:Generated_Source\PSoC5/ADC_SigDel.c **** {
 1984              		.loc 1 1837 0
 1985              		.cfi_startproc
 1986              		@ args = 0, pretend = 0, frame = 0
 1987              		@ frame_needed = 0, uses_anonymous_args = 0
 1988 0000 10B5     		push	{r4, lr}
 1989              		.cfi_def_cfa_offset 8
 1990              		.cfi_offset 4, -8
 1991              		.cfi_offset 14, -4
1838:Generated_Source\PSoC5/ADC_SigDel.c ****     int32 result;
1839:Generated_Source\PSoC5/ADC_SigDel.c ****     
1840:Generated_Source\PSoC5/ADC_SigDel.c ****     /* Clear pending conversion done status */
1841:Generated_Source\PSoC5/ADC_SigDel.c ****     ADC_SigDel_DEC_SR_REG |= ADC_SigDel_DEC_INTR_CLEAR;
 1992              		.loc 1 1841 0
 1993 0002 084A     		ldr	r2, .L138
 1994 0004 1378     		ldrb	r3, [r2]	@ zero_extendqisi2
 1995 0006 43F00403 		orr	r3, r3, #4
 1996 000a 1370     		strb	r3, [r2]
1842:Generated_Source\PSoC5/ADC_SigDel.c ****     ADC_SigDel_StartConvert();
 1997              		.loc 1 1842 0
 1998 000c FFF7FEFF 		bl	ADC_SigDel_StartConvert
 1999              	.LVL173:
1843:Generated_Source\PSoC5/ADC_SigDel.c ****     (void)ADC_SigDel_IsEndConversion(ADC_SigDel_WAIT_FOR_RESULT);
 2000              		.loc 1 1843 0
 2001 0010 0020     		movs	r0, #0
 2002 0012 FFF7FEFF 		bl	ADC_SigDel_IsEndConversion
ARM GAS  C:\Users\ANNASP~1\AppData\Local\Temp\ccsUsXsi.s 			page 73


 2003              	.LVL174:
1844:Generated_Source\PSoC5/ADC_SigDel.c ****      result = ADC_SigDel_GetResult32();
 2004              		.loc 1 1844 0
 2005 0016 FFF7FEFF 		bl	ADC_SigDel_GetResult32
 2006              	.LVL175:
 2007 001a 0446     		mov	r4, r0
 2008              	.LVL176:
1845:Generated_Source\PSoC5/ADC_SigDel.c ****     ADC_SigDel_StopConvert();
 2009              		.loc 1 1845 0
 2010 001c FFF7FEFF 		bl	ADC_SigDel_StopConvert
 2011              	.LVL177:
1846:Generated_Source\PSoC5/ADC_SigDel.c ****     
1847:Generated_Source\PSoC5/ADC_SigDel.c ****      return(result);
1848:Generated_Source\PSoC5/ADC_SigDel.c **** }
 2012              		.loc 1 1848 0
 2013 0020 2046     		mov	r0, r4
 2014 0022 10BD     		pop	{r4, pc}
 2015              	.LVL178:
 2016              	.L139:
 2017              		.align	2
 2018              	.L138:
 2019 0024 014E0040 		.word	1073761793
 2020              		.cfi_endproc
 2021              	.LFE25:
 2022              		.size	ADC_SigDel_Read32, .-ADC_SigDel_Read32
 2023              		.comm	ADC_SigDel_CountsPerVolt,4,4
 2024              		.global	ADC_SigDel_Offset
 2025              		.global	ADC_SigDel_Config
 2026              		.global	ADC_SigDel_started
 2027              		.global	ADC_SigDel_initVar
 2028              		.global	ADC_SigDel_stopConversion
 2029              		.global	ADC_SigDel_convDone
 2030              		.data
 2031              		.set	.LANCHOR1,. + 0
 2032              		.type	ADC_SigDel_Config, %object
 2033              		.size	ADC_SigDel_Config, 1
 2034              	ADC_SigDel_Config:
 2035 0000 01       		.byte	1
 2036              		.bss
 2037              		.align	2
 2038              		.set	.LANCHOR0,. + 0
 2039              		.type	ADC_SigDel_gcor, %object
 2040              		.size	ADC_SigDel_gcor, 8
 2041              	ADC_SigDel_gcor:
 2042 0000 00000000 		.space	8
 2042      00000000 
 2043              		.type	ADC_SigDel_stopConversion, %object
 2044              		.size	ADC_SigDel_stopConversion, 1
 2045              	ADC_SigDel_stopConversion:
 2046 0008 00       		.space	1
 2047              		.type	ADC_SigDel_convDone, %object
 2048              		.size	ADC_SigDel_convDone, 1
 2049              	ADC_SigDel_convDone:
 2050 0009 00       		.space	1
 2051              		.type	ADC_SigDel_initVar, %object
 2052              		.size	ADC_SigDel_initVar, 1
 2053              	ADC_SigDel_initVar:
ARM GAS  C:\Users\ANNASP~1\AppData\Local\Temp\ccsUsXsi.s 			page 74


 2054 000a 00       		.space	1
 2055              		.type	ADC_SigDel_started, %object
 2056              		.size	ADC_SigDel_started, 1
 2057              	ADC_SigDel_started:
 2058 000b 00       		.space	1
 2059              		.type	ADC_SigDel_Offset, %object
 2060              		.size	ADC_SigDel_Offset, 4
 2061              	ADC_SigDel_Offset:
 2062 000c 00000000 		.space	4
 2063              		.text
 2064              	.Letext0:
 2065              		.file 2 "Generated_Source\\PSoC5\\cytypes.h"
 2066              		.file 3 "Generated_Source\\PSoC5\\ADC_SigDel.h"
 2067              		.file 4 "Generated_Source\\PSoC5\\CyLib.h"
 2068              		.file 5 "Generated_Source\\PSoC5\\ADC_SigDel_Ext_CP_Clk.h"
 2069              		.file 6 "Generated_Source\\PSoC5\\ADC_SigDel_theACLK.h"
 2070              		.section	.debug_info,"",%progbits
 2071              	.Ldebug_info0:
 2072 0000 7F0A0000 		.4byte	0xa7f
 2073 0004 0400     		.2byte	0x4
 2074 0006 00000000 		.4byte	.Ldebug_abbrev0
 2075 000a 04       		.byte	0x4
 2076 000b 01       		.uleb128 0x1
 2077 000c 1C050000 		.4byte	.LASF100
 2078 0010 0C       		.byte	0xc
 2079 0011 EC030000 		.4byte	.LASF101
 2080 0015 9C000000 		.4byte	.LASF102
 2081 0019 00000000 		.4byte	.Ldebug_ranges0+0
 2082 001d 00000000 		.4byte	0
 2083 0021 00000000 		.4byte	.Ldebug_line0
 2084 0025 02       		.uleb128 0x2
 2085 0026 04       		.byte	0x4
 2086 0027 04       		.byte	0x4
 2087 0028 81040000 		.4byte	.LASF0
 2088 002c 02       		.uleb128 0x2
 2089 002d 01       		.byte	0x1
 2090 002e 06       		.byte	0x6
 2091 002f 11010000 		.4byte	.LASF1
 2092 0033 02       		.uleb128 0x2
 2093 0034 01       		.byte	0x1
 2094 0035 08       		.byte	0x8
 2095 0036 AB040000 		.4byte	.LASF2
 2096 003a 02       		.uleb128 0x2
 2097 003b 02       		.byte	0x2
 2098 003c 05       		.byte	0x5
 2099 003d DE040000 		.4byte	.LASF3
 2100 0041 02       		.uleb128 0x2
 2101 0042 02       		.byte	0x2
 2102 0043 07       		.byte	0x7
 2103 0044 2A030000 		.4byte	.LASF4
 2104 0048 02       		.uleb128 0x2
 2105 0049 04       		.byte	0x4
 2106 004a 05       		.byte	0x5
 2107 004b 5C010000 		.4byte	.LASF5
 2108 004f 02       		.uleb128 0x2
 2109 0050 04       		.byte	0x4
 2110 0051 07       		.byte	0x7
ARM GAS  C:\Users\ANNASP~1\AppData\Local\Temp\ccsUsXsi.s 			page 75


 2111 0052 C3020000 		.4byte	.LASF6
 2112 0056 02       		.uleb128 0x2
 2113 0057 08       		.byte	0x8
 2114 0058 05       		.byte	0x5
 2115 0059 03010000 		.4byte	.LASF7
 2116 005d 02       		.uleb128 0x2
 2117 005e 08       		.byte	0x8
 2118 005f 07       		.byte	0x7
 2119 0060 75000000 		.4byte	.LASF8
 2120 0064 03       		.uleb128 0x3
 2121 0065 04       		.byte	0x4
 2122 0066 05       		.byte	0x5
 2123 0067 696E7400 		.ascii	"int\000"
 2124 006b 02       		.uleb128 0x2
 2125 006c 04       		.byte	0x4
 2126 006d 07       		.byte	0x7
 2127 006e 6E020000 		.4byte	.LASF9
 2128 0072 04       		.uleb128 0x4
 2129 0073 A9010000 		.4byte	.LASF10
 2130 0077 02       		.byte	0x2
 2131 0078 E901     		.2byte	0x1e9
 2132 007a 33000000 		.4byte	0x33
 2133 007e 04       		.uleb128 0x4
 2134 007f 00000000 		.4byte	.LASF11
 2135 0083 02       		.byte	0x2
 2136 0084 EA01     		.2byte	0x1ea
 2137 0086 41000000 		.4byte	0x41
 2138 008a 04       		.uleb128 0x4
 2139 008b 1E020000 		.4byte	.LASF12
 2140 008f 02       		.byte	0x2
 2141 0090 EB01     		.2byte	0x1eb
 2142 0092 4F000000 		.4byte	0x4f
 2143 0096 04       		.uleb128 0x4
 2144 0097 59030000 		.4byte	.LASF13
 2145 009b 02       		.byte	0x2
 2146 009c EC01     		.2byte	0x1ec
 2147 009e 2C000000 		.4byte	0x2c
 2148 00a2 04       		.uleb128 0x4
 2149 00a3 91060000 		.4byte	.LASF14
 2150 00a7 02       		.byte	0x2
 2151 00a8 ED01     		.2byte	0x1ed
 2152 00aa 3A000000 		.4byte	0x3a
 2153 00ae 04       		.uleb128 0x4
 2154 00af 56010000 		.4byte	.LASF15
 2155 00b3 02       		.byte	0x2
 2156 00b4 EE01     		.2byte	0x1ee
 2157 00b6 48000000 		.4byte	0x48
 2158 00ba 04       		.uleb128 0x4
 2159 00bb B5030000 		.4byte	.LASF16
 2160 00bf 02       		.byte	0x2
 2161 00c0 EF01     		.2byte	0x1ef
 2162 00c2 25000000 		.4byte	0x25
 2163 00c6 02       		.uleb128 0x2
 2164 00c7 08       		.byte	0x8
 2165 00c8 04       		.byte	0x4
 2166 00c9 B9010000 		.4byte	.LASF17
 2167 00cd 02       		.uleb128 0x2
ARM GAS  C:\Users\ANNASP~1\AppData\Local\Temp\ccsUsXsi.s 			page 76


 2168 00ce 01       		.byte	0x1
 2169 00cf 08       		.byte	0x8
 2170 00d0 DC050000 		.4byte	.LASF18
 2171 00d4 04       		.uleb128 0x4
 2172 00d5 87040000 		.4byte	.LASF19
 2173 00d9 02       		.byte	0x2
 2174 00da 9302     		.2byte	0x293
 2175 00dc E0000000 		.4byte	0xe0
 2176 00e0 05       		.uleb128 0x5
 2177 00e1 72000000 		.4byte	0x72
 2178 00e5 04       		.uleb128 0x4
 2179 00e6 91010000 		.4byte	.LASF20
 2180 00ea 02       		.byte	0x2
 2181 00eb 9402     		.2byte	0x294
 2182 00ed F1000000 		.4byte	0xf1
 2183 00f1 05       		.uleb128 0x5
 2184 00f2 7E000000 		.4byte	0x7e
 2185 00f6 04       		.uleb128 0x4
 2186 00f7 AF030000 		.4byte	.LASF21
 2187 00fb 02       		.byte	0x2
 2188 00fc 9502     		.2byte	0x295
 2189 00fe 02010000 		.4byte	0x102
 2190 0102 05       		.uleb128 0x5
 2191 0103 8A000000 		.4byte	0x8a
 2192 0107 02       		.uleb128 0x2
 2193 0108 08       		.byte	0x8
 2194 0109 04       		.byte	0x4
 2195 010a C6030000 		.4byte	.LASF22
 2196 010e 02       		.uleb128 0x2
 2197 010f 04       		.byte	0x4
 2198 0110 07       		.byte	0x7
 2199 0111 BD030000 		.4byte	.LASF23
 2200 0115 06       		.uleb128 0x6
 2201 0116 04       		.byte	0x4
 2202 0117 03       		.byte	0x3
 2203 0118 2F       		.byte	0x2f
 2204 0119 36010000 		.4byte	0x136
 2205 011d 07       		.uleb128 0x7
 2206 011e 70000000 		.4byte	.LASF24
 2207 0122 03       		.byte	0x3
 2208 0123 31       		.byte	0x31
 2209 0124 7E000000 		.4byte	0x7e
 2210 0128 00       		.byte	0
 2211 0129 07       		.uleb128 0x7
 2212 012a EF050000 		.4byte	.LASF25
 2213 012e 03       		.byte	0x3
 2214 012f 32       		.byte	0x32
 2215 0130 72000000 		.4byte	0x72
 2216 0134 02       		.byte	0x2
 2217 0135 00       		.byte	0
 2218 0136 08       		.uleb128 0x8
 2219 0137 5E030000 		.4byte	.LASF26
 2220 013b 03       		.byte	0x3
 2221 013c 33       		.byte	0x33
 2222 013d 15010000 		.4byte	0x115
 2223 0141 09       		.uleb128 0x9
 2224 0142 3D030000 		.4byte	.LASF36
ARM GAS  C:\Users\ANNASP~1\AppData\Local\Temp\ccsUsXsi.s 			page 77


 2225 0146 01       		.byte	0x1
 2226 0147 5906     		.2byte	0x659
 2227 0149 00000000 		.4byte	.LFB21
 2228 014d E0000000 		.4byte	.LFE21-.LFB21
 2229 0151 01       		.uleb128 0x1
 2230 0152 9C       		.byte	0x9c
 2231 0153 F7010000 		.4byte	0x1f7
 2232 0157 0A       		.uleb128 0xa
 2233 0158 4A000000 		.4byte	.LASF27
 2234 015c 01       		.byte	0x1
 2235 015d 5906     		.2byte	0x659
 2236 015f 72000000 		.4byte	0x72
 2237 0163 00000000 		.4byte	.LLST0
 2238 0167 0A       		.uleb128 0xa
 2239 0168 8C040000 		.4byte	.LASF28
 2240 016c 01       		.byte	0x1
 2241 016d 5906     		.2byte	0x659
 2242 016f 7E000000 		.4byte	0x7e
 2243 0173 3A000000 		.4byte	.LLST1
 2244 0177 0A       		.uleb128 0xa
 2245 0178 8C000000 		.4byte	.LASF29
 2246 017c 01       		.byte	0x1
 2247 017d 5906     		.2byte	0x659
 2248 017f 7E000000 		.4byte	0x7e
 2249 0183 74000000 		.4byte	.LLST2
 2250 0187 0A       		.uleb128 0xa
 2251 0188 C5050000 		.4byte	.LASF30
 2252 018c 01       		.byte	0x1
 2253 018d 5A06     		.2byte	0x65a
 2254 018f 72000000 		.4byte	0x72
 2255 0193 AE000000 		.4byte	.LLST3
 2256 0197 0A       		.uleb128 0xa
 2257 0198 E8050000 		.4byte	.LASF31
 2258 019c 01       		.byte	0x1
 2259 019d 5A06     		.2byte	0x65a
 2260 019f 72000000 		.4byte	0x72
 2261 01a3 01010000 		.4byte	.LLST4
 2262 01a7 0B       		.uleb128 0xb
 2263 01a8 A9030000 		.4byte	.LASF32
 2264 01ac 01       		.byte	0x1
 2265 01ad 5C06     		.2byte	0x65c
 2266 01af 96000000 		.4byte	0x96
 2267 01b3 2D010000 		.4byte	.LLST5
 2268 01b7 0B       		.uleb128 0xb
 2269 01b8 99040000 		.4byte	.LASF33
 2270 01bc 01       		.byte	0x1
 2271 01bd 5D06     		.2byte	0x65d
 2272 01bf AE000000 		.4byte	0xae
 2273 01c3 A3010000 		.4byte	.LLST6
 2274 01c7 0B       		.uleb128 0xb
 2275 01c8 75030000 		.4byte	.LASF34
 2276 01cc 01       		.byte	0x1
 2277 01cd 5E06     		.2byte	0x65e
 2278 01cf 7E000000 		.4byte	0x7e
 2279 01d3 B6010000 		.4byte	.LLST7
 2280 01d7 0B       		.uleb128 0xb
 2281 01d8 FB040000 		.4byte	.LASF35
ARM GAS  C:\Users\ANNASP~1\AppData\Local\Temp\ccsUsXsi.s 			page 78


 2282 01dc 01       		.byte	0x1
 2283 01dd 5F06     		.2byte	0x65f
 2284 01df 8A000000 		.4byte	0x8a
 2285 01e3 DF010000 		.4byte	.LLST8
 2286 01e7 0C       		.uleb128 0xc
 2287 01e8 B8000000 		.4byte	.LVL33
 2288 01ec 140A0000 		.4byte	0xa14
 2289 01f0 0D       		.uleb128 0xd
 2290 01f1 01       		.uleb128 0x1
 2291 01f2 50       		.byte	0x50
 2292 01f3 01       		.uleb128 0x1
 2293 01f4 30       		.byte	0x30
 2294 01f5 00       		.byte	0
 2295 01f6 00       		.byte	0
 2296 01f7 09       		.uleb128 0x9
 2297 01f8 AA020000 		.4byte	.LASF37
 2298 01fc 01       		.byte	0x1
 2299 01fd C406     		.2byte	0x6c4
 2300 01ff 00000000 		.4byte	.LFB22
 2301 0203 4C000000 		.4byte	.LFE22-.LFB22
 2302 0207 01       		.uleb128 0x1
 2303 0208 9C       		.byte	0x9c
 2304 0209 5A020000 		.4byte	0x25a
 2305 020d 0A       		.uleb128 0xa
 2306 020e 60020000 		.4byte	.LASF38
 2307 0212 01       		.byte	0x1
 2308 0213 C406     		.2byte	0x6c4
 2309 0215 72000000 		.4byte	0x72
 2310 0219 F2010000 		.4byte	.LLST9
 2311 021d 0B       		.uleb128 0xb
 2312 021e 57060000 		.4byte	.LASF39
 2313 0222 01       		.byte	0x1
 2314 0223 C606     		.2byte	0x6c6
 2315 0225 72000000 		.4byte	0x72
 2316 0229 13020000 		.4byte	.LLST10
 2317 022d 0E       		.uleb128 0xe
 2318 022e 08000000 		.4byte	.LVL36
 2319 0232 1F0A0000 		.4byte	0xa1f
 2320 0236 0F       		.uleb128 0xf
 2321 0237 28000000 		.4byte	.LVL38
 2322 023b 2A0A0000 		.4byte	0xa2a
 2323 023f 49020000 		.4byte	0x249
 2324 0243 0D       		.uleb128 0xd
 2325 0244 01       		.uleb128 0x1
 2326 0245 50       		.byte	0x50
 2327 0246 01       		.uleb128 0x1
 2328 0247 33       		.byte	0x33
 2329 0248 00       		.byte	0
 2330 0249 0C       		.uleb128 0xc
 2331 024a 3E000000 		.4byte	.LVL39
 2332 024e 350A0000 		.4byte	0xa35
 2333 0252 0D       		.uleb128 0xd
 2334 0253 01       		.uleb128 0x1
 2335 0254 50       		.byte	0x50
 2336 0255 02       		.uleb128 0x2
 2337 0256 76       		.byte	0x76
 2338 0257 00       		.sleb128 0
ARM GAS  C:\Users\ANNASP~1\AppData\Local\Temp\ccsUsXsi.s 			page 79


 2339 0258 00       		.byte	0
 2340 0259 00       		.byte	0
 2341 025a 09       		.uleb128 0x9
 2342 025b D5020000 		.4byte	.LASF40
 2343 025f 01       		.byte	0x1
 2344 0260 DF04     		.2byte	0x4df
 2345 0262 00000000 		.4byte	.LFB19
 2346 0266 A4010000 		.4byte	.LFE19-.LFB19
 2347 026a 01       		.uleb128 0x1
 2348 026b 9C       		.byte	0x9c
 2349 026c 2F030000 		.4byte	0x32f
 2350 0270 0A       		.uleb128 0xa
 2351 0271 E8050000 		.4byte	.LASF31
 2352 0275 01       		.byte	0x1
 2353 0276 DF04     		.2byte	0x4df
 2354 0278 72000000 		.4byte	0x72
 2355 027c 26020000 		.4byte	.LLST11
 2356 0280 0F       		.uleb128 0xf
 2357 0281 84000000 		.4byte	.LVL43
 2358 0285 F7010000 		.4byte	0x1f7
 2359 0289 94020000 		.4byte	0x294
 2360 028d 0D       		.uleb128 0xd
 2361 028e 01       		.uleb128 0x1
 2362 028f 50       		.byte	0x50
 2363 0290 02       		.uleb128 0x2
 2364 0291 08       		.byte	0x8
 2365 0292 44       		.byte	0x44
 2366 0293 00       		.byte	0
 2367 0294 0F       		.uleb128 0xf
 2368 0295 B0000000 		.4byte	.LVL44
 2369 0299 400A0000 		.4byte	0xa40
 2370 029d AD020000 		.4byte	0x2ad
 2371 02a1 0D       		.uleb128 0xd
 2372 02a2 01       		.uleb128 0x1
 2373 02a3 50       		.byte	0x50
 2374 02a4 01       		.uleb128 0x1
 2375 02a5 33       		.byte	0x33
 2376 02a6 0D       		.uleb128 0xd
 2377 02a7 01       		.uleb128 0x1
 2378 02a8 51       		.byte	0x51
 2379 02a9 02       		.uleb128 0x2
 2380 02aa 76       		.byte	0x76
 2381 02ab 00       		.sleb128 0
 2382 02ac 00       		.byte	0
 2383 02ad 0F       		.uleb128 0xf
 2384 02ae B8000000 		.4byte	.LVL45
 2385 02b2 4B0A0000 		.4byte	0xa4b
 2386 02b6 C6020000 		.4byte	0x2c6
 2387 02ba 0D       		.uleb128 0xd
 2388 02bb 01       		.uleb128 0x1
 2389 02bc 50       		.byte	0x50
 2390 02bd 01       		.uleb128 0x1
 2391 02be 3E       		.byte	0x3e
 2392 02bf 0D       		.uleb128 0xd
 2393 02c0 01       		.uleb128 0x1
 2394 02c1 51       		.byte	0x51
 2395 02c2 02       		.uleb128 0x2
ARM GAS  C:\Users\ANNASP~1\AppData\Local\Temp\ccsUsXsi.s 			page 80


 2396 02c3 76       		.byte	0x76
 2397 02c4 00       		.sleb128 0
 2398 02c5 00       		.byte	0
 2399 02c6 0F       		.uleb128 0xf
 2400 02c7 C0000000 		.4byte	.LVL46
 2401 02cb 560A0000 		.4byte	0xa56
 2402 02cf D9020000 		.4byte	0x2d9
 2403 02d3 0D       		.uleb128 0xd
 2404 02d4 01       		.uleb128 0x1
 2405 02d5 50       		.byte	0x50
 2406 02d6 01       		.uleb128 0x1
 2407 02d7 4D       		.byte	0x4d
 2408 02d8 00       		.byte	0
 2409 02d9 0F       		.uleb128 0xf
 2410 02da 3C010000 		.4byte	.LVL47
 2411 02de F7010000 		.4byte	0x1f7
 2412 02e2 ED020000 		.4byte	0x2ed
 2413 02e6 0D       		.uleb128 0xd
 2414 02e7 01       		.uleb128 0x1
 2415 02e8 50       		.byte	0x50
 2416 02e9 02       		.uleb128 0x2
 2417 02ea 08       		.byte	0x8
 2418 02eb 44       		.byte	0x44
 2419 02ec 00       		.byte	0
 2420 02ed 0F       		.uleb128 0xf
 2421 02ee 68010000 		.4byte	.LVL48
 2422 02f2 400A0000 		.4byte	0xa40
 2423 02f6 06030000 		.4byte	0x306
 2424 02fa 0D       		.uleb128 0xd
 2425 02fb 01       		.uleb128 0x1
 2426 02fc 50       		.byte	0x50
 2427 02fd 01       		.uleb128 0x1
 2428 02fe 33       		.byte	0x33
 2429 02ff 0D       		.uleb128 0xd
 2430 0300 01       		.uleb128 0x1
 2431 0301 51       		.byte	0x51
 2432 0302 02       		.uleb128 0x2
 2433 0303 75       		.byte	0x75
 2434 0304 00       		.sleb128 0
 2435 0305 00       		.byte	0
 2436 0306 0F       		.uleb128 0xf
 2437 0307 70010000 		.4byte	.LVL49
 2438 030b 4B0A0000 		.4byte	0xa4b
 2439 030f 1F030000 		.4byte	0x31f
 2440 0313 0D       		.uleb128 0xd
 2441 0314 01       		.uleb128 0x1
 2442 0315 50       		.byte	0x50
 2443 0316 01       		.uleb128 0x1
 2444 0317 3E       		.byte	0x3e
 2445 0318 0D       		.uleb128 0xd
 2446 0319 01       		.uleb128 0x1
 2447 031a 51       		.byte	0x51
 2448 031b 02       		.uleb128 0x2
 2449 031c 75       		.byte	0x75
 2450 031d 00       		.sleb128 0
 2451 031e 00       		.byte	0
 2452 031f 0C       		.uleb128 0xc
ARM GAS  C:\Users\ANNASP~1\AppData\Local\Temp\ccsUsXsi.s 			page 81


 2453 0320 78010000 		.4byte	.LVL50
 2454 0324 560A0000 		.4byte	0xa56
 2455 0328 0D       		.uleb128 0xd
 2456 0329 01       		.uleb128 0x1
 2457 032a 50       		.byte	0x50
 2458 032b 01       		.uleb128 0x1
 2459 032c 4D       		.byte	0x4d
 2460 032d 00       		.byte	0
 2461 032e 00       		.byte	0
 2462 032f 10       		.uleb128 0x10
 2463 0330 C6010000 		.4byte	.LASF41
 2464 0334 01       		.byte	0x1
 2465 0335 5B       		.byte	0x5b
 2466 0336 00000000 		.4byte	.LFB0
 2467 033a E4000000 		.4byte	.LFE0-.LFB0
 2468 033e 01       		.uleb128 0x1
 2469 033f 9C       		.byte	0x9c
 2470 0340 E6030000 		.4byte	0x3e6
 2471 0344 0F       		.uleb128 0xf
 2472 0345 1C000000 		.4byte	.LVL51
 2473 0349 610A0000 		.4byte	0xa61
 2474 034d 57030000 		.4byte	0x357
 2475 0351 0D       		.uleb128 0xd
 2476 0352 01       		.uleb128 0x1
 2477 0353 50       		.byte	0x50
 2478 0354 01       		.uleb128 0x1
 2479 0355 40       		.byte	0x40
 2480 0356 00       		.byte	0
 2481 0357 0F       		.uleb128 0xf
 2482 0358 22000000 		.4byte	.LVL52
 2483 035c 6C0A0000 		.4byte	0xa6c
 2484 0360 6A030000 		.4byte	0x36a
 2485 0364 0D       		.uleb128 0xd
 2486 0365 01       		.uleb128 0x1
 2487 0366 50       		.byte	0x50
 2488 0367 01       		.uleb128 0x1
 2489 0368 40       		.byte	0x40
 2490 0369 00       		.byte	0
 2491 036a 0F       		.uleb128 0xf
 2492 036b 2A000000 		.4byte	.LVL53
 2493 036f 770A0000 		.4byte	0xa77
 2494 0373 82030000 		.4byte	0x382
 2495 0377 0D       		.uleb128 0xd
 2496 0378 01       		.uleb128 0x1
 2497 0379 50       		.byte	0x50
 2498 037a 01       		.uleb128 0x1
 2499 037b 4D       		.byte	0x4d
 2500 037c 0D       		.uleb128 0xd
 2501 037d 01       		.uleb128 0x1
 2502 037e 51       		.byte	0x51
 2503 037f 01       		.uleb128 0x1
 2504 0380 37       		.byte	0x37
 2505 0381 00       		.byte	0
 2506 0382 0F       		.uleb128 0xf
 2507 0383 8C000000 		.4byte	.LVL54
 2508 0387 41010000 		.4byte	0x141
 2509 038b AF030000 		.4byte	0x3af
ARM GAS  C:\Users\ANNASP~1\AppData\Local\Temp\ccsUsXsi.s 			page 82


 2510 038f 0D       		.uleb128 0xd
 2511 0390 01       		.uleb128 0x1
 2512 0391 50       		.byte	0x50
 2513 0392 01       		.uleb128 0x1
 2514 0393 35       		.byte	0x35
 2515 0394 0D       		.uleb128 0xd
 2516 0395 01       		.uleb128 0x1
 2517 0396 51       		.byte	0x51
 2518 0397 03       		.uleb128 0x3
 2519 0398 0B       		.byte	0xb
 2520 0399 5C8F     		.2byte	0x8f5c
 2521 039b 0D       		.uleb128 0xd
 2522 039c 01       		.uleb128 0x1
 2523 039d 52       		.byte	0x52
 2524 039e 03       		.uleb128 0x3
 2525 039f 0B       		.byte	0xb
 2526 03a0 0080     		.2byte	0x8000
 2527 03a2 0D       		.uleb128 0xd
 2528 03a3 01       		.uleb128 0x1
 2529 03a4 53       		.byte	0x53
 2530 03a5 01       		.uleb128 0x1
 2531 03a6 3C       		.byte	0x3c
 2532 03a7 0D       		.uleb128 0xd
 2533 03a8 02       		.uleb128 0x2
 2534 03a9 7D       		.byte	0x7d
 2535 03aa 00       		.sleb128 0
 2536 03ab 02       		.uleb128 0x2
 2537 03ac 78       		.byte	0x78
 2538 03ad 00       		.sleb128 0
 2539 03ae 00       		.byte	0
 2540 03af 0F       		.uleb128 0xf
 2541 03b0 A0000000 		.4byte	.LVL55
 2542 03b4 41010000 		.4byte	0x141
 2543 03b8 DC030000 		.4byte	0x3dc
 2544 03bc 0D       		.uleb128 0xd
 2545 03bd 01       		.uleb128 0x1
 2546 03be 50       		.byte	0x50
 2547 03bf 02       		.uleb128 0x2
 2548 03c0 77       		.byte	0x77
 2549 03c1 00       		.sleb128 0
 2550 03c2 0D       		.uleb128 0xd
 2551 03c3 01       		.uleb128 0x1
 2552 03c4 51       		.byte	0x51
 2553 03c5 03       		.uleb128 0x3
 2554 03c6 0B       		.byte	0xb
 2555 03c7 B68D     		.2byte	0x8db6
 2556 03c9 0D       		.uleb128 0xd
 2557 03ca 01       		.uleb128 0x1
 2558 03cb 52       		.byte	0x52
 2559 03cc 03       		.uleb128 0x3
 2560 03cd 0B       		.byte	0xb
 2561 03ce 0080     		.2byte	0x8000
 2562 03d0 0D       		.uleb128 0xd
 2563 03d1 01       		.uleb128 0x1
 2564 03d2 53       		.byte	0x53
 2565 03d3 01       		.uleb128 0x1
 2566 03d4 3C       		.byte	0x3c
ARM GAS  C:\Users\ANNASP~1\AppData\Local\Temp\ccsUsXsi.s 			page 83


 2567 03d5 0D       		.uleb128 0xd
 2568 03d6 02       		.uleb128 0x2
 2569 03d7 7D       		.byte	0x7d
 2570 03d8 00       		.sleb128 0
 2571 03d9 01       		.uleb128 0x1
 2572 03da 32       		.byte	0x32
 2573 03db 00       		.byte	0
 2574 03dc 0E       		.uleb128 0xe
 2575 03dd C0000000 		.4byte	.LVL56
 2576 03e1 5A020000 		.4byte	0x25a
 2577 03e5 00       		.byte	0
 2578 03e6 10       		.uleb128 0x10
 2579 03e7 18030000 		.4byte	.LASF42
 2580 03eb 01       		.byte	0x1
 2581 03ec BA       		.byte	0xba
 2582 03ed 00000000 		.4byte	.LFB1
 2583 03f1 D8000000 		.4byte	.LFE1-.LFB1
 2584 03f5 01       		.uleb128 0x1
 2585 03f6 9C       		.byte	0x9c
 2586 03f7 42040000 		.4byte	0x442
 2587 03fb 11       		.uleb128 0x11
 2588 03fc E8050000 		.4byte	.LASF31
 2589 0400 01       		.byte	0x1
 2590 0401 BC       		.byte	0xbc
 2591 0402 72000000 		.4byte	0x72
 2592 0406 12       		.uleb128 0x12
 2593 0407 57060000 		.4byte	.LASF39
 2594 040b 01       		.byte	0x1
 2595 040c BD       		.byte	0xbd
 2596 040d 72000000 		.4byte	0x72
 2597 0411 47020000 		.4byte	.LLST12
 2598 0415 0E       		.uleb128 0xe
 2599 0416 06000000 		.4byte	.LVL57
 2600 041a 1F0A0000 		.4byte	0xa1f
 2601 041e 0F       		.uleb128 0xf
 2602 041f 54000000 		.4byte	.LVL60
 2603 0423 2A0A0000 		.4byte	0xa2a
 2604 0427 31040000 		.4byte	0x431
 2605 042b 0D       		.uleb128 0xd
 2606 042c 01       		.uleb128 0x1
 2607 042d 50       		.byte	0x50
 2608 042e 01       		.uleb128 0x1
 2609 042f 33       		.byte	0x33
 2610 0430 00       		.byte	0
 2611 0431 0C       		.uleb128 0xc
 2612 0432 B0000000 		.4byte	.LVL61
 2613 0436 350A0000 		.4byte	0xa35
 2614 043a 0D       		.uleb128 0xd
 2615 043b 01       		.uleb128 0x1
 2616 043c 50       		.byte	0x50
 2617 043d 02       		.uleb128 0x2
 2618 043e 76       		.byte	0x76
 2619 043f 00       		.sleb128 0
 2620 0440 00       		.byte	0
 2621 0441 00       		.byte	0
 2622 0442 13       		.uleb128 0x13
 2623 0443 59040000 		.4byte	.LASF43
ARM GAS  C:\Users\ANNASP~1\AppData\Local\Temp\ccsUsXsi.s 			page 84


 2624 0447 01       		.byte	0x1
 2625 0448 4E01     		.2byte	0x14e
 2626 044a 00000000 		.4byte	.LFB2
 2627 044e 28000000 		.4byte	.LFE2-.LFB2
 2628 0452 01       		.uleb128 0x1
 2629 0453 9C       		.byte	0x9c
 2630 0454 6B040000 		.4byte	0x46b
 2631 0458 0E       		.uleb128 0xe
 2632 0459 16000000 		.4byte	.LVL63
 2633 045d 2F030000 		.4byte	0x32f
 2634 0461 0E       		.uleb128 0xe
 2635 0462 20000000 		.4byte	.LVL64
 2636 0466 E6030000 		.4byte	0x3e6
 2637 046a 00       		.byte	0
 2638 046b 13       		.uleb128 0x13
 2639 046c 1C000000 		.4byte	.LASF44
 2640 0470 01       		.byte	0x1
 2641 0471 6F01     		.2byte	0x16f
 2642 0473 00000000 		.4byte	.LFB3
 2643 0477 E4000000 		.4byte	.LFE3-.LFB3
 2644 047b 01       		.uleb128 0x1
 2645 047c 9C       		.byte	0x9c
 2646 047d BE040000 		.4byte	0x4be
 2647 0481 0B       		.uleb128 0xb
 2648 0482 57060000 		.4byte	.LASF39
 2649 0486 01       		.byte	0x1
 2650 0487 7101     		.2byte	0x171
 2651 0489 72000000 		.4byte	0x72
 2652 048d 5A020000 		.4byte	.LLST13
 2653 0491 0E       		.uleb128 0xe
 2654 0492 06000000 		.4byte	.LVL65
 2655 0496 1F0A0000 		.4byte	0xa1f
 2656 049a 0F       		.uleb128 0xf
 2657 049b 4C000000 		.4byte	.LVL67
 2658 049f 2A0A0000 		.4byte	0xa2a
 2659 04a3 AD040000 		.4byte	0x4ad
 2660 04a7 0D       		.uleb128 0xd
 2661 04a8 01       		.uleb128 0x1
 2662 04a9 50       		.byte	0x50
 2663 04aa 01       		.uleb128 0x1
 2664 04ab 33       		.byte	0x33
 2665 04ac 00       		.byte	0
 2666 04ad 0C       		.uleb128 0xc
 2667 04ae CC000000 		.4byte	.LVL68
 2668 04b2 350A0000 		.4byte	0xa35
 2669 04b6 0D       		.uleb128 0xd
 2670 04b7 01       		.uleb128 0x1
 2671 04b8 50       		.byte	0x50
 2672 04b9 02       		.uleb128 0x2
 2673 04ba 76       		.byte	0x76
 2674 04bb 00       		.sleb128 0
 2675 04bc 00       		.byte	0
 2676 04bd 00       		.byte	0
 2677 04be 13       		.uleb128 0x13
 2678 04bf 65010000 		.4byte	.LASF45
 2679 04c3 01       		.byte	0x1
 2680 04c4 B201     		.2byte	0x1b2
ARM GAS  C:\Users\ANNASP~1\AppData\Local\Temp\ccsUsXsi.s 			page 85


 2681 04c6 00000000 		.4byte	.LFB4
 2682 04ca 18000000 		.4byte	.LFE4-.LFB4
 2683 04ce 01       		.uleb128 0x1
 2684 04cf 9C       		.byte	0x9c
 2685 04d0 F5040000 		.4byte	0x4f5
 2686 04d4 0A       		.uleb128 0xa
 2687 04d5 54040000 		.4byte	.LASF46
 2688 04d9 01       		.byte	0x1
 2689 04da B201     		.2byte	0x1b2
 2690 04dc 72000000 		.4byte	0x72
 2691 04e0 6D020000 		.4byte	.LLST14
 2692 04e4 0B       		.uleb128 0xb
 2693 04e5 BC060000 		.4byte	.LASF47
 2694 04e9 01       		.byte	0x1
 2695 04ea B401     		.2byte	0x1b4
 2696 04ec 72000000 		.4byte	0x72
 2697 04f0 8E020000 		.4byte	.LLST15
 2698 04f4 00       		.byte	0
 2699 04f5 13       		.uleb128 0x13
 2700 04f6 92020000 		.4byte	.LASF48
 2701 04fa 01       		.byte	0x1
 2702 04fb D601     		.2byte	0x1d6
 2703 04fd 00000000 		.4byte	.LFB5
 2704 0501 18000000 		.4byte	.LFE5-.LFB5
 2705 0505 01       		.uleb128 0x1
 2706 0506 9C       		.byte	0x9c
 2707 0507 2C050000 		.4byte	0x52c
 2708 050b 0A       		.uleb128 0xa
 2709 050c 39040000 		.4byte	.LASF49
 2710 0510 01       		.byte	0x1
 2711 0511 D601     		.2byte	0x1d6
 2712 0513 72000000 		.4byte	0x72
 2713 0517 AC020000 		.4byte	.LLST16
 2714 051b 0B       		.uleb128 0xb
 2715 051c BC060000 		.4byte	.LASF47
 2716 0520 01       		.byte	0x1
 2717 0521 D801     		.2byte	0x1d8
 2718 0523 72000000 		.4byte	0x72
 2719 0527 CD020000 		.4byte	.LLST17
 2720 052b 00       		.byte	0
 2721 052c 14       		.uleb128 0x14
 2722 052d 1D010000 		.4byte	.LASF53
 2723 0531 01       		.byte	0x1
 2724 0532 FE01     		.2byte	0x1fe
 2725 0534 72000000 		.4byte	0x72
 2726 0538 00000000 		.4byte	.LFB6
 2727 053c 74000000 		.4byte	.LFE6-.LFB6
 2728 0540 01       		.uleb128 0x1
 2729 0541 9C       		.byte	0x9c
 2730 0542 87050000 		.4byte	0x587
 2731 0546 0A       		.uleb128 0xa
 2732 0547 7F060000 		.4byte	.LASF50
 2733 054b 01       		.byte	0x1
 2734 054c FE01     		.2byte	0x1fe
 2735 054e BA000000 		.4byte	0xba
 2736 0552 EB020000 		.4byte	.LLST18
 2737 0556 0B       		.uleb128 0xb
ARM GAS  C:\Users\ANNASP~1\AppData\Local\Temp\ccsUsXsi.s 			page 86


 2738 0557 BC060000 		.4byte	.LASF47
 2739 055b 01       		.byte	0x1
 2740 055c 0002     		.2byte	0x200
 2741 055e 7E000000 		.4byte	0x7e
 2742 0562 19030000 		.4byte	.LLST19
 2743 0566 0B       		.uleb128 0xb
 2744 0567 68060000 		.4byte	.LASF51
 2745 056b 01       		.byte	0x1
 2746 056c 0102     		.2byte	0x201
 2747 056e 72000000 		.4byte	0x72
 2748 0572 51030000 		.4byte	.LLST20
 2749 0576 0B       		.uleb128 0xb
 2750 0577 FC050000 		.4byte	.LASF52
 2751 057b 01       		.byte	0x1
 2752 057c 0202     		.2byte	0x202
 2753 057e BA000000 		.4byte	0xba
 2754 0582 70030000 		.4byte	.LLST21
 2755 0586 00       		.byte	0
 2756 0587 15       		.uleb128 0x15
 2757 0588 CA040000 		.4byte	.LASF54
 2758 058c 01       		.byte	0x1
 2759 058d 2D02     		.2byte	0x22d
 2760 058f 7E000000 		.4byte	0x7e
 2761 0593 00000000 		.4byte	.LFB7
 2762 0597 24000000 		.4byte	.LFE7-.LFB7
 2763 059b 01       		.uleb128 0x1
 2764 059c 9C       		.byte	0x9c
 2765 059d C2050000 		.4byte	0x5c2
 2766 05a1 0B       		.uleb128 0xb
 2767 05a2 E1050000 		.4byte	.LASF55
 2768 05a6 01       		.byte	0x1
 2769 05a7 2F02     		.2byte	0x22f
 2770 05a9 72000000 		.4byte	0x72
 2771 05ad AF030000 		.4byte	.LLST22
 2772 05b1 0B       		.uleb128 0xb
 2773 05b2 75030000 		.4byte	.LASF34
 2774 05b6 01       		.byte	0x1
 2775 05b7 3002     		.2byte	0x230
 2776 05b9 7E000000 		.4byte	0x7e
 2777 05bd C2030000 		.4byte	.LLST23
 2778 05c1 00       		.byte	0
 2779 05c2 16       		.uleb128 0x16
 2780 05c3 CA060000 		.4byte	.LASF56
 2781 05c7 01       		.byte	0x1
 2782 05c8 4F02     		.2byte	0x24f
 2783 05ca 00000000 		.4byte	.LFB8
 2784 05ce 10000000 		.4byte	.LFE8-.LFB8
 2785 05d2 01       		.uleb128 0x1
 2786 05d3 9C       		.byte	0x9c
 2787 05d4 16       		.uleb128 0x16
 2788 05d5 07020000 		.4byte	.LASF57
 2789 05d9 01       		.byte	0x1
 2790 05da 6602     		.2byte	0x266
 2791 05dc 00000000 		.4byte	.LFB9
 2792 05e0 10000000 		.4byte	.LFE9-.LFB9
 2793 05e4 01       		.uleb128 0x1
 2794 05e5 9C       		.byte	0x9c
ARM GAS  C:\Users\ANNASP~1\AppData\Local\Temp\ccsUsXsi.s 			page 87


 2795 05e6 15       		.uleb128 0x15
 2796 05e7 55000000 		.4byte	.LASF58
 2797 05eb 01       		.byte	0x1
 2798 05ec 8902     		.2byte	0x289
 2799 05ee 72000000 		.4byte	0x72
 2800 05f2 00000000 		.4byte	.LFB10
 2801 05f6 30000000 		.4byte	.LFE10-.LFB10
 2802 05fa 01       		.uleb128 0x1
 2803 05fb 9C       		.byte	0x9c
 2804 05fc 21060000 		.4byte	0x621
 2805 0600 0A       		.uleb128 0xa
 2806 0601 66020000 		.4byte	.LASF59
 2807 0605 01       		.byte	0x1
 2808 0606 8902     		.2byte	0x289
 2809 0608 72000000 		.4byte	0x72
 2810 060c E0030000 		.4byte	.LLST24
 2811 0610 0B       		.uleb128 0xb
 2812 0611 68060000 		.4byte	.LASF51
 2813 0615 01       		.byte	0x1
 2814 0616 8B02     		.2byte	0x28b
 2815 0618 72000000 		.4byte	0x72
 2816 061c 01040000 		.4byte	.LLST25
 2817 0620 00       		.byte	0
 2818 0621 15       		.uleb128 0x15
 2819 0622 EB020000 		.4byte	.LASF60
 2820 0626 01       		.byte	0x1
 2821 0627 B802     		.2byte	0x2b8
 2822 0629 96000000 		.4byte	0x96
 2823 062d 00000000 		.4byte	.LFB11
 2824 0631 48000000 		.4byte	.LFE11-.LFB11
 2825 0635 01       		.uleb128 0x1
 2826 0636 9C       		.byte	0x9c
 2827 0637 5A060000 		.4byte	0x65a
 2828 063b 17       		.uleb128 0x17
 2829 063c C3060000 		.4byte	.LASF61
 2830 0640 01       		.byte	0x1
 2831 0641 BA02     		.2byte	0x2ba
 2832 0643 96000000 		.4byte	0x96
 2833 0647 01       		.uleb128 0x1
 2834 0648 50       		.byte	0x50
 2835 0649 0B       		.uleb128 0xb
 2836 064a 39040000 		.4byte	.LASF49
 2837 064e 01       		.byte	0x1
 2838 064f BB02     		.2byte	0x2bb
 2839 0651 72000000 		.4byte	0x72
 2840 0655 1F040000 		.4byte	.LLST26
 2841 0659 00       		.byte	0
 2842 065a 15       		.uleb128 0x15
 2843 065b 7B020000 		.4byte	.LASF62
 2844 065f 01       		.byte	0x1
 2845 0660 EE02     		.2byte	0x2ee
 2846 0662 A2000000 		.4byte	0xa2
 2847 0666 00000000 		.4byte	.LFB12
 2848 066a 50000000 		.4byte	.LFE12-.LFB12
 2849 066e 01       		.uleb128 0x1
 2850 066f 9C       		.byte	0x9c
 2851 0670 95060000 		.4byte	0x695
ARM GAS  C:\Users\ANNASP~1\AppData\Local\Temp\ccsUsXsi.s 			page 88


 2852 0674 0B       		.uleb128 0xb
 2853 0675 C3060000 		.4byte	.LASF61
 2854 0679 01       		.byte	0x1
 2855 067a F002     		.2byte	0x2f0
 2856 067c 7E000000 		.4byte	0x7e
 2857 0680 3D040000 		.4byte	.LLST27
 2858 0684 0B       		.uleb128 0xb
 2859 0685 39040000 		.4byte	.LASF49
 2860 0689 01       		.byte	0x1
 2861 068a F102     		.2byte	0x2f1
 2862 068c 72000000 		.4byte	0x72
 2863 0690 66040000 		.4byte	.LLST28
 2864 0694 00       		.byte	0
 2865 0695 15       		.uleb128 0x15
 2866 0696 6A040000 		.4byte	.LASF63
 2867 069a 01       		.byte	0x1
 2868 069b 2A03     		.2byte	0x32a
 2869 069d AE000000 		.4byte	0xae
 2870 06a1 00000000 		.4byte	.LFB13
 2871 06a5 6C000000 		.4byte	.LFE13-.LFB13
 2872 06a9 01       		.uleb128 0x1
 2873 06aa 9C       		.byte	0x9c
 2874 06ab D0060000 		.4byte	0x6d0
 2875 06af 0B       		.uleb128 0xb
 2876 06b0 C3060000 		.4byte	.LASF61
 2877 06b4 01       		.byte	0x1
 2878 06b5 2C03     		.2byte	0x32c
 2879 06b7 8A000000 		.4byte	0x8a
 2880 06bb 84040000 		.4byte	.LLST29
 2881 06bf 0B       		.uleb128 0xb
 2882 06c0 39040000 		.4byte	.LASF49
 2883 06c4 01       		.byte	0x1
 2884 06c5 2D03     		.2byte	0x32d
 2885 06c7 72000000 		.4byte	0x72
 2886 06cb E5040000 		.4byte	.LLST30
 2887 06cf 00       		.byte	0
 2888 06d0 13       		.uleb128 0x13
 2889 06d1 07000000 		.4byte	.LASF64
 2890 06d5 01       		.byte	0x1
 2891 06d6 8703     		.2byte	0x387
 2892 06d8 00000000 		.4byte	.LFB14
 2893 06dc 0C000000 		.4byte	.LFE14-.LFB14
 2894 06e0 01       		.uleb128 0x1
 2895 06e1 9C       		.byte	0x9c
 2896 06e2 F5060000 		.4byte	0x6f5
 2897 06e6 18       		.uleb128 0x18
 2898 06e7 2B060000 		.4byte	.LASF65
 2899 06eb 01       		.byte	0x1
 2900 06ec 8703     		.2byte	0x387
 2901 06ee AE000000 		.4byte	0xae
 2902 06f2 01       		.uleb128 0x1
 2903 06f3 50       		.byte	0x50
 2904 06f4 00       		.byte	0
 2905 06f5 13       		.uleb128 0x13
 2906 06f6 7E010000 		.4byte	.LASF66
 2907 06fa 01       		.byte	0x1
 2908 06fb AA03     		.2byte	0x3aa
ARM GAS  C:\Users\ANNASP~1\AppData\Local\Temp\ccsUsXsi.s 			page 89


 2909 06fd 00000000 		.4byte	.LFB15
 2910 0701 0C000000 		.4byte	.LFE15-.LFB15
 2911 0705 01       		.uleb128 0x1
 2912 0706 9C       		.byte	0x9c
 2913 0707 1A070000 		.4byte	0x71a
 2914 070b 18       		.uleb128 0x18
 2915 070c 2C000000 		.4byte	.LASF67
 2916 0710 01       		.byte	0x1
 2917 0711 AA03     		.2byte	0x3aa
 2918 0713 AE000000 		.4byte	0xae
 2919 0717 01       		.uleb128 0x1
 2920 0718 50       		.byte	0x50
 2921 0719 00       		.byte	0
 2922 071a 15       		.uleb128 0x15
 2923 071b 32060000 		.4byte	.LASF68
 2924 071f 01       		.byte	0x1
 2925 0720 C503     		.2byte	0x3c5
 2926 0722 A2000000 		.4byte	0xa2
 2927 0726 00000000 		.4byte	.LFB16
 2928 072a 24000000 		.4byte	.LFE16-.LFB16
 2929 072e 01       		.uleb128 0x1
 2930 072f 9C       		.byte	0x9c
 2931 0730 53070000 		.4byte	0x753
 2932 0734 0A       		.uleb128 0xa
 2933 0735 4D060000 		.4byte	.LASF69
 2934 0739 01       		.byte	0x1
 2935 073a C503     		.2byte	0x3c5
 2936 073c AE000000 		.4byte	0xae
 2937 0740 0E050000 		.4byte	.LLST31
 2938 0744 17       		.uleb128 0x17
 2939 0745 A2030000 		.4byte	.LASF70
 2940 0749 01       		.byte	0x1
 2941 074a C803     		.2byte	0x3c8
 2942 074c A2000000 		.4byte	0xa2
 2943 0750 01       		.uleb128 0x1
 2944 0751 50       		.byte	0x50
 2945 0752 00       		.byte	0
 2946 0753 14       		.uleb128 0x14
 2947 0754 46020000 		.4byte	.LASF71
 2948 0758 01       		.byte	0x1
 2949 0759 0204     		.2byte	0x402
 2950 075b BA000000 		.4byte	0xba
 2951 075f 00000000 		.4byte	.LFB17
 2952 0763 28000000 		.4byte	.LFE17-.LFB17
 2953 0767 01       		.uleb128 0x1
 2954 0768 9C       		.byte	0x9c
 2955 0769 8C070000 		.4byte	0x78c
 2956 076d 0A       		.uleb128 0xa
 2957 076e 4D060000 		.4byte	.LASF69
 2958 0772 01       		.byte	0x1
 2959 0773 0204     		.2byte	0x402
 2960 0775 AE000000 		.4byte	0xae
 2961 0779 2C050000 		.4byte	.LLST32
 2962 077d 17       		.uleb128 0x17
 2963 077e C0010000 		.4byte	.LASF72
 2964 0782 01       		.byte	0x1
 2965 0783 0504     		.2byte	0x405
ARM GAS  C:\Users\ANNASP~1\AppData\Local\Temp\ccsUsXsi.s 			page 90


 2966 0785 BA000000 		.4byte	0xba
 2967 0789 01       		.uleb128 0x1
 2968 078a 50       		.byte	0x50
 2969 078b 00       		.byte	0
 2970 078c 15       		.uleb128 0x15
 2971 078d AA050000 		.4byte	.LASF73
 2972 0791 01       		.byte	0x1
 2973 0792 4404     		.2byte	0x444
 2974 0794 AE000000 		.4byte	0xae
 2975 0798 00000000 		.4byte	.LFB18
 2976 079c 78000000 		.4byte	.LFE18-.LFB18
 2977 07a0 01       		.uleb128 0x1
 2978 07a1 9C       		.byte	0x9c
 2979 07a2 F7070000 		.4byte	0x7f7
 2980 07a6 0A       		.uleb128 0xa
 2981 07a7 4D060000 		.4byte	.LASF69
 2982 07ab 01       		.byte	0x1
 2983 07ac 4404     		.2byte	0x444
 2984 07ae AE000000 		.4byte	0xae
 2985 07b2 5A050000 		.4byte	.LLST33
 2986 07b6 0B       		.uleb128 0xb
 2987 07b7 8A060000 		.4byte	.LASF74
 2988 07bb 01       		.byte	0x1
 2989 07bc 4704     		.2byte	0x447
 2990 07be AE000000 		.4byte	0xae
 2991 07c2 7B050000 		.4byte	.LLST34
 2992 07c6 0B       		.uleb128 0xb
 2993 07c7 D0050000 		.4byte	.LASF75
 2994 07cb 01       		.byte	0x1
 2995 07cc 4804     		.2byte	0x448
 2996 07ce AE000000 		.4byte	0xae
 2997 07d2 9E050000 		.4byte	.LLST35
 2998 07d6 0B       		.uleb128 0xb
 2999 07d7 D6050000 		.4byte	.LASF76
 3000 07db 01       		.byte	0x1
 3001 07dc 4904     		.2byte	0x449
 3002 07de AE000000 		.4byte	0xae
 3003 07e2 C1050000 		.4byte	.LLST36
 3004 07e6 0B       		.uleb128 0xb
 3005 07e7 C5050000 		.4byte	.LASF30
 3006 07eb 01       		.byte	0x1
 3007 07ec 4A04     		.2byte	0x44a
 3008 07ee 72000000 		.4byte	0x72
 3009 07f2 E0050000 		.4byte	.LLST37
 3010 07f6 00       		.byte	0
 3011 07f7 13       		.uleb128 0x13
 3012 07f8 D6010000 		.4byte	.LASF77
 3013 07fc 01       		.byte	0x1
 3014 07fd 1806     		.2byte	0x618
 3015 07ff 00000000 		.4byte	.LFB20
 3016 0803 64000000 		.4byte	.LFE20-.LFB20
 3017 0807 01       		.uleb128 0x1
 3018 0808 9C       		.byte	0x9c
 3019 0809 6C080000 		.4byte	0x86c
 3020 080d 0A       		.uleb128 0xa
 3021 080e E8050000 		.4byte	.LASF31
 3022 0812 01       		.byte	0x1
ARM GAS  C:\Users\ANNASP~1\AppData\Local\Temp\ccsUsXsi.s 			page 91


 3023 0813 1806     		.2byte	0x618
 3024 0815 72000000 		.4byte	0x72
 3025 0819 F3050000 		.4byte	.LLST38
 3026 081d 0A       		.uleb128 0xa
 3027 081e F4050000 		.4byte	.LASF78
 3028 0822 01       		.byte	0x1
 3029 0823 1806     		.2byte	0x618
 3030 0825 72000000 		.4byte	0x72
 3031 0829 2D060000 		.4byte	.LLST39
 3032 082d 0E       		.uleb128 0xe
 3033 082e 22000000 		.4byte	.LVL154
 3034 0832 6B040000 		.4byte	0x46b
 3035 0836 0F       		.uleb128 0xf
 3036 0837 28000000 		.4byte	.LVL155
 3037 083b 5A020000 		.4byte	0x25a
 3038 083f 4A080000 		.4byte	0x84a
 3039 0843 0D       		.uleb128 0xd
 3040 0844 01       		.uleb128 0x1
 3041 0845 50       		.byte	0x50
 3042 0846 02       		.uleb128 0x2
 3043 0847 74       		.byte	0x74
 3044 0848 00       		.sleb128 0
 3045 0849 00       		.byte	0
 3046 084a 0E       		.uleb128 0xe
 3047 084b 46000000 		.4byte	.LVL156
 3048 084f 42040000 		.4byte	0x442
 3049 0853 0E       		.uleb128 0xe
 3050 0854 4A000000 		.4byte	.LVL157
 3051 0858 C2050000 		.4byte	0x5c2
 3052 085c 0C       		.uleb128 0xc
 3053 085d 52000000 		.4byte	.LVL160
 3054 0861 140A0000 		.4byte	0xa14
 3055 0865 0D       		.uleb128 0xd
 3056 0866 01       		.uleb128 0x1
 3057 0867 50       		.byte	0x50
 3058 0868 01       		.uleb128 0x1
 3059 0869 30       		.byte	0x30
 3060 086a 00       		.byte	0
 3061 086b 00       		.byte	0
 3062 086c 15       		.uleb128 0x15
 3063 086d B9040000 		.4byte	.LASF79
 3064 0871 01       		.byte	0x1
 3065 0872 EA06     		.2byte	0x6ea
 3066 0874 96000000 		.4byte	0x96
 3067 0878 00000000 		.4byte	.LFB23
 3068 087c 28000000 		.4byte	.LFE23-.LFB23
 3069 0880 01       		.uleb128 0x1
 3070 0881 9C       		.byte	0x9c
 3071 0882 C5080000 		.4byte	0x8c5
 3072 0886 0B       		.uleb128 0xb
 3073 0887 C3060000 		.4byte	.LASF61
 3074 088b 01       		.byte	0x1
 3075 088c EC06     		.2byte	0x6ec
 3076 088e 96000000 		.4byte	0x96
 3077 0892 67060000 		.4byte	.LLST40
 3078 0896 0E       		.uleb128 0xe
 3079 0897 10000000 		.4byte	.LVL161
ARM GAS  C:\Users\ANNASP~1\AppData\Local\Temp\ccsUsXsi.s 			page 92


 3080 089b C2050000 		.4byte	0x5c2
 3081 089f 0F       		.uleb128 0xf
 3082 08a0 16000000 		.4byte	.LVL162
 3083 08a4 E6050000 		.4byte	0x5e6
 3084 08a8 B2080000 		.4byte	0x8b2
 3085 08ac 0D       		.uleb128 0xd
 3086 08ad 01       		.uleb128 0x1
 3087 08ae 50       		.byte	0x50
 3088 08af 01       		.uleb128 0x1
 3089 08b0 30       		.byte	0x30
 3090 08b1 00       		.byte	0
 3091 08b2 0E       		.uleb128 0xe
 3092 08b3 1A000000 		.4byte	.LVL163
 3093 08b7 21060000 		.4byte	0x621
 3094 08bb 0E       		.uleb128 0xe
 3095 08bc 20000000 		.4byte	.LVL165
 3096 08c0 D4050000 		.4byte	0x5d4
 3097 08c4 00       		.byte	0
 3098 08c5 15       		.uleb128 0x15
 3099 08c6 34020000 		.4byte	.LASF80
 3100 08ca 01       		.byte	0x1
 3101 08cb 0B07     		.2byte	0x70b
 3102 08cd A2000000 		.4byte	0xa2
 3103 08d1 00000000 		.4byte	.LFB24
 3104 08d5 28000000 		.4byte	.LFE24-.LFB24
 3105 08d9 01       		.uleb128 0x1
 3106 08da 9C       		.byte	0x9c
 3107 08db 1E090000 		.4byte	0x91e
 3108 08df 0B       		.uleb128 0xb
 3109 08e0 C3060000 		.4byte	.LASF61
 3110 08e4 01       		.byte	0x1
 3111 08e5 0D07     		.2byte	0x70d
 3112 08e7 A2000000 		.4byte	0xa2
 3113 08eb 7A060000 		.4byte	.LLST41
 3114 08ef 0E       		.uleb128 0xe
 3115 08f0 10000000 		.4byte	.LVL167
 3116 08f4 C2050000 		.4byte	0x5c2
 3117 08f8 0F       		.uleb128 0xf
 3118 08f9 16000000 		.4byte	.LVL168
 3119 08fd E6050000 		.4byte	0x5e6
 3120 0901 0B090000 		.4byte	0x90b
 3121 0905 0D       		.uleb128 0xd
 3122 0906 01       		.uleb128 0x1
 3123 0907 50       		.byte	0x50
 3124 0908 01       		.uleb128 0x1
 3125 0909 30       		.byte	0x30
 3126 090a 00       		.byte	0
 3127 090b 0E       		.uleb128 0xe
 3128 090c 1A000000 		.4byte	.LVL169
 3129 0910 5A060000 		.4byte	0x65a
 3130 0914 0E       		.uleb128 0xe
 3131 0915 20000000 		.4byte	.LVL171
 3132 0919 D4050000 		.4byte	0x5d4
 3133 091d 00       		.byte	0
 3134 091e 15       		.uleb128 0x15
 3135 091f F5010000 		.4byte	.LASF81
 3136 0923 01       		.byte	0x1
ARM GAS  C:\Users\ANNASP~1\AppData\Local\Temp\ccsUsXsi.s 			page 93


 3137 0924 2C07     		.2byte	0x72c
 3138 0926 AE000000 		.4byte	0xae
 3139 092a 00000000 		.4byte	.LFB25
 3140 092e 28000000 		.4byte	.LFE25-.LFB25
 3141 0932 01       		.uleb128 0x1
 3142 0933 9C       		.byte	0x9c
 3143 0934 77090000 		.4byte	0x977
 3144 0938 0B       		.uleb128 0xb
 3145 0939 C3060000 		.4byte	.LASF61
 3146 093d 01       		.byte	0x1
 3147 093e 2E07     		.2byte	0x72e
 3148 0940 AE000000 		.4byte	0xae
 3149 0944 8D060000 		.4byte	.LLST42
 3150 0948 0E       		.uleb128 0xe
 3151 0949 10000000 		.4byte	.LVL173
 3152 094d C2050000 		.4byte	0x5c2
 3153 0951 0F       		.uleb128 0xf
 3154 0952 16000000 		.4byte	.LVL174
 3155 0956 E6050000 		.4byte	0x5e6
 3156 095a 64090000 		.4byte	0x964
 3157 095e 0D       		.uleb128 0xd
 3158 095f 01       		.uleb128 0x1
 3159 0960 50       		.byte	0x50
 3160 0961 01       		.uleb128 0x1
 3161 0962 30       		.byte	0x30
 3162 0963 00       		.byte	0
 3163 0964 0E       		.uleb128 0xe
 3164 0965 1A000000 		.4byte	.LVL175
 3165 0969 95060000 		.4byte	0x695
 3166 096d 0E       		.uleb128 0xe
 3167 096e 20000000 		.4byte	.LVL177
 3168 0972 D4050000 		.4byte	0x5d4
 3169 0976 00       		.byte	0
 3170 0977 19       		.uleb128 0x19
 3171 0978 36010000 		.4byte	0x136
 3172 097c 87090000 		.4byte	0x987
 3173 0980 1A       		.uleb128 0x1a
 3174 0981 0E010000 		.4byte	0x10e
 3175 0985 01       		.byte	0x1
 3176 0986 00       		.byte	0
 3177 0987 1B       		.uleb128 0x1b
 3178 0988 6F060000 		.4byte	.LASF82
 3179 098c 01       		.byte	0x1
 3180 098d 3D       		.byte	0x3d
 3181 098e 77090000 		.4byte	0x977
 3182 0992 05       		.uleb128 0x5
 3183 0993 03       		.byte	0x3
 3184 0994 00000000 		.4byte	ADC_SigDel_gcor
 3185 0998 1C       		.uleb128 0x1c
 3186 0999 97060000 		.4byte	.LASF83
 3187 099d 01       		.byte	0x1
 3188 099e 2C       		.byte	0x2c
 3189 099f 72000000 		.4byte	0x72
 3190 09a3 05       		.uleb128 0x5
 3191 09a4 03       		.byte	0x3
 3192 09a5 00000000 		.4byte	ADC_SigDel_initVar
 3193 09a9 1C       		.uleb128 0x1c
ARM GAS  C:\Users\ANNASP~1\AppData\Local\Temp\ccsUsXsi.s 			page 94


 3194 09aa EF000000 		.4byte	.LASF84
 3195 09ae 01       		.byte	0x1
 3196 09af 24       		.byte	0x24
 3197 09b0 E0000000 		.4byte	0xe0
 3198 09b4 05       		.uleb128 0x5
 3199 09b5 03       		.byte	0x3
 3200 09b6 00000000 		.4byte	ADC_SigDel_convDone
 3201 09ba 1C       		.uleb128 0x1c
 3202 09bb D2030000 		.4byte	.LASF85
 3203 09bf 01       		.byte	0x1
 3204 09c0 29       		.byte	0x29
 3205 09c1 E0000000 		.4byte	0xe0
 3206 09c5 05       		.uleb128 0x5
 3207 09c6 03       		.byte	0x3
 3208 09c7 00000000 		.4byte	ADC_SigDel_stopConversion
 3209 09cb 1C       		.uleb128 0x1c
 3210 09cc E8040000 		.4byte	.LASF86
 3211 09d0 01       		.byte	0x1
 3212 09d1 2F       		.byte	0x2f
 3213 09d2 E0000000 		.4byte	0xe0
 3214 09d6 05       		.uleb128 0x5
 3215 09d7 03       		.byte	0x3
 3216 09d8 00000000 		.4byte	ADC_SigDel_started
 3217 09dc 1C       		.uleb128 0x1c
 3218 09dd 97010000 		.4byte	.LASF87
 3219 09e1 01       		.byte	0x1
 3220 09e2 32       		.byte	0x32
 3221 09e3 E0000000 		.4byte	0xe0
 3222 09e7 05       		.uleb128 0x5
 3223 09e8 03       		.byte	0x3
 3224 09e9 00000000 		.4byte	ADC_SigDel_Config
 3225 09ed 1C       		.uleb128 0x1c
 3226 09ee AA060000 		.4byte	.LASF88
 3227 09f2 01       		.byte	0x1
 3228 09f3 34       		.byte	0x34
 3229 09f4 FE090000 		.4byte	0x9fe
 3230 09f8 05       		.uleb128 0x5
 3231 09f9 03       		.byte	0x3
 3232 09fa 00000000 		.4byte	ADC_SigDel_Offset
 3233 09fe 05       		.uleb128 0x5
 3234 09ff AE000000 		.4byte	0xae
 3235 0a03 1C       		.uleb128 0x1c
 3236 0a04 03050000 		.4byte	.LASF89
 3237 0a08 01       		.byte	0x1
 3238 0a09 35       		.byte	0x35
 3239 0a0a FE090000 		.4byte	0x9fe
 3240 0a0e 05       		.uleb128 0x5
 3241 0a0f 03       		.byte	0x3
 3242 0a10 00000000 		.4byte	ADC_SigDel_CountsPerVolt
 3243 0a14 1D       		.uleb128 0x1d
 3244 0a15 A4040000 		.4byte	.LASF90
 3245 0a19 A4040000 		.4byte	.LASF90
 3246 0a1d 04       		.byte	0x4
 3247 0a1e 7F       		.byte	0x7f
 3248 0a1f 1D       		.uleb128 0x1d
 3249 0a20 01030000 		.4byte	.LASF91
 3250 0a24 01030000 		.4byte	.LASF91
ARM GAS  C:\Users\ANNASP~1\AppData\Local\Temp\ccsUsXsi.s 			page 95


 3251 0a28 04       		.byte	0x4
 3252 0a29 7D       		.byte	0x7d
 3253 0a2a 1D       		.uleb128 0x1d
 3254 0a2b AF010000 		.4byte	.LASF92
 3255 0a2f AF010000 		.4byte	.LASF92
 3256 0a33 04       		.byte	0x4
 3257 0a34 77       		.byte	0x77
 3258 0a35 1D       		.uleb128 0x1d
 3259 0a36 34000000 		.4byte	.LASF93
 3260 0a3a 34000000 		.4byte	.LASF93
 3261 0a3e 04       		.byte	0x4
 3262 0a3f 7E       		.byte	0x7e
 3263 0a40 1D       		.uleb128 0x1d
 3264 0a41 10040000 		.4byte	.LASF94
 3265 0a45 10040000 		.4byte	.LASF94
 3266 0a49 05       		.byte	0x5
 3267 0a4a 2F       		.byte	0x2f
 3268 0a4b 1D       		.uleb128 0x1d
 3269 0a4c 05060000 		.4byte	.LASF95
 3270 0a50 05060000 		.4byte	.LASF95
 3271 0a54 06       		.byte	0x6
 3272 0a55 2F       		.byte	0x2f
 3273 0a56 1D       		.uleb128 0x1d
 3274 0a57 25020000 		.4byte	.LASF96
 3275 0a5b 25020000 		.4byte	.LASF96
 3276 0a5f 04       		.byte	0x4
 3277 0a60 88       		.byte	0x88
 3278 0a61 1D       		.uleb128 0x1d
 3279 0a62 30010000 		.4byte	.LASF97
 3280 0a66 30010000 		.4byte	.LASF97
 3281 0a6a 05       		.byte	0x5
 3282 0a6b 32       		.byte	0x32
 3283 0a6c 1D       		.uleb128 0x1d
 3284 0a6d 7F030000 		.4byte	.LASF98
 3285 0a71 7F030000 		.4byte	.LASF98
 3286 0a75 06       		.byte	0x6
 3287 0a76 32       		.byte	0x32
 3288 0a77 1D       		.uleb128 0x1d
 3289 0a78 43040000 		.4byte	.LASF99
 3290 0a7c 43040000 		.4byte	.LASF99
 3291 0a80 04       		.byte	0x4
 3292 0a81 8B       		.byte	0x8b
 3293 0a82 00       		.byte	0
 3294              		.section	.debug_abbrev,"",%progbits
 3295              	.Ldebug_abbrev0:
 3296 0000 01       		.uleb128 0x1
 3297 0001 11       		.uleb128 0x11
 3298 0002 01       		.byte	0x1
 3299 0003 25       		.uleb128 0x25
 3300 0004 0E       		.uleb128 0xe
 3301 0005 13       		.uleb128 0x13
 3302 0006 0B       		.uleb128 0xb
 3303 0007 03       		.uleb128 0x3
 3304 0008 0E       		.uleb128 0xe
 3305 0009 1B       		.uleb128 0x1b
 3306 000a 0E       		.uleb128 0xe
 3307 000b 55       		.uleb128 0x55
ARM GAS  C:\Users\ANNASP~1\AppData\Local\Temp\ccsUsXsi.s 			page 96


 3308 000c 17       		.uleb128 0x17
 3309 000d 11       		.uleb128 0x11
 3310 000e 01       		.uleb128 0x1
 3311 000f 10       		.uleb128 0x10
 3312 0010 17       		.uleb128 0x17
 3313 0011 00       		.byte	0
 3314 0012 00       		.byte	0
 3315 0013 02       		.uleb128 0x2
 3316 0014 24       		.uleb128 0x24
 3317 0015 00       		.byte	0
 3318 0016 0B       		.uleb128 0xb
 3319 0017 0B       		.uleb128 0xb
 3320 0018 3E       		.uleb128 0x3e
 3321 0019 0B       		.uleb128 0xb
 3322 001a 03       		.uleb128 0x3
 3323 001b 0E       		.uleb128 0xe
 3324 001c 00       		.byte	0
 3325 001d 00       		.byte	0
 3326 001e 03       		.uleb128 0x3
 3327 001f 24       		.uleb128 0x24
 3328 0020 00       		.byte	0
 3329 0021 0B       		.uleb128 0xb
 3330 0022 0B       		.uleb128 0xb
 3331 0023 3E       		.uleb128 0x3e
 3332 0024 0B       		.uleb128 0xb
 3333 0025 03       		.uleb128 0x3
 3334 0026 08       		.uleb128 0x8
 3335 0027 00       		.byte	0
 3336 0028 00       		.byte	0
 3337 0029 04       		.uleb128 0x4
 3338 002a 16       		.uleb128 0x16
 3339 002b 00       		.byte	0
 3340 002c 03       		.uleb128 0x3
 3341 002d 0E       		.uleb128 0xe
 3342 002e 3A       		.uleb128 0x3a
 3343 002f 0B       		.uleb128 0xb
 3344 0030 3B       		.uleb128 0x3b
 3345 0031 05       		.uleb128 0x5
 3346 0032 49       		.uleb128 0x49
 3347 0033 13       		.uleb128 0x13
 3348 0034 00       		.byte	0
 3349 0035 00       		.byte	0
 3350 0036 05       		.uleb128 0x5
 3351 0037 35       		.uleb128 0x35
 3352 0038 00       		.byte	0
 3353 0039 49       		.uleb128 0x49
 3354 003a 13       		.uleb128 0x13
 3355 003b 00       		.byte	0
 3356 003c 00       		.byte	0
 3357 003d 06       		.uleb128 0x6
 3358 003e 13       		.uleb128 0x13
 3359 003f 01       		.byte	0x1
 3360 0040 0B       		.uleb128 0xb
 3361 0041 0B       		.uleb128 0xb
 3362 0042 3A       		.uleb128 0x3a
 3363 0043 0B       		.uleb128 0xb
 3364 0044 3B       		.uleb128 0x3b
ARM GAS  C:\Users\ANNASP~1\AppData\Local\Temp\ccsUsXsi.s 			page 97


 3365 0045 0B       		.uleb128 0xb
 3366 0046 01       		.uleb128 0x1
 3367 0047 13       		.uleb128 0x13
 3368 0048 00       		.byte	0
 3369 0049 00       		.byte	0
 3370 004a 07       		.uleb128 0x7
 3371 004b 0D       		.uleb128 0xd
 3372 004c 00       		.byte	0
 3373 004d 03       		.uleb128 0x3
 3374 004e 0E       		.uleb128 0xe
 3375 004f 3A       		.uleb128 0x3a
 3376 0050 0B       		.uleb128 0xb
 3377 0051 3B       		.uleb128 0x3b
 3378 0052 0B       		.uleb128 0xb
 3379 0053 49       		.uleb128 0x49
 3380 0054 13       		.uleb128 0x13
 3381 0055 38       		.uleb128 0x38
 3382 0056 0B       		.uleb128 0xb
 3383 0057 00       		.byte	0
 3384 0058 00       		.byte	0
 3385 0059 08       		.uleb128 0x8
 3386 005a 16       		.uleb128 0x16
 3387 005b 00       		.byte	0
 3388 005c 03       		.uleb128 0x3
 3389 005d 0E       		.uleb128 0xe
 3390 005e 3A       		.uleb128 0x3a
 3391 005f 0B       		.uleb128 0xb
 3392 0060 3B       		.uleb128 0x3b
 3393 0061 0B       		.uleb128 0xb
 3394 0062 49       		.uleb128 0x49
 3395 0063 13       		.uleb128 0x13
 3396 0064 00       		.byte	0
 3397 0065 00       		.byte	0
 3398 0066 09       		.uleb128 0x9
 3399 0067 2E       		.uleb128 0x2e
 3400 0068 01       		.byte	0x1
 3401 0069 03       		.uleb128 0x3
 3402 006a 0E       		.uleb128 0xe
 3403 006b 3A       		.uleb128 0x3a
 3404 006c 0B       		.uleb128 0xb
 3405 006d 3B       		.uleb128 0x3b
 3406 006e 05       		.uleb128 0x5
 3407 006f 27       		.uleb128 0x27
 3408 0070 19       		.uleb128 0x19
 3409 0071 11       		.uleb128 0x11
 3410 0072 01       		.uleb128 0x1
 3411 0073 12       		.uleb128 0x12
 3412 0074 06       		.uleb128 0x6
 3413 0075 40       		.uleb128 0x40
 3414 0076 18       		.uleb128 0x18
 3415 0077 9742     		.uleb128 0x2117
 3416 0079 19       		.uleb128 0x19
 3417 007a 01       		.uleb128 0x1
 3418 007b 13       		.uleb128 0x13
 3419 007c 00       		.byte	0
 3420 007d 00       		.byte	0
 3421 007e 0A       		.uleb128 0xa
ARM GAS  C:\Users\ANNASP~1\AppData\Local\Temp\ccsUsXsi.s 			page 98


 3422 007f 05       		.uleb128 0x5
 3423 0080 00       		.byte	0
 3424 0081 03       		.uleb128 0x3
 3425 0082 0E       		.uleb128 0xe
 3426 0083 3A       		.uleb128 0x3a
 3427 0084 0B       		.uleb128 0xb
 3428 0085 3B       		.uleb128 0x3b
 3429 0086 05       		.uleb128 0x5
 3430 0087 49       		.uleb128 0x49
 3431 0088 13       		.uleb128 0x13
 3432 0089 02       		.uleb128 0x2
 3433 008a 17       		.uleb128 0x17
 3434 008b 00       		.byte	0
 3435 008c 00       		.byte	0
 3436 008d 0B       		.uleb128 0xb
 3437 008e 34       		.uleb128 0x34
 3438 008f 00       		.byte	0
 3439 0090 03       		.uleb128 0x3
 3440 0091 0E       		.uleb128 0xe
 3441 0092 3A       		.uleb128 0x3a
 3442 0093 0B       		.uleb128 0xb
 3443 0094 3B       		.uleb128 0x3b
 3444 0095 05       		.uleb128 0x5
 3445 0096 49       		.uleb128 0x49
 3446 0097 13       		.uleb128 0x13
 3447 0098 02       		.uleb128 0x2
 3448 0099 17       		.uleb128 0x17
 3449 009a 00       		.byte	0
 3450 009b 00       		.byte	0
 3451 009c 0C       		.uleb128 0xc
 3452 009d 898201   		.uleb128 0x4109
 3453 00a0 01       		.byte	0x1
 3454 00a1 11       		.uleb128 0x11
 3455 00a2 01       		.uleb128 0x1
 3456 00a3 31       		.uleb128 0x31
 3457 00a4 13       		.uleb128 0x13
 3458 00a5 00       		.byte	0
 3459 00a6 00       		.byte	0
 3460 00a7 0D       		.uleb128 0xd
 3461 00a8 8A8201   		.uleb128 0x410a
 3462 00ab 00       		.byte	0
 3463 00ac 02       		.uleb128 0x2
 3464 00ad 18       		.uleb128 0x18
 3465 00ae 9142     		.uleb128 0x2111
 3466 00b0 18       		.uleb128 0x18
 3467 00b1 00       		.byte	0
 3468 00b2 00       		.byte	0
 3469 00b3 0E       		.uleb128 0xe
 3470 00b4 898201   		.uleb128 0x4109
 3471 00b7 00       		.byte	0
 3472 00b8 11       		.uleb128 0x11
 3473 00b9 01       		.uleb128 0x1
 3474 00ba 31       		.uleb128 0x31
 3475 00bb 13       		.uleb128 0x13
 3476 00bc 00       		.byte	0
 3477 00bd 00       		.byte	0
 3478 00be 0F       		.uleb128 0xf
ARM GAS  C:\Users\ANNASP~1\AppData\Local\Temp\ccsUsXsi.s 			page 99


 3479 00bf 898201   		.uleb128 0x4109
 3480 00c2 01       		.byte	0x1
 3481 00c3 11       		.uleb128 0x11
 3482 00c4 01       		.uleb128 0x1
 3483 00c5 31       		.uleb128 0x31
 3484 00c6 13       		.uleb128 0x13
 3485 00c7 01       		.uleb128 0x1
 3486 00c8 13       		.uleb128 0x13
 3487 00c9 00       		.byte	0
 3488 00ca 00       		.byte	0
 3489 00cb 10       		.uleb128 0x10
 3490 00cc 2E       		.uleb128 0x2e
 3491 00cd 01       		.byte	0x1
 3492 00ce 3F       		.uleb128 0x3f
 3493 00cf 19       		.uleb128 0x19
 3494 00d0 03       		.uleb128 0x3
 3495 00d1 0E       		.uleb128 0xe
 3496 00d2 3A       		.uleb128 0x3a
 3497 00d3 0B       		.uleb128 0xb
 3498 00d4 3B       		.uleb128 0x3b
 3499 00d5 0B       		.uleb128 0xb
 3500 00d6 27       		.uleb128 0x27
 3501 00d7 19       		.uleb128 0x19
 3502 00d8 11       		.uleb128 0x11
 3503 00d9 01       		.uleb128 0x1
 3504 00da 12       		.uleb128 0x12
 3505 00db 06       		.uleb128 0x6
 3506 00dc 40       		.uleb128 0x40
 3507 00dd 18       		.uleb128 0x18
 3508 00de 9742     		.uleb128 0x2117
 3509 00e0 19       		.uleb128 0x19
 3510 00e1 01       		.uleb128 0x1
 3511 00e2 13       		.uleb128 0x13
 3512 00e3 00       		.byte	0
 3513 00e4 00       		.byte	0
 3514 00e5 11       		.uleb128 0x11
 3515 00e6 34       		.uleb128 0x34
 3516 00e7 00       		.byte	0
 3517 00e8 03       		.uleb128 0x3
 3518 00e9 0E       		.uleb128 0xe
 3519 00ea 3A       		.uleb128 0x3a
 3520 00eb 0B       		.uleb128 0xb
 3521 00ec 3B       		.uleb128 0x3b
 3522 00ed 0B       		.uleb128 0xb
 3523 00ee 49       		.uleb128 0x49
 3524 00ef 13       		.uleb128 0x13
 3525 00f0 00       		.byte	0
 3526 00f1 00       		.byte	0
 3527 00f2 12       		.uleb128 0x12
 3528 00f3 34       		.uleb128 0x34
 3529 00f4 00       		.byte	0
 3530 00f5 03       		.uleb128 0x3
 3531 00f6 0E       		.uleb128 0xe
 3532 00f7 3A       		.uleb128 0x3a
 3533 00f8 0B       		.uleb128 0xb
 3534 00f9 3B       		.uleb128 0x3b
 3535 00fa 0B       		.uleb128 0xb
ARM GAS  C:\Users\ANNASP~1\AppData\Local\Temp\ccsUsXsi.s 			page 100


 3536 00fb 49       		.uleb128 0x49
 3537 00fc 13       		.uleb128 0x13
 3538 00fd 02       		.uleb128 0x2
 3539 00fe 17       		.uleb128 0x17
 3540 00ff 00       		.byte	0
 3541 0100 00       		.byte	0
 3542 0101 13       		.uleb128 0x13
 3543 0102 2E       		.uleb128 0x2e
 3544 0103 01       		.byte	0x1
 3545 0104 3F       		.uleb128 0x3f
 3546 0105 19       		.uleb128 0x19
 3547 0106 03       		.uleb128 0x3
 3548 0107 0E       		.uleb128 0xe
 3549 0108 3A       		.uleb128 0x3a
 3550 0109 0B       		.uleb128 0xb
 3551 010a 3B       		.uleb128 0x3b
 3552 010b 05       		.uleb128 0x5
 3553 010c 27       		.uleb128 0x27
 3554 010d 19       		.uleb128 0x19
 3555 010e 11       		.uleb128 0x11
 3556 010f 01       		.uleb128 0x1
 3557 0110 12       		.uleb128 0x12
 3558 0111 06       		.uleb128 0x6
 3559 0112 40       		.uleb128 0x40
 3560 0113 18       		.uleb128 0x18
 3561 0114 9742     		.uleb128 0x2117
 3562 0116 19       		.uleb128 0x19
 3563 0117 01       		.uleb128 0x1
 3564 0118 13       		.uleb128 0x13
 3565 0119 00       		.byte	0
 3566 011a 00       		.byte	0
 3567 011b 14       		.uleb128 0x14
 3568 011c 2E       		.uleb128 0x2e
 3569 011d 01       		.byte	0x1
 3570 011e 3F       		.uleb128 0x3f
 3571 011f 19       		.uleb128 0x19
 3572 0120 03       		.uleb128 0x3
 3573 0121 0E       		.uleb128 0xe
 3574 0122 3A       		.uleb128 0x3a
 3575 0123 0B       		.uleb128 0xb
 3576 0124 3B       		.uleb128 0x3b
 3577 0125 05       		.uleb128 0x5
 3578 0126 27       		.uleb128 0x27
 3579 0127 19       		.uleb128 0x19
 3580 0128 49       		.uleb128 0x49
 3581 0129 13       		.uleb128 0x13
 3582 012a 11       		.uleb128 0x11
 3583 012b 01       		.uleb128 0x1
 3584 012c 12       		.uleb128 0x12
 3585 012d 06       		.uleb128 0x6
 3586 012e 40       		.uleb128 0x40
 3587 012f 18       		.uleb128 0x18
 3588 0130 9642     		.uleb128 0x2116
 3589 0132 19       		.uleb128 0x19
 3590 0133 01       		.uleb128 0x1
 3591 0134 13       		.uleb128 0x13
 3592 0135 00       		.byte	0
ARM GAS  C:\Users\ANNASP~1\AppData\Local\Temp\ccsUsXsi.s 			page 101


 3593 0136 00       		.byte	0
 3594 0137 15       		.uleb128 0x15
 3595 0138 2E       		.uleb128 0x2e
 3596 0139 01       		.byte	0x1
 3597 013a 3F       		.uleb128 0x3f
 3598 013b 19       		.uleb128 0x19
 3599 013c 03       		.uleb128 0x3
 3600 013d 0E       		.uleb128 0xe
 3601 013e 3A       		.uleb128 0x3a
 3602 013f 0B       		.uleb128 0xb
 3603 0140 3B       		.uleb128 0x3b
 3604 0141 05       		.uleb128 0x5
 3605 0142 27       		.uleb128 0x27
 3606 0143 19       		.uleb128 0x19
 3607 0144 49       		.uleb128 0x49
 3608 0145 13       		.uleb128 0x13
 3609 0146 11       		.uleb128 0x11
 3610 0147 01       		.uleb128 0x1
 3611 0148 12       		.uleb128 0x12
 3612 0149 06       		.uleb128 0x6
 3613 014a 40       		.uleb128 0x40
 3614 014b 18       		.uleb128 0x18
 3615 014c 9742     		.uleb128 0x2117
 3616 014e 19       		.uleb128 0x19
 3617 014f 01       		.uleb128 0x1
 3618 0150 13       		.uleb128 0x13
 3619 0151 00       		.byte	0
 3620 0152 00       		.byte	0
 3621 0153 16       		.uleb128 0x16
 3622 0154 2E       		.uleb128 0x2e
 3623 0155 00       		.byte	0
 3624 0156 3F       		.uleb128 0x3f
 3625 0157 19       		.uleb128 0x19
 3626 0158 03       		.uleb128 0x3
 3627 0159 0E       		.uleb128 0xe
 3628 015a 3A       		.uleb128 0x3a
 3629 015b 0B       		.uleb128 0xb
 3630 015c 3B       		.uleb128 0x3b
 3631 015d 05       		.uleb128 0x5
 3632 015e 27       		.uleb128 0x27
 3633 015f 19       		.uleb128 0x19
 3634 0160 11       		.uleb128 0x11
 3635 0161 01       		.uleb128 0x1
 3636 0162 12       		.uleb128 0x12
 3637 0163 06       		.uleb128 0x6
 3638 0164 40       		.uleb128 0x40
 3639 0165 18       		.uleb128 0x18
 3640 0166 9742     		.uleb128 0x2117
 3641 0168 19       		.uleb128 0x19
 3642 0169 00       		.byte	0
 3643 016a 00       		.byte	0
 3644 016b 17       		.uleb128 0x17
 3645 016c 34       		.uleb128 0x34
 3646 016d 00       		.byte	0
 3647 016e 03       		.uleb128 0x3
 3648 016f 0E       		.uleb128 0xe
 3649 0170 3A       		.uleb128 0x3a
ARM GAS  C:\Users\ANNASP~1\AppData\Local\Temp\ccsUsXsi.s 			page 102


 3650 0171 0B       		.uleb128 0xb
 3651 0172 3B       		.uleb128 0x3b
 3652 0173 05       		.uleb128 0x5
 3653 0174 49       		.uleb128 0x49
 3654 0175 13       		.uleb128 0x13
 3655 0176 02       		.uleb128 0x2
 3656 0177 18       		.uleb128 0x18
 3657 0178 00       		.byte	0
 3658 0179 00       		.byte	0
 3659 017a 18       		.uleb128 0x18
 3660 017b 05       		.uleb128 0x5
 3661 017c 00       		.byte	0
 3662 017d 03       		.uleb128 0x3
 3663 017e 0E       		.uleb128 0xe
 3664 017f 3A       		.uleb128 0x3a
 3665 0180 0B       		.uleb128 0xb
 3666 0181 3B       		.uleb128 0x3b
 3667 0182 05       		.uleb128 0x5
 3668 0183 49       		.uleb128 0x49
 3669 0184 13       		.uleb128 0x13
 3670 0185 02       		.uleb128 0x2
 3671 0186 18       		.uleb128 0x18
 3672 0187 00       		.byte	0
 3673 0188 00       		.byte	0
 3674 0189 19       		.uleb128 0x19
 3675 018a 01       		.uleb128 0x1
 3676 018b 01       		.byte	0x1
 3677 018c 49       		.uleb128 0x49
 3678 018d 13       		.uleb128 0x13
 3679 018e 01       		.uleb128 0x1
 3680 018f 13       		.uleb128 0x13
 3681 0190 00       		.byte	0
 3682 0191 00       		.byte	0
 3683 0192 1A       		.uleb128 0x1a
 3684 0193 21       		.uleb128 0x21
 3685 0194 00       		.byte	0
 3686 0195 49       		.uleb128 0x49
 3687 0196 13       		.uleb128 0x13
 3688 0197 2F       		.uleb128 0x2f
 3689 0198 0B       		.uleb128 0xb
 3690 0199 00       		.byte	0
 3691 019a 00       		.byte	0
 3692 019b 1B       		.uleb128 0x1b
 3693 019c 34       		.uleb128 0x34
 3694 019d 00       		.byte	0
 3695 019e 03       		.uleb128 0x3
 3696 019f 0E       		.uleb128 0xe
 3697 01a0 3A       		.uleb128 0x3a
 3698 01a1 0B       		.uleb128 0xb
 3699 01a2 3B       		.uleb128 0x3b
 3700 01a3 0B       		.uleb128 0xb
 3701 01a4 49       		.uleb128 0x49
 3702 01a5 13       		.uleb128 0x13
 3703 01a6 02       		.uleb128 0x2
 3704 01a7 18       		.uleb128 0x18
 3705 01a8 00       		.byte	0
 3706 01a9 00       		.byte	0
ARM GAS  C:\Users\ANNASP~1\AppData\Local\Temp\ccsUsXsi.s 			page 103


 3707 01aa 1C       		.uleb128 0x1c
 3708 01ab 34       		.uleb128 0x34
 3709 01ac 00       		.byte	0
 3710 01ad 03       		.uleb128 0x3
 3711 01ae 0E       		.uleb128 0xe
 3712 01af 3A       		.uleb128 0x3a
 3713 01b0 0B       		.uleb128 0xb
 3714 01b1 3B       		.uleb128 0x3b
 3715 01b2 0B       		.uleb128 0xb
 3716 01b3 49       		.uleb128 0x49
 3717 01b4 13       		.uleb128 0x13
 3718 01b5 3F       		.uleb128 0x3f
 3719 01b6 19       		.uleb128 0x19
 3720 01b7 02       		.uleb128 0x2
 3721 01b8 18       		.uleb128 0x18
 3722 01b9 00       		.byte	0
 3723 01ba 00       		.byte	0
 3724 01bb 1D       		.uleb128 0x1d
 3725 01bc 2E       		.uleb128 0x2e
 3726 01bd 00       		.byte	0
 3727 01be 3F       		.uleb128 0x3f
 3728 01bf 19       		.uleb128 0x19
 3729 01c0 3C       		.uleb128 0x3c
 3730 01c1 19       		.uleb128 0x19
 3731 01c2 6E       		.uleb128 0x6e
 3732 01c3 0E       		.uleb128 0xe
 3733 01c4 03       		.uleb128 0x3
 3734 01c5 0E       		.uleb128 0xe
 3735 01c6 3A       		.uleb128 0x3a
 3736 01c7 0B       		.uleb128 0xb
 3737 01c8 3B       		.uleb128 0x3b
 3738 01c9 0B       		.uleb128 0xb
 3739 01ca 00       		.byte	0
 3740 01cb 00       		.byte	0
 3741 01cc 00       		.byte	0
 3742              		.section	.debug_loc,"",%progbits
 3743              	.Ldebug_loc0:
 3744              	.LLST0:
 3745 0000 00000000 		.4byte	.LVL0
 3746 0004 10000000 		.4byte	.LVL1
 3747 0008 0100     		.2byte	0x1
 3748 000a 50       		.byte	0x50
 3749 000b 10000000 		.4byte	.LVL1
 3750 000f B2000000 		.4byte	.LVL31
 3751 0013 0400     		.2byte	0x4
 3752 0015 F3       		.byte	0xf3
 3753 0016 01       		.uleb128 0x1
 3754 0017 50       		.byte	0x50
 3755 0018 9F       		.byte	0x9f
 3756 0019 B2000000 		.4byte	.LVL31
 3757 001d B4000000 		.4byte	.LVL32
 3758 0021 0100     		.2byte	0x1
 3759 0023 50       		.byte	0x50
 3760 0024 B4000000 		.4byte	.LVL32
 3761 0028 E0000000 		.4byte	.LFE21
 3762 002c 0400     		.2byte	0x4
 3763 002e F3       		.byte	0xf3
ARM GAS  C:\Users\ANNASP~1\AppData\Local\Temp\ccsUsXsi.s 			page 104


 3764 002f 01       		.uleb128 0x1
 3765 0030 50       		.byte	0x50
 3766 0031 9F       		.byte	0x9f
 3767 0032 00000000 		.4byte	0
 3768 0036 00000000 		.4byte	0
 3769              	.LLST1:
 3770 003a 00000000 		.4byte	.LVL0
 3771 003e 78000000 		.4byte	.LVL19
 3772 0042 0100     		.2byte	0x1
 3773 0044 51       		.byte	0x51
 3774 0045 78000000 		.4byte	.LVL19
 3775 0049 B2000000 		.4byte	.LVL31
 3776 004d 0400     		.2byte	0x4
 3777 004f F3       		.byte	0xf3
 3778 0050 01       		.uleb128 0x1
 3779 0051 51       		.byte	0x51
 3780 0052 9F       		.byte	0x9f
 3781 0053 B2000000 		.4byte	.LVL31
 3782 0057 B7000000 		.4byte	.LVL33-1
 3783 005b 0100     		.2byte	0x1
 3784 005d 51       		.byte	0x51
 3785 005e B7000000 		.4byte	.LVL33-1
 3786 0062 E0000000 		.4byte	.LFE21
 3787 0066 0400     		.2byte	0x4
 3788 0068 F3       		.byte	0xf3
 3789 0069 01       		.uleb128 0x1
 3790 006a 51       		.byte	0x51
 3791 006b 9F       		.byte	0x9f
 3792 006c 00000000 		.4byte	0
 3793 0070 00000000 		.4byte	0
 3794              	.LLST2:
 3795 0074 00000000 		.4byte	.LVL0
 3796 0078 80000000 		.4byte	.LVL22
 3797 007c 0100     		.2byte	0x1
 3798 007e 52       		.byte	0x52
 3799 007f 80000000 		.4byte	.LVL22
 3800 0083 B2000000 		.4byte	.LVL31
 3801 0087 0400     		.2byte	0x4
 3802 0089 F3       		.byte	0xf3
 3803 008a 01       		.uleb128 0x1
 3804 008b 52       		.byte	0x52
 3805 008c 9F       		.byte	0x9f
 3806 008d B2000000 		.4byte	.LVL31
 3807 0091 B7000000 		.4byte	.LVL33-1
 3808 0095 0100     		.2byte	0x1
 3809 0097 52       		.byte	0x52
 3810 0098 B7000000 		.4byte	.LVL33-1
 3811 009c E0000000 		.4byte	.LFE21
 3812 00a0 0400     		.2byte	0x4
 3813 00a2 F3       		.byte	0xf3
 3814 00a3 01       		.uleb128 0x1
 3815 00a4 52       		.byte	0x52
 3816 00a5 9F       		.byte	0x9f
 3817 00a6 00000000 		.4byte	0
 3818 00aa 00000000 		.4byte	0
 3819              	.LLST3:
 3820 00ae 00000000 		.4byte	.LVL0
ARM GAS  C:\Users\ANNASP~1\AppData\Local\Temp\ccsUsXsi.s 			page 105


 3821 00b2 98000000 		.4byte	.LVL27
 3822 00b6 0100     		.2byte	0x1
 3823 00b8 53       		.byte	0x53
 3824 00b9 98000000 		.4byte	.LVL27
 3825 00bd 9C000000 		.4byte	.LVL28
 3826 00c1 0400     		.2byte	0x4
 3827 00c3 F3       		.byte	0xf3
 3828 00c4 01       		.uleb128 0x1
 3829 00c5 53       		.byte	0x53
 3830 00c6 9F       		.byte	0x9f
 3831 00c7 9C000000 		.4byte	.LVL28
 3832 00cb 9E000000 		.4byte	.LVL29
 3833 00cf 0100     		.2byte	0x1
 3834 00d1 53       		.byte	0x53
 3835 00d2 9E000000 		.4byte	.LVL29
 3836 00d6 B2000000 		.4byte	.LVL31
 3837 00da 0400     		.2byte	0x4
 3838 00dc F3       		.byte	0xf3
 3839 00dd 01       		.uleb128 0x1
 3840 00de 53       		.byte	0x53
 3841 00df 9F       		.byte	0x9f
 3842 00e0 B2000000 		.4byte	.LVL31
 3843 00e4 B7000000 		.4byte	.LVL33-1
 3844 00e8 0100     		.2byte	0x1
 3845 00ea 53       		.byte	0x53
 3846 00eb B7000000 		.4byte	.LVL33-1
 3847 00ef E0000000 		.4byte	.LFE21
 3848 00f3 0400     		.2byte	0x4
 3849 00f5 F3       		.byte	0xf3
 3850 00f6 01       		.uleb128 0x1
 3851 00f7 53       		.byte	0x53
 3852 00f8 9F       		.byte	0x9f
 3853 00f9 00000000 		.4byte	0
 3854 00fd 00000000 		.4byte	0
 3855              	.LLST4:
 3856 0101 00000000 		.4byte	.LVL0
 3857 0105 B2000000 		.4byte	.LVL31
 3858 0109 0200     		.2byte	0x2
 3859 010b 91       		.byte	0x91
 3860 010c 00       		.sleb128 0
 3861 010d B2000000 		.4byte	.LVL31
 3862 0111 BA000000 		.4byte	.LVL34
 3863 0115 0200     		.2byte	0x2
 3864 0117 91       		.byte	0x91
 3865 0118 00       		.sleb128 0
 3866 0119 BA000000 		.4byte	.LVL34
 3867 011d E0000000 		.4byte	.LFE21
 3868 0121 0200     		.2byte	0x2
 3869 0123 7D       		.byte	0x7d
 3870 0124 00       		.sleb128 0
 3871 0125 00000000 		.4byte	0
 3872 0129 00000000 		.4byte	0
 3873              	.LLST5:
 3874 012d 2C000000 		.4byte	.LVL2
 3875 0131 2E000000 		.4byte	.LVL3
 3876 0135 0100     		.2byte	0x1
 3877 0137 50       		.byte	0x50
ARM GAS  C:\Users\ANNASP~1\AppData\Local\Temp\ccsUsXsi.s 			page 106


 3878 0138 34000000 		.4byte	.LVL4
 3879 013c 36000000 		.4byte	.LVL5
 3880 0140 0100     		.2byte	0x1
 3881 0142 50       		.byte	0x50
 3882 0143 40000000 		.4byte	.LVL6
 3883 0147 42000000 		.4byte	.LVL7
 3884 014b 0100     		.2byte	0x1
 3885 014d 50       		.byte	0x50
 3886 014e 48000000 		.4byte	.LVL8
 3887 0152 4A000000 		.4byte	.LVL9
 3888 0156 0100     		.2byte	0x1
 3889 0158 50       		.byte	0x50
 3890 0159 54000000 		.4byte	.LVL10
 3891 015d 56000000 		.4byte	.LVL11
 3892 0161 0100     		.2byte	0x1
 3893 0163 50       		.byte	0x50
 3894 0164 5C000000 		.4byte	.LVL12
 3895 0168 5E000000 		.4byte	.LVL13
 3896 016c 0100     		.2byte	0x1
 3897 016e 50       		.byte	0x50
 3898 016f 68000000 		.4byte	.LVL14
 3899 0173 6A000000 		.4byte	.LVL15
 3900 0177 0100     		.2byte	0x1
 3901 0179 50       		.byte	0x50
 3902 017a 70000000 		.4byte	.LVL16
 3903 017e 72000000 		.4byte	.LVL17
 3904 0182 0100     		.2byte	0x1
 3905 0184 50       		.byte	0x50
 3906 0185 74000000 		.4byte	.LVL18
 3907 0189 92000000 		.4byte	.LVL26
 3908 018d 0100     		.2byte	0x1
 3909 018f 50       		.byte	0x50
 3910 0190 9C000000 		.4byte	.LVL28
 3911 0194 A8000000 		.4byte	.LVL30
 3912 0198 0100     		.2byte	0x1
 3913 019a 50       		.byte	0x50
 3914 019b 00000000 		.4byte	0
 3915 019f 00000000 		.4byte	0
 3916              	.LLST6:
 3917 01a3 78000000 		.4byte	.LVL19
 3918 01a7 7C000000 		.4byte	.LVL20
 3919 01ab 0100     		.2byte	0x1
 3920 01ad 51       		.byte	0x51
 3921 01ae 00000000 		.4byte	0
 3922 01b2 00000000 		.4byte	0
 3923              	.LLST7:
 3924 01b6 80000000 		.4byte	.LVL22
 3925 01ba 88000000 		.4byte	.LVL23
 3926 01be 0100     		.2byte	0x1
 3927 01c0 52       		.byte	0x52
 3928 01c1 88000000 		.4byte	.LVL23
 3929 01c5 8C000000 		.4byte	.LVL24
 3930 01c9 0100     		.2byte	0x1
 3931 01cb 51       		.byte	0x51
 3932 01cc 8E000000 		.4byte	.LVL25
 3933 01d0 B2000000 		.4byte	.LVL31
 3934 01d4 0100     		.2byte	0x1
ARM GAS  C:\Users\ANNASP~1\AppData\Local\Temp\ccsUsXsi.s 			page 107


 3935 01d6 52       		.byte	0x52
 3936 01d7 00000000 		.4byte	0
 3937 01db 00000000 		.4byte	0
 3938              	.LLST8:
 3939 01df 7C000000 		.4byte	.LVL20
 3940 01e3 7E000000 		.4byte	.LVL21
 3941 01e7 0100     		.2byte	0x1
 3942 01e9 51       		.byte	0x51
 3943 01ea 00000000 		.4byte	0
 3944 01ee 00000000 		.4byte	0
 3945              	.LLST9:
 3946 01f2 00000000 		.4byte	.LVL35
 3947 01f6 07000000 		.4byte	.LVL36-1
 3948 01fa 0100     		.2byte	0x1
 3949 01fc 50       		.byte	0x50
 3950 01fd 07000000 		.4byte	.LVL36-1
 3951 0201 4C000000 		.4byte	.LFE22
 3952 0205 0400     		.2byte	0x4
 3953 0207 F3       		.byte	0xf3
 3954 0208 01       		.uleb128 0x1
 3955 0209 50       		.byte	0x50
 3956 020a 9F       		.byte	0x9f
 3957 020b 00000000 		.4byte	0
 3958 020f 00000000 		.4byte	0
 3959              	.LLST10:
 3960 0213 0A000000 		.4byte	.LVL37
 3961 0217 40000000 		.4byte	.LVL40
 3962 021b 0100     		.2byte	0x1
 3963 021d 56       		.byte	0x56
 3964 021e 00000000 		.4byte	0
 3965 0222 00000000 		.4byte	0
 3966              	.LLST11:
 3967 0226 00000000 		.4byte	.LVL41
 3968 022a 80000000 		.4byte	.LVL42
 3969 022e 0100     		.2byte	0x1
 3970 0230 50       		.byte	0x50
 3971 0231 80000000 		.4byte	.LVL42
 3972 0235 A4010000 		.4byte	.LFE19
 3973 0239 0400     		.2byte	0x4
 3974 023b F3       		.byte	0xf3
 3975 023c 01       		.uleb128 0x1
 3976 023d 50       		.byte	0x50
 3977 023e 9F       		.byte	0x9f
 3978 023f 00000000 		.4byte	0
 3979 0243 00000000 		.4byte	0
 3980              	.LLST12:
 3981 0247 08000000 		.4byte	.LVL58
 3982 024b B2000000 		.4byte	.LVL62
 3983 024f 0100     		.2byte	0x1
 3984 0251 56       		.byte	0x56
 3985 0252 00000000 		.4byte	0
 3986 0256 00000000 		.4byte	0
 3987              	.LLST13:
 3988 025a 08000000 		.4byte	.LVL66
 3989 025e CE000000 		.4byte	.LVL69
 3990 0262 0100     		.2byte	0x1
 3991 0264 56       		.byte	0x56
ARM GAS  C:\Users\ANNASP~1\AppData\Local\Temp\ccsUsXsi.s 			page 108


 3992 0265 00000000 		.4byte	0
 3993 0269 00000000 		.4byte	0
 3994              	.LLST14:
 3995 026d 00000000 		.4byte	.LVL70
 3996 0271 0A000000 		.4byte	.LVL72
 3997 0275 0100     		.2byte	0x1
 3998 0277 50       		.byte	0x50
 3999 0278 0A000000 		.4byte	.LVL72
 4000 027c 18000000 		.4byte	.LFE4
 4001 0280 0400     		.2byte	0x4
 4002 0282 F3       		.byte	0xf3
 4003 0283 01       		.uleb128 0x1
 4004 0284 50       		.byte	0x50
 4005 0285 9F       		.byte	0x9f
 4006 0286 00000000 		.4byte	0
 4007 028a 00000000 		.4byte	0
 4008              	.LLST15:
 4009 028e 08000000 		.4byte	.LVL71
 4010 0292 10000000 		.4byte	.LVL73
 4011 0296 0100     		.2byte	0x1
 4012 0298 53       		.byte	0x53
 4013 0299 10000000 		.4byte	.LVL73
 4014 029d 18000000 		.4byte	.LFE4
 4015 02a1 0100     		.2byte	0x1
 4016 02a3 50       		.byte	0x50
 4017 02a4 00000000 		.4byte	0
 4018 02a8 00000000 		.4byte	0
 4019              	.LLST16:
 4020 02ac 00000000 		.4byte	.LVL74
 4021 02b0 0C000000 		.4byte	.LVL76
 4022 02b4 0100     		.2byte	0x1
 4023 02b6 50       		.byte	0x50
 4024 02b7 0C000000 		.4byte	.LVL76
 4025 02bb 18000000 		.4byte	.LFE5
 4026 02bf 0400     		.2byte	0x4
 4027 02c1 F3       		.byte	0xf3
 4028 02c2 01       		.uleb128 0x1
 4029 02c3 50       		.byte	0x50
 4030 02c4 9F       		.byte	0x9f
 4031 02c5 00000000 		.4byte	0
 4032 02c9 00000000 		.4byte	0
 4033              	.LLST17:
 4034 02cd 08000000 		.4byte	.LVL75
 4035 02d1 0E000000 		.4byte	.LVL77
 4036 02d5 0100     		.2byte	0x1
 4037 02d7 53       		.byte	0x53
 4038 02d8 0E000000 		.4byte	.LVL77
 4039 02dc 18000000 		.4byte	.LFE5
 4040 02e0 0100     		.2byte	0x1
 4041 02e2 50       		.byte	0x50
 4042 02e3 00000000 		.4byte	0
 4043 02e7 00000000 		.4byte	0
 4044              	.LLST18:
 4045 02eb 00000000 		.4byte	.LVL78
 4046 02ef 10000000 		.4byte	.LVL80
 4047 02f3 0100     		.2byte	0x1
 4048 02f5 50       		.byte	0x50
ARM GAS  C:\Users\ANNASP~1\AppData\Local\Temp\ccsUsXsi.s 			page 109


 4049 02f6 10000000 		.4byte	.LVL80
 4050 02fa 24000000 		.4byte	.LVL84
 4051 02fe 0100     		.2byte	0x1
 4052 0300 54       		.byte	0x54
 4053 0301 24000000 		.4byte	.LVL84
 4054 0305 74000000 		.4byte	.LFE6
 4055 0309 0600     		.2byte	0x6
 4056 030b F3       		.byte	0xf3
 4057 030c 03       		.uleb128 0x3
 4058 030d F5       		.byte	0xf5
 4059 030e 00       		.uleb128 0
 4060 030f 25       		.uleb128 0x25
 4061 0310 9F       		.byte	0x9f
 4062 0311 00000000 		.4byte	0
 4063 0315 00000000 		.4byte	0
 4064              	.LLST19:
 4065 0319 0A000000 		.4byte	.LVL79
 4066 031d 13000000 		.4byte	.LVL81-1
 4067 0321 0A00     		.2byte	0xa
 4068 0323 73       		.byte	0x73
 4069 0324 00       		.sleb128 0
 4070 0325 32       		.byte	0x32
 4071 0326 24       		.byte	0x24
 4072 0327 03       		.byte	0x3
 4073 0328 00000000 		.4byte	.LANCHOR0
 4074 032c 22       		.byte	0x22
 4075 032d 44000000 		.4byte	.LVL89
 4076 0331 56000000 		.4byte	.LVL91
 4077 0335 0100     		.2byte	0x1
 4078 0337 50       		.byte	0x50
 4079 0338 56000000 		.4byte	.LVL91
 4080 033c 58000000 		.4byte	.LVL92
 4081 0340 0700     		.2byte	0x7
 4082 0342 73       		.byte	0x73
 4083 0343 00       		.sleb128 0
 4084 0344 32       		.byte	0x32
 4085 0345 24       		.byte	0x24
 4086 0346 72       		.byte	0x72
 4087 0347 00       		.sleb128 0
 4088 0348 22       		.byte	0x22
 4089 0349 00000000 		.4byte	0
 4090 034d 00000000 		.4byte	0
 4091              	.LLST20:
 4092 0351 54000000 		.4byte	.LVL90
 4093 0355 58000000 		.4byte	.LVL92
 4094 0359 0200     		.2byte	0x2
 4095 035b 30       		.byte	0x30
 4096 035c 9F       		.byte	0x9f
 4097 035d 5A000000 		.4byte	.LVL93
 4098 0361 74000000 		.4byte	.LFE6
 4099 0365 0100     		.2byte	0x1
 4100 0367 50       		.byte	0x50
 4101 0368 00000000 		.4byte	0
 4102 036c 00000000 		.4byte	0
 4103              	.LLST21:
 4104 0370 1C000000 		.4byte	.LVL82
 4105 0374 21000000 		.4byte	.LVL83-1
ARM GAS  C:\Users\ANNASP~1\AppData\Local\Temp\ccsUsXsi.s 			page 110


 4106 0378 0100     		.2byte	0x1
 4107 037a 50       		.byte	0x50
 4108 037b 24000000 		.4byte	.LVL84
 4109 037f 27000000 		.4byte	.LVL85-1
 4110 0383 0100     		.2byte	0x1
 4111 0385 50       		.byte	0x50
 4112 0386 27000000 		.4byte	.LVL85-1
 4113 038a 3E000000 		.4byte	.LVL87
 4114 038e 0100     		.2byte	0x1
 4115 0390 54       		.byte	0x54
 4116 0391 3E000000 		.4byte	.LVL87
 4117 0395 41000000 		.4byte	.LVL88-1
 4118 0399 0100     		.2byte	0x1
 4119 039b 50       		.byte	0x50
 4120 039c 58000000 		.4byte	.LVL92
 4121 03a0 5C000000 		.4byte	.LVL94
 4122 03a4 0100     		.2byte	0x1
 4123 03a6 54       		.byte	0x54
 4124 03a7 00000000 		.4byte	0
 4125 03ab 00000000 		.4byte	0
 4126              	.LLST22:
 4127 03af 06000000 		.4byte	.LVL95
 4128 03b3 14000000 		.4byte	.LVL97
 4129 03b7 0100     		.2byte	0x1
 4130 03b9 53       		.byte	0x53
 4131 03ba 00000000 		.4byte	0
 4132 03be 00000000 		.4byte	0
 4133              	.LLST23:
 4134 03c2 0C000000 		.4byte	.LVL96
 4135 03c6 16000000 		.4byte	.LVL98
 4136 03ca 0100     		.2byte	0x1
 4137 03cc 50       		.byte	0x50
 4138 03cd 18000000 		.4byte	.LVL99
 4139 03d1 24000000 		.4byte	.LFE7
 4140 03d5 0100     		.2byte	0x1
 4141 03d7 50       		.byte	0x50
 4142 03d8 00000000 		.4byte	0
 4143 03dc 00000000 		.4byte	0
 4144              	.LLST24:
 4145 03e0 00000000 		.4byte	.LVL100
 4146 03e4 24000000 		.4byte	.LVL104
 4147 03e8 0100     		.2byte	0x1
 4148 03ea 50       		.byte	0x50
 4149 03eb 24000000 		.4byte	.LVL104
 4150 03ef 30000000 		.4byte	.LFE10
 4151 03f3 0400     		.2byte	0x4
 4152 03f5 F3       		.byte	0xf3
 4153 03f6 01       		.uleb128 0x1
 4154 03f7 50       		.byte	0x50
 4155 03f8 9F       		.byte	0x9f
 4156 03f9 00000000 		.4byte	0
 4157 03fd 00000000 		.4byte	0
 4158              	.LLST25:
 4159 0401 10000000 		.4byte	.LVL101
 4160 0405 12000000 		.4byte	.LVL102
 4161 0409 0100     		.2byte	0x1
 4162 040b 53       		.byte	0x53
ARM GAS  C:\Users\ANNASP~1\AppData\Local\Temp\ccsUsXsi.s 			page 111


 4163 040c 1A000000 		.4byte	.LVL103
 4164 0410 30000000 		.4byte	.LFE10
 4165 0414 0100     		.2byte	0x1
 4166 0416 53       		.byte	0x53
 4167 0417 00000000 		.4byte	0
 4168 041b 00000000 		.4byte	0
 4169              	.LLST26:
 4170 041f 08000000 		.4byte	.LVL105
 4171 0423 14000000 		.4byte	.LVL107
 4172 0427 0100     		.2byte	0x1
 4173 0429 53       		.byte	0x53
 4174 042a 18000000 		.4byte	.LVL108
 4175 042e 1E000000 		.4byte	.LVL109
 4176 0432 0100     		.2byte	0x1
 4177 0434 53       		.byte	0x53
 4178 0435 00000000 		.4byte	0
 4179 0439 00000000 		.4byte	0
 4180              	.LLST27:
 4181 043d 12000000 		.4byte	.LVL112
 4182 0441 14000000 		.4byte	.LVL113
 4183 0445 0100     		.2byte	0x1
 4184 0447 50       		.byte	0x50
 4185 0448 18000000 		.4byte	.LVL114
 4186 044c 20000000 		.4byte	.LVL115
 4187 0450 0100     		.2byte	0x1
 4188 0452 52       		.byte	0x52
 4189 0453 20000000 		.4byte	.LVL115
 4190 0457 50000000 		.4byte	.LFE12
 4191 045b 0100     		.2byte	0x1
 4192 045d 50       		.byte	0x50
 4193 045e 00000000 		.4byte	0
 4194 0462 00000000 		.4byte	0
 4195              	.LLST28:
 4196 0466 08000000 		.4byte	.LVL110
 4197 046a 0E000000 		.4byte	.LVL111
 4198 046e 0100     		.2byte	0x1
 4199 0470 53       		.byte	0x53
 4200 0471 14000000 		.4byte	.LVL113
 4201 0475 26000000 		.4byte	.LVL116
 4202 0479 0100     		.2byte	0x1
 4203 047b 53       		.byte	0x53
 4204 047c 00000000 		.4byte	0
 4205 0480 00000000 		.4byte	0
 4206              	.LLST29:
 4207 0484 10000000 		.4byte	.LVL119
 4208 0488 1A000000 		.4byte	.LVL120
 4209 048c 0700     		.2byte	0x7
 4210 048e 70       		.byte	0x70
 4211 048f 00       		.sleb128 0
 4212 0490 0A       		.byte	0xa
 4213 0491 FFFF     		.2byte	0xffff
 4214 0493 1A       		.byte	0x1a
 4215 0494 9F       		.byte	0x9f
 4216 0495 1A000000 		.4byte	.LVL120
 4217 0499 1C000000 		.4byte	.LVL121
 4218 049d 0100     		.2byte	0x1
 4219 049f 50       		.byte	0x50
ARM GAS  C:\Users\ANNASP~1\AppData\Local\Temp\ccsUsXsi.s 			page 112


 4220 04a0 24000000 		.4byte	.LVL123
 4221 04a4 2C000000 		.4byte	.LVL124
 4222 04a8 0700     		.2byte	0x7
 4223 04aa 70       		.byte	0x70
 4224 04ab 00       		.sleb128 0
 4225 04ac 0A       		.byte	0xa
 4226 04ad FFFF     		.2byte	0xffff
 4227 04af 1A       		.byte	0x1a
 4228 04b0 9F       		.byte	0x9f
 4229 04b1 2C000000 		.4byte	.LVL124
 4230 04b5 34000000 		.4byte	.LVL125
 4231 04b9 0100     		.2byte	0x1
 4232 04bb 53       		.byte	0x53
 4233 04bc 34000000 		.4byte	.LVL125
 4234 04c0 36000000 		.4byte	.LVL126
 4235 04c4 0100     		.2byte	0x1
 4236 04c6 50       		.byte	0x50
 4237 04c7 3C000000 		.4byte	.LVL128
 4238 04cb 44000000 		.4byte	.LVL129
 4239 04cf 0100     		.2byte	0x1
 4240 04d1 53       		.byte	0x53
 4241 04d2 44000000 		.4byte	.LVL129
 4242 04d6 6C000000 		.4byte	.LFE13
 4243 04da 0100     		.2byte	0x1
 4244 04dc 50       		.byte	0x50
 4245 04dd 00000000 		.4byte	0
 4246 04e1 00000000 		.4byte	0
 4247              	.LLST30:
 4248 04e5 08000000 		.4byte	.LVL117
 4249 04e9 0E000000 		.4byte	.LVL118
 4250 04ed 0100     		.2byte	0x1
 4251 04ef 53       		.byte	0x53
 4252 04f0 1C000000 		.4byte	.LVL121
 4253 04f4 22000000 		.4byte	.LVL122
 4254 04f8 0100     		.2byte	0x1
 4255 04fa 53       		.byte	0x53
 4256 04fb 36000000 		.4byte	.LVL126
 4257 04ff 38000000 		.4byte	.LVL127
 4258 0503 0100     		.2byte	0x1
 4259 0505 53       		.byte	0x53
 4260 0506 00000000 		.4byte	0
 4261 050a 00000000 		.4byte	0
 4262              	.LLST31:
 4263 050e 00000000 		.4byte	.LVL132
 4264 0512 06000000 		.4byte	.LVL133
 4265 0516 0100     		.2byte	0x1
 4266 0518 50       		.byte	0x50
 4267 0519 06000000 		.4byte	.LVL133
 4268 051d 0E000000 		.4byte	.LVL134
 4269 0521 0100     		.2byte	0x1
 4270 0523 50       		.byte	0x50
 4271 0524 00000000 		.4byte	0
 4272 0528 00000000 		.4byte	0
 4273              	.LLST32:
 4274 052c 00000000 		.4byte	.LVL136
 4275 0530 06000000 		.4byte	.LVL137
 4276 0534 0100     		.2byte	0x1
ARM GAS  C:\Users\ANNASP~1\AppData\Local\Temp\ccsUsXsi.s 			page 113


 4277 0536 50       		.byte	0x50
 4278 0537 06000000 		.4byte	.LVL137
 4279 053b 08000000 		.4byte	.LVL138
 4280 053f 0600     		.2byte	0x6
 4281 0541 70       		.byte	0x70
 4282 0542 00       		.sleb128 0
 4283 0543 73       		.byte	0x73
 4284 0544 00       		.sleb128 0
 4285 0545 1C       		.byte	0x1c
 4286 0546 9F       		.byte	0x9f
 4287 0547 08000000 		.4byte	.LVL138
 4288 054b 0B000000 		.4byte	.LVL139-1
 4289 054f 0100     		.2byte	0x1
 4290 0551 50       		.byte	0x50
 4291 0552 00000000 		.4byte	0
 4292 0556 00000000 		.4byte	0
 4293              	.LLST33:
 4294 055a 00000000 		.4byte	.LVL142
 4295 055e 4C000000 		.4byte	.LVL149
 4296 0562 0100     		.2byte	0x1
 4297 0564 50       		.byte	0x50
 4298 0565 4C000000 		.4byte	.LVL149
 4299 0569 78000000 		.4byte	.LFE18
 4300 056d 0400     		.2byte	0x4
 4301 056f F3       		.byte	0xf3
 4302 0570 01       		.uleb128 0x1
 4303 0571 50       		.byte	0x50
 4304 0572 9F       		.byte	0x9f
 4305 0573 00000000 		.4byte	0
 4306 0577 00000000 		.4byte	0
 4307              	.LLST34:
 4308 057b 5C000000 		.4byte	.LVL150
 4309 057f 5E000000 		.4byte	.LVL151
 4310 0583 0600     		.2byte	0x6
 4311 0585 73       		.byte	0x73
 4312 0586 00       		.sleb128 0
 4313 0587 70       		.byte	0x70
 4314 0588 00       		.sleb128 0
 4315 0589 1C       		.byte	0x1c
 4316 058a 9F       		.byte	0x9f
 4317 058b 5E000000 		.4byte	.LVL151
 4318 058f 78000000 		.4byte	.LFE18
 4319 0593 0100     		.2byte	0x1
 4320 0595 50       		.byte	0x50
 4321 0596 00000000 		.4byte	0
 4322 059a 00000000 		.4byte	0
 4323              	.LLST35:
 4324 059e 34000000 		.4byte	.LVL144
 4325 05a2 3A000000 		.4byte	.LVL145
 4326 05a6 0600     		.2byte	0x6
 4327 05a8 0C       		.byte	0xc
 4328 05a9 40420F00 		.4byte	0xf4240
 4329 05ad 9F       		.byte	0x9f
 4330 05ae 40000000 		.4byte	.LVL146
 4331 05b2 60000000 		.4byte	.LVL152
 4332 05b6 0100     		.2byte	0x1
 4333 05b8 54       		.byte	0x54
ARM GAS  C:\Users\ANNASP~1\AppData\Local\Temp\ccsUsXsi.s 			page 114


 4334 05b9 00000000 		.4byte	0
 4335 05bd 00000000 		.4byte	0
 4336              	.LLST36:
 4337 05c1 34000000 		.4byte	.LVL144
 4338 05c5 3A000000 		.4byte	.LVL145
 4339 05c9 0200     		.2byte	0x2
 4340 05cb 31       		.byte	0x31
 4341 05cc 9F       		.byte	0x9f
 4342 05cd 40000000 		.4byte	.LVL146
 4343 05d1 78000000 		.4byte	.LFE18
 4344 05d5 0100     		.2byte	0x1
 4345 05d7 51       		.byte	0x51
 4346 05d8 00000000 		.4byte	0
 4347 05dc 00000000 		.4byte	0
 4348              	.LLST37:
 4349 05e0 24000000 		.4byte	.LVL143
 4350 05e4 42000000 		.4byte	.LVL147
 4351 05e8 0100     		.2byte	0x1
 4352 05ea 53       		.byte	0x53
 4353 05eb 00000000 		.4byte	0
 4354 05ef 00000000 		.4byte	0
 4355              	.LLST38:
 4356 05f3 00000000 		.4byte	.LVL153
 4357 05f7 21000000 		.4byte	.LVL154-1
 4358 05fb 0100     		.2byte	0x1
 4359 05fd 50       		.byte	0x50
 4360 05fe 21000000 		.4byte	.LVL154-1
 4361 0602 4C000000 		.4byte	.LVL158
 4362 0606 0400     		.2byte	0x4
 4363 0608 F3       		.byte	0xf3
 4364 0609 01       		.uleb128 0x1
 4365 060a 50       		.byte	0x50
 4366 060b 9F       		.byte	0x9f
 4367 060c 4C000000 		.4byte	.LVL158
 4368 0610 4E000000 		.4byte	.LVL159
 4369 0614 0100     		.2byte	0x1
 4370 0616 50       		.byte	0x50
 4371 0617 4E000000 		.4byte	.LVL159
 4372 061b 64000000 		.4byte	.LFE20
 4373 061f 0400     		.2byte	0x4
 4374 0621 F3       		.byte	0xf3
 4375 0622 01       		.uleb128 0x1
 4376 0623 50       		.byte	0x50
 4377 0624 9F       		.byte	0x9f
 4378 0625 00000000 		.4byte	0
 4379 0629 00000000 		.4byte	0
 4380              	.LLST39:
 4381 062d 00000000 		.4byte	.LVL153
 4382 0631 21000000 		.4byte	.LVL154-1
 4383 0635 0100     		.2byte	0x1
 4384 0637 51       		.byte	0x51
 4385 0638 21000000 		.4byte	.LVL154-1
 4386 063c 4C000000 		.4byte	.LVL158
 4387 0640 0400     		.2byte	0x4
 4388 0642 F3       		.byte	0xf3
 4389 0643 01       		.uleb128 0x1
 4390 0644 51       		.byte	0x51
ARM GAS  C:\Users\ANNASP~1\AppData\Local\Temp\ccsUsXsi.s 			page 115


 4391 0645 9F       		.byte	0x9f
 4392 0646 4C000000 		.4byte	.LVL158
 4393 064a 51000000 		.4byte	.LVL160-1
 4394 064e 0100     		.2byte	0x1
 4395 0650 51       		.byte	0x51
 4396 0651 51000000 		.4byte	.LVL160-1
 4397 0655 64000000 		.4byte	.LFE20
 4398 0659 0400     		.2byte	0x4
 4399 065b F3       		.byte	0xf3
 4400 065c 01       		.uleb128 0x1
 4401 065d 51       		.byte	0x51
 4402 065e 9F       		.byte	0x9f
 4403 065f 00000000 		.4byte	0
 4404 0663 00000000 		.4byte	0
 4405              	.LLST40:
 4406 0667 1C000000 		.4byte	.LVL164
 4407 066b 24000000 		.4byte	.LVL166
 4408 066f 0100     		.2byte	0x1
 4409 0671 54       		.byte	0x54
 4410 0672 00000000 		.4byte	0
 4411 0676 00000000 		.4byte	0
 4412              	.LLST41:
 4413 067a 1C000000 		.4byte	.LVL170
 4414 067e 24000000 		.4byte	.LVL172
 4415 0682 0100     		.2byte	0x1
 4416 0684 54       		.byte	0x54
 4417 0685 00000000 		.4byte	0
 4418 0689 00000000 		.4byte	0
 4419              	.LLST42:
 4420 068d 1C000000 		.4byte	.LVL176
 4421 0691 1F000000 		.4byte	.LVL177-1
 4422 0695 0100     		.2byte	0x1
 4423 0697 50       		.byte	0x50
 4424 0698 1F000000 		.4byte	.LVL177-1
 4425 069c 24000000 		.4byte	.LVL178
 4426 06a0 0100     		.2byte	0x1
 4427 06a2 54       		.byte	0x54
 4428 06a3 24000000 		.4byte	.LVL178
 4429 06a7 28000000 		.4byte	.LFE25
 4430 06ab 0100     		.2byte	0x1
 4431 06ad 50       		.byte	0x50
 4432 06ae 00000000 		.4byte	0
 4433 06b2 00000000 		.4byte	0
 4434              		.section	.debug_aranges,"",%progbits
 4435 0000 E4000000 		.4byte	0xe4
 4436 0004 0200     		.2byte	0x2
 4437 0006 00000000 		.4byte	.Ldebug_info0
 4438 000a 04       		.byte	0x4
 4439 000b 00       		.byte	0
 4440 000c 0000     		.2byte	0
 4441 000e 0000     		.2byte	0
 4442 0010 00000000 		.4byte	.LFB21
 4443 0014 E0000000 		.4byte	.LFE21-.LFB21
 4444 0018 00000000 		.4byte	.LFB22
 4445 001c 4C000000 		.4byte	.LFE22-.LFB22
 4446 0020 00000000 		.4byte	.LFB19
 4447 0024 A4010000 		.4byte	.LFE19-.LFB19
ARM GAS  C:\Users\ANNASP~1\AppData\Local\Temp\ccsUsXsi.s 			page 116


 4448 0028 00000000 		.4byte	.LFB0
 4449 002c E4000000 		.4byte	.LFE0-.LFB0
 4450 0030 00000000 		.4byte	.LFB1
 4451 0034 D8000000 		.4byte	.LFE1-.LFB1
 4452 0038 00000000 		.4byte	.LFB2
 4453 003c 28000000 		.4byte	.LFE2-.LFB2
 4454 0040 00000000 		.4byte	.LFB3
 4455 0044 E4000000 		.4byte	.LFE3-.LFB3
 4456 0048 00000000 		.4byte	.LFB4
 4457 004c 18000000 		.4byte	.LFE4-.LFB4
 4458 0050 00000000 		.4byte	.LFB5
 4459 0054 18000000 		.4byte	.LFE5-.LFB5
 4460 0058 00000000 		.4byte	.LFB6
 4461 005c 74000000 		.4byte	.LFE6-.LFB6
 4462 0060 00000000 		.4byte	.LFB7
 4463 0064 24000000 		.4byte	.LFE7-.LFB7
 4464 0068 00000000 		.4byte	.LFB8
 4465 006c 10000000 		.4byte	.LFE8-.LFB8
 4466 0070 00000000 		.4byte	.LFB9
 4467 0074 10000000 		.4byte	.LFE9-.LFB9
 4468 0078 00000000 		.4byte	.LFB10
 4469 007c 30000000 		.4byte	.LFE10-.LFB10
 4470 0080 00000000 		.4byte	.LFB11
 4471 0084 48000000 		.4byte	.LFE11-.LFB11
 4472 0088 00000000 		.4byte	.LFB12
 4473 008c 50000000 		.4byte	.LFE12-.LFB12
 4474 0090 00000000 		.4byte	.LFB13
 4475 0094 6C000000 		.4byte	.LFE13-.LFB13
 4476 0098 00000000 		.4byte	.LFB14
 4477 009c 0C000000 		.4byte	.LFE14-.LFB14
 4478 00a0 00000000 		.4byte	.LFB15
 4479 00a4 0C000000 		.4byte	.LFE15-.LFB15
 4480 00a8 00000000 		.4byte	.LFB16
 4481 00ac 24000000 		.4byte	.LFE16-.LFB16
 4482 00b0 00000000 		.4byte	.LFB17
 4483 00b4 28000000 		.4byte	.LFE17-.LFB17
 4484 00b8 00000000 		.4byte	.LFB18
 4485 00bc 78000000 		.4byte	.LFE18-.LFB18
 4486 00c0 00000000 		.4byte	.LFB20
 4487 00c4 64000000 		.4byte	.LFE20-.LFB20
 4488 00c8 00000000 		.4byte	.LFB23
 4489 00cc 28000000 		.4byte	.LFE23-.LFB23
 4490 00d0 00000000 		.4byte	.LFB24
 4491 00d4 28000000 		.4byte	.LFE24-.LFB24
 4492 00d8 00000000 		.4byte	.LFB25
 4493 00dc 28000000 		.4byte	.LFE25-.LFB25
 4494 00e0 00000000 		.4byte	0
 4495 00e4 00000000 		.4byte	0
 4496              		.section	.debug_ranges,"",%progbits
 4497              	.Ldebug_ranges0:
 4498 0000 00000000 		.4byte	.LFB21
 4499 0004 E0000000 		.4byte	.LFE21
 4500 0008 00000000 		.4byte	.LFB22
 4501 000c 4C000000 		.4byte	.LFE22
 4502 0010 00000000 		.4byte	.LFB19
 4503 0014 A4010000 		.4byte	.LFE19
 4504 0018 00000000 		.4byte	.LFB0
ARM GAS  C:\Users\ANNASP~1\AppData\Local\Temp\ccsUsXsi.s 			page 117


 4505 001c E4000000 		.4byte	.LFE0
 4506 0020 00000000 		.4byte	.LFB1
 4507 0024 D8000000 		.4byte	.LFE1
 4508 0028 00000000 		.4byte	.LFB2
 4509 002c 28000000 		.4byte	.LFE2
 4510 0030 00000000 		.4byte	.LFB3
 4511 0034 E4000000 		.4byte	.LFE3
 4512 0038 00000000 		.4byte	.LFB4
 4513 003c 18000000 		.4byte	.LFE4
 4514 0040 00000000 		.4byte	.LFB5
 4515 0044 18000000 		.4byte	.LFE5
 4516 0048 00000000 		.4byte	.LFB6
 4517 004c 74000000 		.4byte	.LFE6
 4518 0050 00000000 		.4byte	.LFB7
 4519 0054 24000000 		.4byte	.LFE7
 4520 0058 00000000 		.4byte	.LFB8
 4521 005c 10000000 		.4byte	.LFE8
 4522 0060 00000000 		.4byte	.LFB9
 4523 0064 10000000 		.4byte	.LFE9
 4524 0068 00000000 		.4byte	.LFB10
 4525 006c 30000000 		.4byte	.LFE10
 4526 0070 00000000 		.4byte	.LFB11
 4527 0074 48000000 		.4byte	.LFE11
 4528 0078 00000000 		.4byte	.LFB12
 4529 007c 50000000 		.4byte	.LFE12
 4530 0080 00000000 		.4byte	.LFB13
 4531 0084 6C000000 		.4byte	.LFE13
 4532 0088 00000000 		.4byte	.LFB14
 4533 008c 0C000000 		.4byte	.LFE14
 4534 0090 00000000 		.4byte	.LFB15
 4535 0094 0C000000 		.4byte	.LFE15
 4536 0098 00000000 		.4byte	.LFB16
 4537 009c 24000000 		.4byte	.LFE16
 4538 00a0 00000000 		.4byte	.LFB17
 4539 00a4 28000000 		.4byte	.LFE17
 4540 00a8 00000000 		.4byte	.LFB18
 4541 00ac 78000000 		.4byte	.LFE18
 4542 00b0 00000000 		.4byte	.LFB20
 4543 00b4 64000000 		.4byte	.LFE20
 4544 00b8 00000000 		.4byte	.LFB23
 4545 00bc 28000000 		.4byte	.LFE23
 4546 00c0 00000000 		.4byte	.LFB24
 4547 00c4 28000000 		.4byte	.LFE24
 4548 00c8 00000000 		.4byte	.LFB25
 4549 00cc 28000000 		.4byte	.LFE25
 4550 00d0 00000000 		.4byte	0
 4551 00d4 00000000 		.4byte	0
 4552              		.section	.debug_line,"",%progbits
 4553              	.Ldebug_line0:
 4554 0000 8D030000 		.section	.debug_str,"MS",%progbits,1
 4554      02009500 
 4554      00000201 
 4554      FB0E0D00 
 4554      01010101 
 4555              	.LASF11:
 4556 0000 75696E74 		.ascii	"uint16\000"
 4556      313600
ARM GAS  C:\Users\ANNASP~1\AppData\Local\Temp\ccsUsXsi.s 			page 118


 4557              	.LASF64:
 4558 0007 4144435F 		.ascii	"ADC_SigDel_SetOffset\000"
 4558      53696744 
 4558      656C5F53 
 4558      65744F66 
 4558      66736574 
 4559              	.LASF44:
 4560 001c 4144435F 		.ascii	"ADC_SigDel_Stop\000"
 4560      53696744 
 4560      656C5F53 
 4560      746F7000 
 4561              	.LASF67:
 4562 002c 61646347 		.ascii	"adcGain\000"
 4562      61696E00 
 4563              	.LASF93:
 4564 0034 43794578 		.ascii	"CyExitCriticalSection\000"
 4564      69744372 
 4564      69746963 
 4564      616C5365 
 4564      6374696F 
 4565              	.LASF27:
 4566 004a 696E7075 		.ascii	"inputRange\000"
 4566      7452616E 
 4566      676500
 4567              	.LASF58:
 4568 0055 4144435F 		.ascii	"ADC_SigDel_IsEndConversion\000"
 4568      53696744 
 4568      656C5F49 
 4568      73456E64 
 4568      436F6E76 
 4569              	.LASF24:
 4570 0070 67636F72 		.ascii	"gcor\000"
 4570      00
 4571              	.LASF8:
 4572 0075 6C6F6E67 		.ascii	"long long unsigned int\000"
 4572      206C6F6E 
 4572      6720756E 
 4572      7369676E 
 4572      65642069 
 4573              	.LASF29:
 4574 008c 69646561 		.ascii	"idealOddDecGain\000"
 4574      6C4F6464 
 4574      44656347 
 4574      61696E00 
 4575              	.LASF102:
 4576 009c 5C5C2E70 		.ascii	"\\\\.psf\\Home\\Desktop\\LAB_TEBS\\_Progetto\\TEBS_"
 4576      73665C48 
 4576      6F6D655C 
 4576      4465736B 
 4576      746F705C 
 4577 00c8 47697448 		.ascii	"GitHub\\PSoC_Project\\PSoC_Project.cydsn\000"
 4577      75625C50 
 4577      536F435F 
 4577      50726F6A 
 4577      6563745C 
 4578              	.LASF84:
 4579 00ef 4144435F 		.ascii	"ADC_SigDel_convDone\000"
ARM GAS  C:\Users\ANNASP~1\AppData\Local\Temp\ccsUsXsi.s 			page 119


 4579      53696744 
 4579      656C5F63 
 4579      6F6E7644 
 4579      6F6E6500 
 4580              	.LASF7:
 4581 0103 6C6F6E67 		.ascii	"long long int\000"
 4581      206C6F6E 
 4581      6720696E 
 4581      7400
 4582              	.LASF1:
 4583 0111 7369676E 		.ascii	"signed char\000"
 4583      65642063 
 4583      68617200 
 4584              	.LASF53:
 4585 011d 4144435F 		.ascii	"ADC_SigDel_SetGCOR\000"
 4585      53696744 
 4585      656C5F53 
 4585      65744743 
 4585      4F5200
 4586              	.LASF97:
 4587 0130 4144435F 		.ascii	"ADC_SigDel_Ext_CP_Clk_SetModeRegister\000"
 4587      53696744 
 4587      656C5F45 
 4587      78745F43 
 4587      505F436C 
 4588              	.LASF15:
 4589 0156 696E7433 		.ascii	"int32\000"
 4589      3200
 4590              	.LASF5:
 4591 015c 6C6F6E67 		.ascii	"long int\000"
 4591      20696E74 
 4591      00
 4592              	.LASF45:
 4593 0165 4144435F 		.ascii	"ADC_SigDel_SetBufferGain\000"
 4593      53696744 
 4593      656C5F53 
 4593      65744275 
 4593      66666572 
 4594              	.LASF66:
 4595 017e 4144435F 		.ascii	"ADC_SigDel_SetGain\000"
 4595      53696744 
 4595      656C5F53 
 4595      65744761 
 4595      696E00
 4596              	.LASF20:
 4597 0191 72656731 		.ascii	"reg16\000"
 4597      3600
 4598              	.LASF87:
 4599 0197 4144435F 		.ascii	"ADC_SigDel_Config\000"
 4599      53696744 
 4599      656C5F43 
 4599      6F6E6669 
 4599      6700
 4600              	.LASF10:
 4601 01a9 75696E74 		.ascii	"uint8\000"
 4601      3800
 4602              	.LASF92:
ARM GAS  C:\Users\ANNASP~1\AppData\Local\Temp\ccsUsXsi.s 			page 120


 4603 01af 43794465 		.ascii	"CyDelayUs\000"
 4603      6C617955 
 4603      7300
 4604              	.LASF17:
 4605 01b9 646F7562 		.ascii	"double\000"
 4605      6C6500
 4606              	.LASF72:
 4607 01c0 566F6C74 		.ascii	"Volts\000"
 4607      7300
 4608              	.LASF41:
 4609 01c6 4144435F 		.ascii	"ADC_SigDel_Init\000"
 4609      53696744 
 4609      656C5F49 
 4609      6E697400 
 4610              	.LASF77:
 4611 01d6 4144435F 		.ascii	"ADC_SigDel_SelectConfiguration\000"
 4611      53696744 
 4611      656C5F53 
 4611      656C6563 
 4611      74436F6E 
 4612              	.LASF81:
 4613 01f5 4144435F 		.ascii	"ADC_SigDel_Read32\000"
 4613      53696744 
 4613      656C5F52 
 4613      65616433 
 4613      3200
 4614              	.LASF57:
 4615 0207 4144435F 		.ascii	"ADC_SigDel_StopConvert\000"
 4615      53696744 
 4615      656C5F53 
 4615      746F7043 
 4615      6F6E7665 
 4616              	.LASF12:
 4617 021e 75696E74 		.ascii	"uint32\000"
 4617      333200
 4618              	.LASF96:
 4619 0225 4379496E 		.ascii	"CyIntSetVector\000"
 4619      74536574 
 4619      56656374 
 4619      6F7200
 4620              	.LASF80:
 4621 0234 4144435F 		.ascii	"ADC_SigDel_Read16\000"
 4621      53696744 
 4621      656C5F52 
 4621      65616431 
 4621      3600
 4622              	.LASF71:
 4623 0246 4144435F 		.ascii	"ADC_SigDel_CountsTo_Volts\000"
 4623      53696744 
 4623      656C5F43 
 4623      6F756E74 
 4623      73546F5F 
 4624              	.LASF38:
 4625 0260 76616C75 		.ascii	"value\000"
 4625      6500
 4626              	.LASF59:
 4627 0266 7265744D 		.ascii	"retMode\000"
ARM GAS  C:\Users\ANNASP~1\AppData\Local\Temp\ccsUsXsi.s 			page 121


 4627      6F646500 
 4628              	.LASF9:
 4629 026e 756E7369 		.ascii	"unsigned int\000"
 4629      676E6564 
 4629      20696E74 
 4629      00
 4630              	.LASF62:
 4631 027b 4144435F 		.ascii	"ADC_SigDel_GetResult16\000"
 4631      53696744 
 4631      656C5F47 
 4631      65745265 
 4631      73756C74 
 4632              	.LASF48:
 4633 0292 4144435F 		.ascii	"ADC_SigDel_SetCoherency\000"
 4633      53696744 
 4633      656C5F53 
 4633      6574436F 
 4633      68657265 
 4634              	.LASF37:
 4635 02aa 4144435F 		.ascii	"ADC_SigDel_SetDSMRef0Reg\000"
 4635      53696744 
 4635      656C5F53 
 4635      65744453 
 4635      4D526566 
 4636              	.LASF6:
 4637 02c3 6C6F6E67 		.ascii	"long unsigned int\000"
 4637      20756E73 
 4637      69676E65 
 4637      6420696E 
 4637      7400
 4638              	.LASF40:
 4639 02d5 4144435F 		.ascii	"ADC_SigDel_InitConfig\000"
 4639      53696744 
 4639      656C5F49 
 4639      6E697443 
 4639      6F6E6669 
 4640              	.LASF60:
 4641 02eb 4144435F 		.ascii	"ADC_SigDel_GetResult8\000"
 4641      53696744 
 4641      656C5F47 
 4641      65745265 
 4641      73756C74 
 4642              	.LASF91:
 4643 0301 4379456E 		.ascii	"CyEnterCriticalSection\000"
 4643      74657243 
 4643      72697469 
 4643      63616C53 
 4643      65637469 
 4644              	.LASF42:
 4645 0318 4144435F 		.ascii	"ADC_SigDel_Enable\000"
 4645      53696744 
 4645      656C5F45 
 4645      6E61626C 
 4645      6500
 4646              	.LASF4:
 4647 032a 73686F72 		.ascii	"short unsigned int\000"
 4647      7420756E 
ARM GAS  C:\Users\ANNASP~1\AppData\Local\Temp\ccsUsXsi.s 			page 122


 4647      7369676E 
 4647      65642069 
 4647      6E7400
 4648              	.LASF36:
 4649 033d 4144435F 		.ascii	"ADC_SigDel_GainCompensation\000"
 4649      53696744 
 4649      656C5F47 
 4649      61696E43 
 4649      6F6D7065 
 4650              	.LASF13:
 4651 0359 696E7438 		.ascii	"int8\000"
 4651      00
 4652              	.LASF26:
 4653 035e 4144435F 		.ascii	"ADC_SigDel_GCOR_STRUCT\000"
 4653      53696744 
 4653      656C5F47 
 4653      434F525F 
 4653      53545255 
 4654              	.LASF34:
 4655 0375 67636F72 		.ascii	"gcorValue\000"
 4655      56616C75 
 4655      6500
 4656              	.LASF98:
 4657 037f 4144435F 		.ascii	"ADC_SigDel_theACLK_SetModeRegister\000"
 4657      53696744 
 4657      656C5F74 
 4657      68654143 
 4657      4C4B5F53 
 4658              	.LASF70:
 4659 03a2 6D566F6C 		.ascii	"mVolts\000"
 4659      747300
 4660              	.LASF32:
 4661 03a9 666C6173 		.ascii	"flash\000"
 4661      6800
 4662              	.LASF21:
 4663 03af 72656733 		.ascii	"reg32\000"
 4663      3200
 4664              	.LASF16:
 4665 03b5 666C6F61 		.ascii	"float32\000"
 4665      74333200 
 4666              	.LASF23:
 4667 03bd 73697A65 		.ascii	"sizetype\000"
 4667      74797065 
 4667      00
 4668              	.LASF22:
 4669 03c6 6C6F6E67 		.ascii	"long double\000"
 4669      20646F75 
 4669      626C6500 
 4670              	.LASF85:
 4671 03d2 4144435F 		.ascii	"ADC_SigDel_stopConversion\000"
 4671      53696744 
 4671      656C5F73 
 4671      746F7043 
 4671      6F6E7665 
 4672              	.LASF101:
 4673 03ec 47656E65 		.ascii	"Generated_Source\\PSoC5\\ADC_SigDel.c\000"
 4673      72617465 
ARM GAS  C:\Users\ANNASP~1\AppData\Local\Temp\ccsUsXsi.s 			page 123


 4673      645F536F 
 4673      75726365 
 4673      5C50536F 
 4674              	.LASF94:
 4675 0410 4144435F 		.ascii	"ADC_SigDel_Ext_CP_Clk_SetDividerRegister\000"
 4675      53696744 
 4675      656C5F45 
 4675      78745F43 
 4675      505F436C 
 4676              	.LASF49:
 4677 0439 636F6865 		.ascii	"coherency\000"
 4677      72656E63 
 4677      7900
 4678              	.LASF99:
 4679 0443 4379496E 		.ascii	"CyIntSetPriority\000"
 4679      74536574 
 4679      5072696F 
 4679      72697479 
 4679      00
 4680              	.LASF46:
 4681 0454 6761696E 		.ascii	"gain\000"
 4681      00
 4682              	.LASF43:
 4683 0459 4144435F 		.ascii	"ADC_SigDel_Start\000"
 4683      53696744 
 4683      656C5F53 
 4683      74617274 
 4683      00
 4684              	.LASF63:
 4685 046a 4144435F 		.ascii	"ADC_SigDel_GetResult32\000"
 4685      53696744 
 4685      656C5F47 
 4685      65745265 
 4685      73756C74 
 4686              	.LASF0:
 4687 0481 666C6F61 		.ascii	"float\000"
 4687      7400
 4688              	.LASF19:
 4689 0487 72656738 		.ascii	"reg8\000"
 4689      00
 4690              	.LASF28:
 4691 048c 69646561 		.ascii	"idealDecGain\000"
 4691      6C446563 
 4691      4761696E 
 4691      00
 4692              	.LASF33:
 4693 0499 6E6F726D 		.ascii	"normalised\000"
 4693      616C6973 
 4693      656400
 4694              	.LASF90:
 4695 04a4 43794861 		.ascii	"CyHalt\000"
 4695      6C7400
 4696              	.LASF2:
 4697 04ab 756E7369 		.ascii	"unsigned char\000"
 4697      676E6564 
 4697      20636861 
 4697      7200
ARM GAS  C:\Users\ANNASP~1\AppData\Local\Temp\ccsUsXsi.s 			page 124


 4698              	.LASF79:
 4699 04b9 4144435F 		.ascii	"ADC_SigDel_Read8\000"
 4699      53696744 
 4699      656C5F52 
 4699      65616438 
 4699      00
 4700              	.LASF54:
 4701 04ca 4144435F 		.ascii	"ADC_SigDel_ReadGCOR\000"
 4701      53696744 
 4701      656C5F52 
 4701      65616447 
 4701      434F5200 
 4702              	.LASF3:
 4703 04de 73686F72 		.ascii	"short int\000"
 4703      7420696E 
 4703      7400
 4704              	.LASF86:
 4705 04e8 4144435F 		.ascii	"ADC_SigDel_started\000"
 4705      53696744 
 4705      656C5F73 
 4705      74617274 
 4705      656400
 4706              	.LASF35:
 4707 04fb 67636F72 		.ascii	"gcorTmp\000"
 4707      546D7000 
 4708              	.LASF89:
 4709 0503 4144435F 		.ascii	"ADC_SigDel_CountsPerVolt\000"
 4709      53696744 
 4709      656C5F43 
 4709      6F756E74 
 4709      73506572 
 4710              	.LASF100:
 4711 051c 474E5520 		.ascii	"GNU C11 5.4.1 20160609 (release) [ARM/embedded-5-br"
 4711      43313120 
 4711      352E342E 
 4711      31203230 
 4711      31363036 
 4712 054f 616E6368 		.ascii	"anch revision 237715] -mcpu=cortex-m3 -mthumb -g -O"
 4712      20726576 
 4712      6973696F 
 4712      6E203233 
 4712      37373135 
 4713 0582 67202D66 		.ascii	"g -ffunction-sections -ffat-lto-objects\000"
 4713      66756E63 
 4713      74696F6E 
 4713      2D736563 
 4713      74696F6E 
 4714              	.LASF73:
 4715 05aa 4144435F 		.ascii	"ADC_SigDel_CountsTo_uVolts\000"
 4715      53696744 
 4715      656C5F43 
 4715      6F756E74 
 4715      73546F5F 
 4716              	.LASF30:
 4717 05c5 7265736F 		.ascii	"resolution\000"
 4717      6C757469 
 4717      6F6E00
ARM GAS  C:\Users\ANNASP~1\AppData\Local\Temp\ccsUsXsi.s 			page 125


 4718              	.LASF75:
 4719 05d0 636F6566 		.ascii	"coefA\000"
 4719      4100
 4720              	.LASF76:
 4721 05d6 636F6566 		.ascii	"coefB\000"
 4721      4200
 4722              	.LASF18:
 4723 05dc 63686172 		.ascii	"char\000"
 4723      00
 4724              	.LASF55:
 4725 05e1 6756616C 		.ascii	"gValue\000"
 4725      756500
 4726              	.LASF31:
 4727 05e8 636F6E66 		.ascii	"config\000"
 4727      696700
 4728              	.LASF25:
 4729 05ef 6776616C 		.ascii	"gval\000"
 4729      00
 4730              	.LASF78:
 4731 05f4 72657374 		.ascii	"restart\000"
 4731      61727400 
 4732              	.LASF52:
 4733 05fc 746D7056 		.ascii	"tmpValue\000"
 4733      616C7565 
 4733      00
 4734              	.LASF95:
 4735 0605 4144435F 		.ascii	"ADC_SigDel_theACLK_SetDividerRegister\000"
 4735      53696744 
 4735      656C5F74 
 4735      68654143 
 4735      4C4B5F53 
 4736              	.LASF65:
 4737 062b 6F666673 		.ascii	"offset\000"
 4737      657400
 4738              	.LASF68:
 4739 0632 4144435F 		.ascii	"ADC_SigDel_CountsTo_mVolts\000"
 4739      53696744 
 4739      656C5F43 
 4739      6F756E74 
 4739      73546F5F 
 4740              	.LASF69:
 4741 064d 61646343 		.ascii	"adcCounts\000"
 4741      6F756E74 
 4741      7300
 4742              	.LASF39:
 4743 0657 656E6162 		.ascii	"enableInterrupts\000"
 4743      6C65496E 
 4743      74657272 
 4743      75707473 
 4743      00
 4744              	.LASF51:
 4745 0668 73746174 		.ascii	"status\000"
 4745      757300
 4746              	.LASF82:
 4747 066f 4144435F 		.ascii	"ADC_SigDel_gcor\000"
 4747      53696744 
 4747      656C5F67 
ARM GAS  C:\Users\ANNASP~1\AppData\Local\Temp\ccsUsXsi.s 			page 126


 4747      636F7200 
 4748              	.LASF50:
 4749 067f 6761696E 		.ascii	"gainAdjust\000"
 4749      41646A75 
 4749      737400
 4750              	.LASF74:
 4751 068a 75566F6C 		.ascii	"uVolts\000"
 4751      747300
 4752              	.LASF14:
 4753 0691 696E7431 		.ascii	"int16\000"
 4753      3600
 4754              	.LASF83:
 4755 0697 4144435F 		.ascii	"ADC_SigDel_initVar\000"
 4755      53696744 
 4755      656C5F69 
 4755      6E697456 
 4755      617200
 4756              	.LASF88:
 4757 06aa 4144435F 		.ascii	"ADC_SigDel_Offset\000"
 4757      53696744 
 4757      656C5F4F 
 4757      66667365 
 4757      7400
 4758              	.LASF47:
 4759 06bc 746D7052 		.ascii	"tmpReg\000"
 4759      656700
 4760              	.LASF61:
 4761 06c3 72657375 		.ascii	"result\000"
 4761      6C7400
 4762              	.LASF56:
 4763 06ca 4144435F 		.ascii	"ADC_SigDel_StartConvert\000"
 4763      53696744 
 4763      656C5F53 
 4763      74617274 
 4763      436F6E76 
 4764              		.ident	"GCC: (GNU Tools for ARM Embedded Processors) 5.4.1 20160609 (release) [ARM/embedded-5-bran
