ARM GAS  C:\Users\ANNASP~1\AppData\Local\Temp\ccjdbxlS.s 			page 1


   1              		.syntax unified
   2              		.cpu cortex-m3
   3              		.fpu softvfp
   4              		.eabi_attribute 20, 1
   5              		.eabi_attribute 21, 1
   6              		.eabi_attribute 23, 3
   7              		.eabi_attribute 24, 1
   8              		.eabi_attribute 25, 1
   9              		.eabi_attribute 26, 1
  10              		.eabi_attribute 30, 1
  11              		.eabi_attribute 34, 1
  12              		.eabi_attribute 18, 4
  13              		.thumb
  14              		.syntax unified
  15              		.file	"BT_protocols.c"
  16              		.text
  17              	.Ltext0:
  18              		.cfi_sections	.debug_frame
  19              		.section	.text.writeBT,"ax",%progbits
  20              		.align	2
  21              		.global	writeBT
  22              		.thumb
  23              		.thumb_func
  24              		.type	writeBT, %function
  25              	writeBT:
  26              	.LFB64:
  27              		.file 1 "BT_protocols.c"
   1:BT_protocols.c **** /* ========================================
   2:BT_protocols.c ****  *
   3:BT_protocols.c ****  * FILE with all the PROTOOLS FOR THE UART
   4:BT_protocols.c ****  * BLUETOOTH SERIAL COMMUNICATION
   5:BT_protocols.c ****  *
   6:BT_protocols.c ****  * ========================================
   7:BT_protocols.c **** */
   8:BT_protocols.c **** 
   9:BT_protocols.c **** /*******************************************************
  10:BT_protocols.c ****   *** UART INITIALIZATION ***
  11:BT_protocols.c ****   * switch on the HW needed by the UART for communication 
  12:BT_protocols.c ****   * > already implemented in the UART_Start() API  
  13:BT_protocols.c **** */
  14:BT_protocols.c **** 
  15:BT_protocols.c **** #include <project.h>
  16:BT_protocols.c **** #include "stdio.h"
  17:BT_protocols.c **** #include "stdlib.h"
  18:BT_protocols.c **** #include "BT_protocols.h"
  19:BT_protocols.c **** 
  20:BT_protocols.c **** /* **************************************************************
  21:BT_protocols.c ****    ******************   UART RECEIVE DATA ***********************
  22:BT_protocols.c ****    **************************************************************
  23:BT_protocols.c **** 
  24:BT_protocols.c ****    the incoming data are parameteres to set the measuring procedures, and instructions 
  25:BT_protocols.c ****    from the GUI. They come as : 
  26:BT_protocols.c ****                     [HEADER - 1 byte] [DATA - 1 byte] ... [DATA - 1 byte] [TAIL - 1 byte]
  27:BT_protocols.c ****    in the main we veirfy if there is incoming data, and if there is we switch the case according 
  28:BT_protocols.c ****    to the header. 
  29:BT_protocols.c ****                     
  30:BT_protocols.c ****    - reading is perfomed by the interrupt of the rx bluetooth, each incoming byte is saved in data_
ARM GAS  C:\Users\ANNASP~1\AppData\Local\Temp\ccjdbxlS.s 			page 2


  31:BT_protocols.c ****      until the TAIL is received. When tail is received a flag is raised and the main reads the data
  32:BT_protocols.c ****                     
  33:BT_protocols.c **** */
  34:BT_protocols.c **** 
  35:BT_protocols.c **** /* **************************************************************
  36:BT_protocols.c ****    ******************   UART SEND DATA ***********************
  37:BT_protocols.c ****    **************************************************************
  38:BT_protocols.c **** 
  39:BT_protocols.c ****    the outgoing data are readings of the ADC during the CV and CA procedures 
  40:BT_protocols.c ****    to the GUI and parameters. They come as : 
  41:BT_protocols.c ****                     [HEADER - 1 byte] [DATA - 1 byte] ... [DATA - 1 byte] [TAIL - 1 byte]
  42:BT_protocols.c ****    they are sent when the measure is finished, or when the buffer reaches MAX_SIZE_BUFFER 
  43:BT_protocols.c ****    
  44:BT_protocols.c ****    the buffer size is "counted" when the buffer is filled
  45:BT_protocols.c ****                     
  46:BT_protocols.c **** */
  47:BT_protocols.c **** 
  48:BT_protocols.c **** void writeBT(int sending_size){
  28              		.loc 1 48 0
  29              		.cfi_startproc
  30              		@ args = 0, pretend = 0, frame = 0
  31              		@ frame_needed = 0, uses_anonymous_args = 0
  32              	.LVL0:
  33 0000 08B5     		push	{r3, lr}
  34              		.cfi_def_cfa_offset 8
  35              		.cfi_offset 3, -8
  36              		.cfi_offset 14, -4
  37 0002 0346     		mov	r3, r0
  49:BT_protocols.c ****     
  50:BT_protocols.c ****     data_to_send[sending_size] = TAIL; //tail added at the end of the array
  38              		.loc 1 50 0
  39 0004 0848     		ldr	r0, .L5
  40              	.LVL1:
  41 0006 5A22     		movs	r2, #90
  42 0008 C254     		strb	r2, [r0, r3]
  51:BT_protocols.c ****     
  52:BT_protocols.c ****     
  53:BT_protocols.c ****     UART_BT_PutArray(data_to_send, sending_size+1); // pass the data_buffer[0] address and the buff
  43              		.loc 1 53 0
  44 000a 591C     		adds	r1, r3, #1
  45 000c C9B2     		uxtb	r1, r1
  46 000e FFF7FEFF 		bl	UART_BT_PutArray
  47              	.LVL2:
  48              	.LBB2:
  54:BT_protocols.c ****                                                     // +1 because we added the tail 
  55:BT_protocols.c ****     // clean the sending array
  56:BT_protocols.c ****     for(uint8_t i=0; i<DATA_MAX_SENDING_SIZE ; i++){
  49              		.loc 1 56 0
  50 0012 0023     		movs	r3, #0
  51 0014 04E0     		b	.L2
  52              	.LVL3:
  53              	.L3:
  57:BT_protocols.c ****         data_to_send[i] = 0;
  54              		.loc 1 57 0 discriminator 3
  55 0016 0021     		movs	r1, #0
  56 0018 034A     		ldr	r2, .L5
  57 001a D154     		strb	r1, [r2, r3]
ARM GAS  C:\Users\ANNASP~1\AppData\Local\Temp\ccjdbxlS.s 			page 3


  56:BT_protocols.c ****         data_to_send[i] = 0;
  58              		.loc 1 56 0 discriminator 3
  59 001c 0133     		adds	r3, r3, #1
  60              	.LVL4:
  61 001e DBB2     		uxtb	r3, r3
  62              	.LVL5:
  63              	.L2:
  56:BT_protocols.c ****         data_to_send[i] = 0;
  64              		.loc 1 56 0 is_stmt 0 discriminator 1
  65 0020 772B     		cmp	r3, #119
  66 0022 F8D9     		bls	.L3
  67              	.LBE2:
  58:BT_protocols.c ****     }
  59:BT_protocols.c **** }
  68              		.loc 1 59 0 is_stmt 1
  69 0024 08BD     		pop	{r3, pc}
  70              	.LVL6:
  71              	.L6:
  72 0026 00BF     		.align	2
  73              	.L5:
  74 0028 00000000 		.word	data_to_send
  75              		.cfi_endproc
  76              	.LFE64:
  77              		.size	writeBT, .-writeBT
  78              		.section	.text.errorBT,"ax",%progbits
  79              		.align	2
  80              		.global	errorBT
  81              		.thumb
  82              		.thumb_func
  83              		.type	errorBT, %function
  84              	errorBT:
  85              	.LFB65:
  60:BT_protocols.c **** 
  61:BT_protocols.c **** void errorBT(void){
  86              		.loc 1 61 0
  87              		.cfi_startproc
  88              		@ args = 0, pretend = 0, frame = 0
  89              		@ frame_needed = 0, uses_anonymous_args = 0
  90 0000 08B5     		push	{r3, lr}
  91              		.cfi_def_cfa_offset 8
  92              		.cfi_offset 3, -8
  93              		.cfi_offset 14, -4
  62:BT_protocols.c ****     
  63:BT_protocols.c ****     UART_BT_PutString("Error");
  94              		.loc 1 63 0
  95 0002 0248     		ldr	r0, .L9
  96 0004 FFF7FEFF 		bl	UART_BT_PutString
  97              	.LVL7:
  98 0008 08BD     		pop	{r3, pc}
  99              	.L10:
 100 000a 00BF     		.align	2
 101              	.L9:
 102 000c 00000000 		.word	.LC0
 103              		.cfi_endproc
 104              	.LFE65:
 105              		.size	errorBT, .-errorBT
 106              		.section	.text.BT_sending_manager,"ax",%progbits
ARM GAS  C:\Users\ANNASP~1\AppData\Local\Temp\ccjdbxlS.s 			page 4


 107              		.align	2
 108              		.global	BT_sending_manager
 109              		.thumb
 110              		.thumb_func
 111              		.type	BT_sending_manager, %function
 112              	BT_sending_manager:
 113              	.LFB66:
  64:BT_protocols.c ****     
  65:BT_protocols.c **** }
  66:BT_protocols.c **** 
  67:BT_protocols.c **** /* **************************************************************
  68:BT_protocols.c ****    ******************   BT SENDING MANAGER **********************
  69:BT_protocols.c ****    **************************************************************
  70:BT_protocols.c **** 
  71:BT_protocols.c ****    the UART sends 1 byte at each iteration, and should not send more 
  72:BT_protocols.c ****    than DATA_MAX_SENDING_SIZE, otherwise the cnncetion requires too long and 
  73:BT_protocols.c ****    it's easier to lose data. This function is used for when all the data from 
  74:BT_protocols.c ****    CV and CA needs to be sent. Takes the entire array of data (1000-2000 bytes) 
  75:BT_protocols.c ****    and splits it up into arrays of an appropriate sending size which are
  76:BT_protocols.c ****    sent by calling the writeBT function 
  77:BT_protocols.c ****                     
  78:BT_protocols.c **** */
  79:BT_protocols.c **** 
  80:BT_protocols.c **** void BT_sending_manager(uint8_t* data_long_BT_man, int sending_size){
 114              		.loc 1 80 0
 115              		.cfi_startproc
 116              		@ args = 0, pretend = 0, frame = 0
 117              		@ frame_needed = 0, uses_anonymous_args = 0
 118              	.LVL8:
 119 0000 F8B5     		push	{r3, r4, r5, r6, r7, lr}
 120              		.cfi_def_cfa_offset 24
 121              		.cfi_offset 3, -24
 122              		.cfi_offset 4, -20
 123              		.cfi_offset 5, -16
 124              		.cfi_offset 6, -12
 125              		.cfi_offset 7, -8
 126              		.cfi_offset 14, -4
 127 0002 0746     		mov	r7, r0
 128 0004 0E46     		mov	r6, r1
 129              	.LVL9:
  81:BT_protocols.c ****     
  82:BT_protocols.c ****     int index=0;
  83:BT_protocols.c ****     for(index = 0; index < sending_size; index++){
 130              		.loc 1 83 0
 131 0006 0024     		movs	r4, #0
 132 0008 23E0     		b	.L12
 133              	.LVL10:
 134              	.L18:
  84:BT_protocols.c ****         if(index<DATA_MAX_SENDING_SIZE){
 135              		.loc 1 84 0
 136 000a 772C     		cmp	r4, #119
 137 000c 03DC     		bgt	.L13
  85:BT_protocols.c ****             data_to_send[index] = data_long_BT_man[index];
 138              		.loc 1 85 0
 139 000e 3A5D     		ldrb	r2, [r7, r4]	@ zero_extendqisi2
 140 0010 204B     		ldr	r3, .L22
 141 0012 1A55     		strb	r2, [r3, r4]
ARM GAS  C:\Users\ANNASP~1\AppData\Local\Temp\ccjdbxlS.s 			page 5


 142 0014 1CE0     		b	.L14
 143              	.L13:
  86:BT_protocols.c ****         } else {
  87:BT_protocols.c ****             if((index%DATA_MAX_SENDING_SIZE)==0&&(index!=0)){ // filled one array to send, we call 
 144              		.loc 1 87 0
 145 0016 204A     		ldr	r2, .L22+4
 146 0018 84FB0223 		smull	r2, r3, r4, r2
 147 001c E518     		adds	r5, r4, r3
 148 001e E317     		asrs	r3, r4, #31
 149 0020 C3EBA515 		rsb	r5, r3, r5, asr #6
 150 0024 C5EB0515 		rsb	r5, r5, r5, lsl #4
 151 0028 EB00     		lsls	r3, r5, #3
 152 002a E51A     		subs	r5, r4, r3
 153 002c 0DD1     		bne	.L15
 154              		.loc 1 87 0 is_stmt 0 discriminator 1
 155 002e 64B1     		cbz	r4, .L15
  88:BT_protocols.c ****                 //writeBT(DATA_MAX_SENDING_SIZE);
  89:BT_protocols.c ****                 UART_BT_PutArray(data_to_send, DATA_MAX_SENDING_SIZE); // pass the data_buffer[0] a
 156              		.loc 1 89 0 is_stmt 1
 157 0030 7821     		movs	r1, #120
 158 0032 1848     		ldr	r0, .L22
 159 0034 FFF7FEFF 		bl	UART_BT_PutArray
 160              	.LVL11:
 161              	.LBB3:
  90:BT_protocols.c ****                                                     // +1 because we added the tail 
  91:BT_protocols.c ****             // clean the sending array
  92:BT_protocols.c ****             for(uint8_t i=0; i<DATA_MAX_SENDING_SIZE ; i++){
 162              		.loc 1 92 0
 163 0038 0023     		movs	r3, #0
 164 003a 04E0     		b	.L16
 165              	.LVL12:
 166              	.L17:
  93:BT_protocols.c ****                 data_to_send[i] = 0;
 167              		.loc 1 93 0 discriminator 3
 168 003c 0021     		movs	r1, #0
 169 003e 154A     		ldr	r2, .L22
 170 0040 D154     		strb	r1, [r2, r3]
  92:BT_protocols.c ****                 data_to_send[i] = 0;
 171              		.loc 1 92 0 discriminator 3
 172 0042 0133     		adds	r3, r3, #1
 173              	.LVL13:
 174 0044 DBB2     		uxtb	r3, r3
 175              	.LVL14:
 176              	.L16:
  92:BT_protocols.c ****                 data_to_send[i] = 0;
 177              		.loc 1 92 0 is_stmt 0 discriminator 1
 178 0046 772B     		cmp	r3, #119
 179 0048 F8D9     		bls	.L17
 180              	.LVL15:
 181              	.L15:
 182              	.LBE3:
  94:BT_protocols.c ****             }
  95:BT_protocols.c ****         }
  96:BT_protocols.c ****             
  97:BT_protocols.c ****             data_to_send[index%DATA_MAX_SENDING_SIZE] = data_long_BT_man[index]; 
 183              		.loc 1 97 0 is_stmt 1
 184 004a 3A5D     		ldrb	r2, [r7, r4]	@ zero_extendqisi2
ARM GAS  C:\Users\ANNASP~1\AppData\Local\Temp\ccjdbxlS.s 			page 6


 185 004c 114B     		ldr	r3, .L22
 186 004e 5A55     		strb	r2, [r3, r5]
 187              	.L14:
  83:BT_protocols.c ****         if(index<DATA_MAX_SENDING_SIZE){
 188              		.loc 1 83 0 discriminator 2
 189 0050 0134     		adds	r4, r4, #1
 190              	.LVL16:
 191              	.L12:
  83:BT_protocols.c ****         if(index<DATA_MAX_SENDING_SIZE){
 192              		.loc 1 83 0 is_stmt 0 discriminator 1
 193 0052 B442     		cmp	r4, r6
 194 0054 D9DB     		blt	.L18
  98:BT_protocols.c ****         }
  99:BT_protocols.c ****     }
 100:BT_protocols.c ****     // sending of extra "last piece" of array which does not reach the SENDING SIZE
 101:BT_protocols.c ****     // this is not needed in out case, our measures arrays will always be 2*lut_legth
 102:BT_protocols.c ****     
 103:BT_protocols.c ****     data_to_send[index%DATA_MAX_SENDING_SIZE] = TAIL;
 195              		.loc 1 103 0 is_stmt 1
 196 0056 104A     		ldr	r2, .L22+4
 197 0058 84FB0223 		smull	r2, r3, r4, r2
 198 005c E218     		adds	r2, r4, r3
 199 005e E317     		asrs	r3, r4, #31
 200 0060 C3EBA213 		rsb	r3, r3, r2, asr #6
 201 0064 C3EB0313 		rsb	r3, r3, r3, lsl #4
 202 0068 DA00     		lsls	r2, r3, #3
 203 006a A31A     		subs	r3, r4, r2
 204 006c 0948     		ldr	r0, .L22
 205 006e 5A22     		movs	r2, #90
 206 0070 C254     		strb	r2, [r0, r3]
 104:BT_protocols.c ****     data_to_send[(index%DATA_MAX_SENDING_SIZE)+1] = TAIL; //tail added at the end of the array
 207              		.loc 1 104 0
 208 0072 591C     		adds	r1, r3, #1
 209 0074 4254     		strb	r2, [r0, r1]
 105:BT_protocols.c ****     
 106:BT_protocols.c ****     UART_BT_PutArray(data_to_send, (index%DATA_MAX_SENDING_SIZE)+2); // pass the data_buffer[0] add
 210              		.loc 1 106 0
 211 0076 991C     		adds	r1, r3, #2
 212 0078 C9B2     		uxtb	r1, r1
 213 007a FFF7FEFF 		bl	UART_BT_PutArray
 214              	.LVL17:
 215              	.LBB4:
 107:BT_protocols.c ****                                                     // +1 because we added the tail 
 108:BT_protocols.c ****     // clean the sending array
 109:BT_protocols.c ****     for(uint8_t i=0; i<DATA_MAX_SENDING_SIZE ; i++){
 216              		.loc 1 109 0
 217 007e 0023     		movs	r3, #0
 218 0080 04E0     		b	.L19
 219              	.LVL18:
 220              	.L20:
 110:BT_protocols.c ****         data_to_send[i] = 0;
 221              		.loc 1 110 0 discriminator 3
 222 0082 0021     		movs	r1, #0
 223 0084 034A     		ldr	r2, .L22
 224 0086 D154     		strb	r1, [r2, r3]
 109:BT_protocols.c ****         data_to_send[i] = 0;
 225              		.loc 1 109 0 discriminator 3
ARM GAS  C:\Users\ANNASP~1\AppData\Local\Temp\ccjdbxlS.s 			page 7


 226 0088 0133     		adds	r3, r3, #1
 227              	.LVL19:
 228 008a DBB2     		uxtb	r3, r3
 229              	.LVL20:
 230              	.L19:
 109:BT_protocols.c ****         data_to_send[i] = 0;
 231              		.loc 1 109 0 is_stmt 0 discriminator 1
 232 008c 772B     		cmp	r3, #119
 233 008e F8D9     		bls	.L20
 234              	.LBE4:
 111:BT_protocols.c ****     }
 112:BT_protocols.c **** }
 235              		.loc 1 112 0 is_stmt 1
 236 0090 F8BD     		pop	{r3, r4, r5, r6, r7, pc}
 237              	.LVL21:
 238              	.L23:
 239 0092 00BF     		.align	2
 240              	.L22:
 241 0094 00000000 		.word	data_to_send
 242 0098 89888888 		.word	-2004318071
 243              		.cfi_endproc
 244              	.LFE66:
 245              		.size	BT_sending_manager, .-BT_sending_manager
 246              		.section	.text.sendMeasures,"ax",%progbits
 247              		.align	2
 248              		.global	sendMeasures
 249              		.thumb
 250              		.thumb_func
 251              		.type	sendMeasures, %function
 252              	sendMeasures:
 253              	.LFB67:
 113:BT_protocols.c **** 
 114:BT_protocols.c **** 
 115:BT_protocols.c **** void sendMeasures(void){ // called by the ISR when the measures are finished 
 254              		.loc 1 115 0
 255              		.cfi_startproc
 256              		@ args = 0, pretend = 0, frame = 0
 257              		@ frame_needed = 0, uses_anonymous_args = 0
 258 0000 10B5     		push	{r4, lr}
 259              		.cfi_def_cfa_offset 8
 260              		.cfi_offset 4, -8
 261              		.cfi_offset 14, -4
 116:BT_protocols.c ****     
 117:BT_protocols.c ****     BT_sending_manager(data_long, lut_length*2); // send the measured voltages  
 262              		.loc 1 117 0
 263 0002 184B     		ldr	r3, .L30
 264 0004 1988     		ldrh	r1, [r3]
 265 0006 4900     		lsls	r1, r1, #1
 266 0008 1748     		ldr	r0, .L30+4
 267 000a FFF7FEFF 		bl	BT_sending_manager
 268              	.LVL22:
 269              	.LBB5:
 118:BT_protocols.c ****     
 119:BT_protocols.c ****     for(int i=0; i<DATA_LONG_SIZE; i++){
 270              		.loc 1 119 0
 271 000e 0023     		movs	r3, #0
 272 0010 03E0     		b	.L25
ARM GAS  C:\Users\ANNASP~1\AppData\Local\Temp\ccjdbxlS.s 			page 8


 273              	.LVL23:
 274              	.L26:
 120:BT_protocols.c ****         data_long[i]=0; 
 275              		.loc 1 120 0 discriminator 3
 276 0012 0021     		movs	r1, #0
 277 0014 144A     		ldr	r2, .L30+4
 278 0016 D154     		strb	r1, [r2, r3]
 119:BT_protocols.c ****         data_long[i]=0; 
 279              		.loc 1 119 0 discriminator 3
 280 0018 0133     		adds	r3, r3, #1
 281              	.LVL24:
 282              	.L25:
 119:BT_protocols.c ****         data_long[i]=0; 
 283              		.loc 1 119 0 is_stmt 0 discriminator 1
 284 001a 41F28732 		movw	r2, #4999
 285 001e 9342     		cmp	r3, r2
 286 0020 F7DD     		ble	.L26
 287 0022 0023     		movs	r3, #0
 288              	.LVL25:
 289 0024 0EE0     		b	.L27
 290              	.LVL26:
 291              	.L28:
 292              	.LBE5:
 293              	.LBB6:
 294              	.LBB7:
 121:BT_protocols.c ****     }
 122:BT_protocols.c ****     
 123:BT_protocols.c ****     for(int i = 0; i < lut_length; i++){ //create the array and send the imposed voltages
 124:BT_protocols.c ****         uint8_t LSB_data = waveform_lut[i] & 0xFF;
 295              		.loc 1 124 0 is_stmt 1 discriminator 3
 296 0026 114A     		ldr	r2, .L30+8
 297 0028 32F81310 		ldrh	r1, [r2, r3, lsl #1]
 298 002c C9B2     		uxtb	r1, r1
 299              	.LVL27:
 125:BT_protocols.c ****         uint8_t MSB_data = waveform_lut[i] >> 8;
 300              		.loc 1 125 0 discriminator 3
 301 002e 32F81300 		ldrh	r0, [r2, r3, lsl #1]
 302 0032 C0F30720 		ubfx	r0, r0, #8, #8
 303              	.LVL28:
 126:BT_protocols.c ****         data_long[2*i] = MSB_data; // i = 0 -> 0 e 1 , i = 2 -> 
 304              		.loc 1 126 0 discriminator 3
 305 0036 5A00     		lsls	r2, r3, #1
 306 0038 0B4C     		ldr	r4, .L30+4
 307 003a 04F81300 		strb	r0, [r4, r3, lsl #1]
 127:BT_protocols.c ****         data_long[2*i+1] = LSB_data;
 308              		.loc 1 127 0 discriminator 3
 309 003e 0132     		adds	r2, r2, #1
 310 0040 A154     		strb	r1, [r4, r2]
 311              	.LBE7:
 123:BT_protocols.c ****         uint8_t LSB_data = waveform_lut[i] & 0xFF;
 312              		.loc 1 123 0 discriminator 3
 313 0042 0133     		adds	r3, r3, #1
 314              	.LVL29:
 315              	.L27:
 123:BT_protocols.c ****         uint8_t LSB_data = waveform_lut[i] & 0xFF;
 316              		.loc 1 123 0 is_stmt 0 discriminator 1
 317 0044 074A     		ldr	r2, .L30
ARM GAS  C:\Users\ANNASP~1\AppData\Local\Temp\ccjdbxlS.s 			page 9


 318 0046 1288     		ldrh	r2, [r2]
 319 0048 9342     		cmp	r3, r2
 320 004a ECDB     		blt	.L28
 321              	.LBE6:
 128:BT_protocols.c ****     }
 129:BT_protocols.c ****     CyDelay(500);
 322              		.loc 1 129 0 is_stmt 1
 323 004c 4FF4FA70 		mov	r0, #500
 324 0050 FFF7FEFF 		bl	CyDelay
 325              	.LVL30:
 130:BT_protocols.c ****     
 131:BT_protocols.c ****     BT_sending_manager(data_long, lut_length*2); // incompatible pointers, if it's an issue copy 
 326              		.loc 1 131 0
 327 0054 034B     		ldr	r3, .L30
 328 0056 1988     		ldrh	r1, [r3]
 329 0058 4900     		lsls	r1, r1, #1
 330 005a 0348     		ldr	r0, .L30+4
 331 005c FFF7FEFF 		bl	BT_sending_manager
 332              	.LVL31:
 333 0060 10BD     		pop	{r4, pc}
 334              	.L31:
 335 0062 00BF     		.align	2
 336              	.L30:
 337 0064 00000000 		.word	lut_length
 338 0068 00000000 		.word	data_long
 339 006c 00000000 		.word	waveform_lut
 340              		.cfi_endproc
 341              	.LFE67:
 342              		.size	sendMeasures, .-sendMeasures
 343              		.comm	finished_procedure_flag,1,1
 344              		.comm	data_long,5000,4
 345              		.comm	data_to_send,120,4
 346              		.comm	temp,20,4
 347              		.comm	data_buffer,20,4
 348              		.comm	selected_voltage_source,1,1
 349              		.comm	tia_calibration_values,21,4
 350              		.comm	lut_length,2,2
 351              		.comm	lut_index,2,2
 352              		.comm	waveform_lut,10010,4
 353              		.comm	lut_value,2,2
 354              		.comm	return_value,4,4
 355              		.comm	dac_ground_value,2,2
 356              		.section	.rodata.str1.4,"aMS",%progbits,1
 357              		.align	2
 358              	.LC0:
 359 0000 4572726F 		.ascii	"Error\000"
 359      7200
 360              		.bss
 361              		.type	input_flag, %object
 362              		.size	input_flag, 1
 363              	input_flag:
 364 0000 00       		.space	1
 365              		.type	connection_state, %object
 366              		.size	connection_state, 1
 367              	connection_state:
 368 0001 00       		.space	1
 369              		.type	buffer_index, %object
ARM GAS  C:\Users\ANNASP~1\AppData\Local\Temp\ccjdbxlS.s 			page 10


 370              		.size	buffer_index, 1
 371              	buffer_index:
 372 0002 00       		.space	1
 373              		.text
 374              	.Letext0:
 375              		.file 2 "c:\\program files (x86)\\cypress\\psoc creator\\4.4\\psoc creator\\import\\gnu\\arm\\5.4.
 376              		.file 3 "c:\\program files (x86)\\cypress\\psoc creator\\4.4\\psoc creator\\import\\gnu\\arm\\5.4.
 377              		.file 4 "Generated_Source\\PSoC5/cytypes.h"
 378              		.file 5 "globals.h"
 379              		.file 6 "Generated_Source\\PSoC5/core_cm3.h"
 380              		.file 7 "BT_protocols.h"
 381              		.file 8 "Generated_Source\\PSoC5/UART_BT.h"
 382              		.file 9 "Generated_Source\\PSoC5/CyLib.h"