ARM GAS  C:\Users\ANNASP~1\AppData\Local\Temp\ccsytGYf.s 			page 1


   1              		.syntax unified
   2              		.cpu cortex-m3
   3              		.fpu softvfp
   4              		.eabi_attribute 20, 1
   5              		.eabi_attribute 21, 1
   6              		.eabi_attribute 23, 3
   7              		.eabi_attribute 24, 1
   8              		.eabi_attribute 25, 1
   9              		.eabi_attribute 26, 1
  10              		.eabi_attribute 30, 1
  11              		.eabi_attribute 34, 1
  12              		.eabi_attribute 18, 4
  13              		.thumb
  14              		.syntax unified
  15              		.file	"cyfitter_cfg.c"
  16              		.text
  17              	.Ltext0:
  18              		.cfi_sections	.debug_frame
  19              		.section	.text.CyClockStartupError,"ax",%progbits
  20              		.align	2
  21              		.thumb
  22              		.thumb_func
  23              		.type	CyClockStartupError, %function
  24              	CyClockStartupError:
  25              	.LFB3:
  26              		.file 1 "Generated_Source\\PSoC5\\cyfitter_cfg.c"
   1:Generated_Source\PSoC5/cyfitter_cfg.c **** 
   2:Generated_Source\PSoC5/cyfitter_cfg.c **** /*******************************************************************************
   3:Generated_Source\PSoC5/cyfitter_cfg.c **** * File Name: cyfitter_cfg.c
   4:Generated_Source\PSoC5/cyfitter_cfg.c **** * 
   5:Generated_Source\PSoC5/cyfitter_cfg.c **** * PSoC Creator  4.4
   6:Generated_Source\PSoC5/cyfitter_cfg.c **** *
   7:Generated_Source\PSoC5/cyfitter_cfg.c **** * Description:
   8:Generated_Source\PSoC5/cyfitter_cfg.c **** * This file contains device initialization code.
   9:Generated_Source\PSoC5/cyfitter_cfg.c **** * Except for the user defined sections in CyClockStartupError(), this file should not be modified.
  10:Generated_Source\PSoC5/cyfitter_cfg.c **** * This file is automatically generated by PSoC Creator.
  11:Generated_Source\PSoC5/cyfitter_cfg.c **** *
  12:Generated_Source\PSoC5/cyfitter_cfg.c **** ********************************************************************************
  13:Generated_Source\PSoC5/cyfitter_cfg.c **** * Copyright (c) 2007-2020 Cypress Semiconductor.  All rights reserved.
  14:Generated_Source\PSoC5/cyfitter_cfg.c **** * You may use this file only in accordance with the license, terms, conditions, 
  15:Generated_Source\PSoC5/cyfitter_cfg.c **** * disclaimers, and limitations in the end user license agreement accompanying 
  16:Generated_Source\PSoC5/cyfitter_cfg.c **** * the software package with which this file was provided.
  17:Generated_Source\PSoC5/cyfitter_cfg.c **** ********************************************************************************/
  18:Generated_Source\PSoC5/cyfitter_cfg.c **** 
  19:Generated_Source\PSoC5/cyfitter_cfg.c **** #include <string.h>
  20:Generated_Source\PSoC5/cyfitter_cfg.c **** #include "cytypes.h"
  21:Generated_Source\PSoC5/cyfitter_cfg.c **** #include "cydevice_trm.h"
  22:Generated_Source\PSoC5/cyfitter_cfg.c **** #include "cyfitter.h"
  23:Generated_Source\PSoC5/cyfitter_cfg.c **** #include "CyLib.h"
  24:Generated_Source\PSoC5/cyfitter_cfg.c **** #include "cyfitter_cfg.h"
  25:Generated_Source\PSoC5/cyfitter_cfg.c **** #include "cyapicallbacks.h"
  26:Generated_Source\PSoC5/cyfitter_cfg.c **** 
  27:Generated_Source\PSoC5/cyfitter_cfg.c **** #define CY_NEED_CYCLOCKSTARTUPERROR 1
  28:Generated_Source\PSoC5/cyfitter_cfg.c **** 
  29:Generated_Source\PSoC5/cyfitter_cfg.c **** 
  30:Generated_Source\PSoC5/cyfitter_cfg.c **** #if defined(__GNUC__) || defined(__ARMCC_VERSION)
  31:Generated_Source\PSoC5/cyfitter_cfg.c ****     #define CYPACKED 
ARM GAS  C:\Users\ANNASP~1\AppData\Local\Temp\ccsytGYf.s 			page 2


  32:Generated_Source\PSoC5/cyfitter_cfg.c ****     #define CYPACKED_ATTR __attribute__ ((packed))
  33:Generated_Source\PSoC5/cyfitter_cfg.c ****     #define CYALIGNED __attribute__ ((aligned))
  34:Generated_Source\PSoC5/cyfitter_cfg.c ****     #define CY_CFG_UNUSED __attribute__ ((unused))
  35:Generated_Source\PSoC5/cyfitter_cfg.c ****     #ifndef CY_CFG_SECTION
  36:Generated_Source\PSoC5/cyfitter_cfg.c ****         #define CY_CFG_SECTION __attribute__ ((section(".psocinit")))
  37:Generated_Source\PSoC5/cyfitter_cfg.c ****     #endif
  38:Generated_Source\PSoC5/cyfitter_cfg.c ****     
  39:Generated_Source\PSoC5/cyfitter_cfg.c ****     #if defined(__ARMCC_VERSION)
  40:Generated_Source\PSoC5/cyfitter_cfg.c ****         #define CY_CFG_MEMORY_BARRIER() __memory_changed()
  41:Generated_Source\PSoC5/cyfitter_cfg.c ****     #else
  42:Generated_Source\PSoC5/cyfitter_cfg.c ****         #define CY_CFG_MEMORY_BARRIER() __sync_synchronize()
  43:Generated_Source\PSoC5/cyfitter_cfg.c ****     #endif
  44:Generated_Source\PSoC5/cyfitter_cfg.c ****     
  45:Generated_Source\PSoC5/cyfitter_cfg.c **** #elif defined(__ICCARM__)
  46:Generated_Source\PSoC5/cyfitter_cfg.c ****     #include <intrinsics.h>
  47:Generated_Source\PSoC5/cyfitter_cfg.c **** 
  48:Generated_Source\PSoC5/cyfitter_cfg.c ****     #define CYPACKED __packed
  49:Generated_Source\PSoC5/cyfitter_cfg.c ****     #define CYPACKED_ATTR 
  50:Generated_Source\PSoC5/cyfitter_cfg.c ****     #define CYALIGNED _Pragma("data_alignment=4")
  51:Generated_Source\PSoC5/cyfitter_cfg.c ****     #define CY_CFG_UNUSED _Pragma("diag_suppress=Pe177")
  52:Generated_Source\PSoC5/cyfitter_cfg.c ****     #define CY_CFG_SECTION _Pragma("location=\".psocinit\"")
  53:Generated_Source\PSoC5/cyfitter_cfg.c ****     
  54:Generated_Source\PSoC5/cyfitter_cfg.c ****     #define CY_CFG_MEMORY_BARRIER() __DMB()
  55:Generated_Source\PSoC5/cyfitter_cfg.c ****     
  56:Generated_Source\PSoC5/cyfitter_cfg.c **** #else
  57:Generated_Source\PSoC5/cyfitter_cfg.c ****     #error Unsupported toolchain
  58:Generated_Source\PSoC5/cyfitter_cfg.c **** #endif
  59:Generated_Source\PSoC5/cyfitter_cfg.c **** 
  60:Generated_Source\PSoC5/cyfitter_cfg.c **** #ifndef CYCODE
  61:Generated_Source\PSoC5/cyfitter_cfg.c ****     #define CYCODE
  62:Generated_Source\PSoC5/cyfitter_cfg.c **** #endif
  63:Generated_Source\PSoC5/cyfitter_cfg.c **** #ifndef CYDATA
  64:Generated_Source\PSoC5/cyfitter_cfg.c ****     #define CYDATA
  65:Generated_Source\PSoC5/cyfitter_cfg.c **** #endif
  66:Generated_Source\PSoC5/cyfitter_cfg.c **** #ifndef CYFAR
  67:Generated_Source\PSoC5/cyfitter_cfg.c ****     #define CYFAR
  68:Generated_Source\PSoC5/cyfitter_cfg.c **** #endif
  69:Generated_Source\PSoC5/cyfitter_cfg.c **** #ifndef CYXDATA
  70:Generated_Source\PSoC5/cyfitter_cfg.c ****     #define CYXDATA
  71:Generated_Source\PSoC5/cyfitter_cfg.c **** #endif
  72:Generated_Source\PSoC5/cyfitter_cfg.c **** 
  73:Generated_Source\PSoC5/cyfitter_cfg.c **** 
  74:Generated_Source\PSoC5/cyfitter_cfg.c **** CY_CFG_UNUSED
  75:Generated_Source\PSoC5/cyfitter_cfg.c **** static void CYMEMZERO(void *s, size_t n);
  76:Generated_Source\PSoC5/cyfitter_cfg.c **** CY_CFG_UNUSED
  77:Generated_Source\PSoC5/cyfitter_cfg.c **** static void CYMEMZERO(void *s, size_t n)
  78:Generated_Source\PSoC5/cyfitter_cfg.c **** {
  79:Generated_Source\PSoC5/cyfitter_cfg.c **** 	(void)memset(s, 0, n);
  80:Generated_Source\PSoC5/cyfitter_cfg.c **** }
  81:Generated_Source\PSoC5/cyfitter_cfg.c **** CY_CFG_UNUSED
  82:Generated_Source\PSoC5/cyfitter_cfg.c **** static void CYCONFIGCPY(void *dest, const void *src, size_t n);
  83:Generated_Source\PSoC5/cyfitter_cfg.c **** CY_CFG_UNUSED
  84:Generated_Source\PSoC5/cyfitter_cfg.c **** static void CYCONFIGCPY(void *dest, const void *src, size_t n)
  85:Generated_Source\PSoC5/cyfitter_cfg.c **** {
  86:Generated_Source\PSoC5/cyfitter_cfg.c **** 	(void)memcpy(dest, src, n);
  87:Generated_Source\PSoC5/cyfitter_cfg.c **** }
  88:Generated_Source\PSoC5/cyfitter_cfg.c **** CY_CFG_UNUSED
ARM GAS  C:\Users\ANNASP~1\AppData\Local\Temp\ccsytGYf.s 			page 3


  89:Generated_Source\PSoC5/cyfitter_cfg.c **** static void CYCONFIGCPYCODE(void *dest, const void *src, size_t n);
  90:Generated_Source\PSoC5/cyfitter_cfg.c **** CY_CFG_UNUSED
  91:Generated_Source\PSoC5/cyfitter_cfg.c **** static void CYCONFIGCPYCODE(void *dest, const void *src, size_t n)
  92:Generated_Source\PSoC5/cyfitter_cfg.c **** {
  93:Generated_Source\PSoC5/cyfitter_cfg.c **** 	(void)memcpy(dest, src, n);
  94:Generated_Source\PSoC5/cyfitter_cfg.c **** }
  95:Generated_Source\PSoC5/cyfitter_cfg.c **** 
  96:Generated_Source\PSoC5/cyfitter_cfg.c **** 
  97:Generated_Source\PSoC5/cyfitter_cfg.c **** 
  98:Generated_Source\PSoC5/cyfitter_cfg.c **** 
  99:Generated_Source\PSoC5/cyfitter_cfg.c **** /* Clock startup error codes                                                   */
 100:Generated_Source\PSoC5/cyfitter_cfg.c **** #define CYCLOCKSTART_NO_ERROR    0u
 101:Generated_Source\PSoC5/cyfitter_cfg.c **** #define CYCLOCKSTART_XTAL_ERROR  1u
 102:Generated_Source\PSoC5/cyfitter_cfg.c **** #define CYCLOCKSTART_32KHZ_ERROR 2u
 103:Generated_Source\PSoC5/cyfitter_cfg.c **** #define CYCLOCKSTART_PLL_ERROR   3u
 104:Generated_Source\PSoC5/cyfitter_cfg.c **** #define CYCLOCKSTART_FLL_ERROR   4u
 105:Generated_Source\PSoC5/cyfitter_cfg.c **** #define CYCLOCKSTART_WCO_ERROR   5u
 106:Generated_Source\PSoC5/cyfitter_cfg.c **** 
 107:Generated_Source\PSoC5/cyfitter_cfg.c **** 
 108:Generated_Source\PSoC5/cyfitter_cfg.c **** #ifdef CY_NEED_CYCLOCKSTARTUPERROR
 109:Generated_Source\PSoC5/cyfitter_cfg.c **** /*******************************************************************************
 110:Generated_Source\PSoC5/cyfitter_cfg.c **** * Function Name: CyClockStartupError
 111:Generated_Source\PSoC5/cyfitter_cfg.c **** ********************************************************************************
 112:Generated_Source\PSoC5/cyfitter_cfg.c **** * Summary:
 113:Generated_Source\PSoC5/cyfitter_cfg.c **** *  If an error is encountered during clock configuration (crystal startup error,
 114:Generated_Source\PSoC5/cyfitter_cfg.c **** *  PLL lock error, etc.), the system will end up here.  Unless reimplemented by
 115:Generated_Source\PSoC5/cyfitter_cfg.c **** *  the customer, this function will stop in an infinite loop.
 116:Generated_Source\PSoC5/cyfitter_cfg.c **** *
 117:Generated_Source\PSoC5/cyfitter_cfg.c **** * Parameters:
 118:Generated_Source\PSoC5/cyfitter_cfg.c **** *   void
 119:Generated_Source\PSoC5/cyfitter_cfg.c **** *
 120:Generated_Source\PSoC5/cyfitter_cfg.c **** * Return:
 121:Generated_Source\PSoC5/cyfitter_cfg.c **** *   void
 122:Generated_Source\PSoC5/cyfitter_cfg.c **** *
 123:Generated_Source\PSoC5/cyfitter_cfg.c **** *******************************************************************************/
 124:Generated_Source\PSoC5/cyfitter_cfg.c **** CY_CFG_UNUSED
 125:Generated_Source\PSoC5/cyfitter_cfg.c **** static void CyClockStartupError(uint8 errorCode);
 126:Generated_Source\PSoC5/cyfitter_cfg.c **** CY_CFG_UNUSED
 127:Generated_Source\PSoC5/cyfitter_cfg.c **** static void CyClockStartupError(uint8 errorCode)
 128:Generated_Source\PSoC5/cyfitter_cfg.c **** {
  27              		.loc 1 128 0
  28              		.cfi_startproc
  29              		@ Volatile: function does not return.
  30              		@ args = 0, pretend = 0, frame = 0
  31              		@ frame_needed = 0, uses_anonymous_args = 0
  32              		@ link register save eliminated.
  33              	.LVL0:
  34              	.L2:
  35 0000 FEE7     		b	.L2
  36              		.cfi_endproc
  37              	.LFE3:
  38              		.size	CyClockStartupError, .-CyClockStartupError
  39 0002 00BF     		.section	.text.cfg_write_bytes32,"ax",%progbits
  40              		.align	2
  41              		.thumb
  42              		.thumb_func
  43              		.type	cfg_write_bytes32, %function
ARM GAS  C:\Users\ANNASP~1\AppData\Local\Temp\ccsytGYf.s 			page 4


  44              	cfg_write_bytes32:
  45              	.LFB4:
 129:Generated_Source\PSoC5/cyfitter_cfg.c ****     /* To remove the compiler warning if errorCode not used.                */
 130:Generated_Source\PSoC5/cyfitter_cfg.c ****     errorCode = errorCode;
 131:Generated_Source\PSoC5/cyfitter_cfg.c **** 
 132:Generated_Source\PSoC5/cyfitter_cfg.c ****     /* If we have a clock startup error (bad MHz crystal, PLL lock, etc.),  */
 133:Generated_Source\PSoC5/cyfitter_cfg.c ****     /* we will end up here to allow the customer to implement something to  */
 134:Generated_Source\PSoC5/cyfitter_cfg.c ****     /* deal with the clock condition.                                       */
 135:Generated_Source\PSoC5/cyfitter_cfg.c **** 
 136:Generated_Source\PSoC5/cyfitter_cfg.c **** #ifdef CY_CFG_CLOCK_STARTUP_ERROR_CALLBACK
 137:Generated_Source\PSoC5/cyfitter_cfg.c ****     CY_CFG_Clock_Startup_ErrorCallback();
 138:Generated_Source\PSoC5/cyfitter_cfg.c **** #else
 139:Generated_Source\PSoC5/cyfitter_cfg.c ****     /*  If not using CY_CFG_CLOCK_STARTUP_ERROR_CALLBACK, place your clock startup code here. */
 140:Generated_Source\PSoC5/cyfitter_cfg.c ****     /* `#START CyClockStartupError` */
 141:Generated_Source\PSoC5/cyfitter_cfg.c **** 
 142:Generated_Source\PSoC5/cyfitter_cfg.c **** 
 143:Generated_Source\PSoC5/cyfitter_cfg.c **** 
 144:Generated_Source\PSoC5/cyfitter_cfg.c ****     /* `#END` */
 145:Generated_Source\PSoC5/cyfitter_cfg.c **** 
 146:Generated_Source\PSoC5/cyfitter_cfg.c ****     while(1) {}
 147:Generated_Source\PSoC5/cyfitter_cfg.c **** #endif /* CY_CFG_CLOCK_STARTUP_ERROR_CALLBACK */
 148:Generated_Source\PSoC5/cyfitter_cfg.c **** }
 149:Generated_Source\PSoC5/cyfitter_cfg.c **** #endif
 150:Generated_Source\PSoC5/cyfitter_cfg.c **** 
 151:Generated_Source\PSoC5/cyfitter_cfg.c **** #define CY_CFG_BASE_ADDR_COUNT 30u
 152:Generated_Source\PSoC5/cyfitter_cfg.c **** CYPACKED typedef struct
 153:Generated_Source\PSoC5/cyfitter_cfg.c **** {
 154:Generated_Source\PSoC5/cyfitter_cfg.c **** 	uint8 offset;
 155:Generated_Source\PSoC5/cyfitter_cfg.c **** 	uint8 value;
 156:Generated_Source\PSoC5/cyfitter_cfg.c **** } CYPACKED_ATTR cy_cfg_addrvalue_t;
 157:Generated_Source\PSoC5/cyfitter_cfg.c **** 
 158:Generated_Source\PSoC5/cyfitter_cfg.c **** #define cy_cfg_addr_table ((const uint32 CYFAR *)0x48000000u)
 159:Generated_Source\PSoC5/cyfitter_cfg.c **** #define cy_cfg_data_table ((const cy_cfg_addrvalue_t CYFAR *)0x48000078u)
 160:Generated_Source\PSoC5/cyfitter_cfg.c **** 
 161:Generated_Source\PSoC5/cyfitter_cfg.c **** /* UDB_0_1_0_CONFIG Address: CYDEV_UCFG_B1_P4_U1_BASE Size (bytes): 128 */
 162:Generated_Source\PSoC5/cyfitter_cfg.c **** #define BS_UDB_0_1_0_CONFIG_VAL ((const uint8 CYFAR *)0x48000470u)
 163:Generated_Source\PSoC5/cyfitter_cfg.c **** 
 164:Generated_Source\PSoC5/cyfitter_cfg.c **** /* IOPINS0_0 Address: CYREG_PRT0_DM0 Size (bytes): 8 */
 165:Generated_Source\PSoC5/cyfitter_cfg.c **** #define BS_IOPINS0_0_VAL ((const uint8 CYFAR *)0x480004F0u)
 166:Generated_Source\PSoC5/cyfitter_cfg.c **** 
 167:Generated_Source\PSoC5/cyfitter_cfg.c **** /* IOPINS0_7 Address: CYREG_PRT12_DR Size (bytes): 10 */
 168:Generated_Source\PSoC5/cyfitter_cfg.c **** #define BS_IOPINS0_7_VAL ((const uint8 CYFAR *)0x480004F8u)
 169:Generated_Source\PSoC5/cyfitter_cfg.c **** 
 170:Generated_Source\PSoC5/cyfitter_cfg.c **** /* IOPINS0_1 Address: CYREG_PRT1_DM0 Size (bytes): 8 */
 171:Generated_Source\PSoC5/cyfitter_cfg.c **** #define BS_IOPINS0_1_VAL ((const uint8 CYFAR *)0x48000504u)
 172:Generated_Source\PSoC5/cyfitter_cfg.c **** 
 173:Generated_Source\PSoC5/cyfitter_cfg.c **** /* IOPINS0_2 Address: CYREG_PRT2_DM0 Size (bytes): 8 */
 174:Generated_Source\PSoC5/cyfitter_cfg.c **** #define BS_IOPINS0_2_VAL ((const uint8 CYFAR *)0x4800050Cu)
 175:Generated_Source\PSoC5/cyfitter_cfg.c **** 
 176:Generated_Source\PSoC5/cyfitter_cfg.c **** /* IOPINS0_3 Address: CYREG_PRT3_DM0 Size (bytes): 8 */
 177:Generated_Source\PSoC5/cyfitter_cfg.c **** #define BS_IOPINS0_3_VAL ((const uint8 CYFAR *)0x48000514u)
 178:Generated_Source\PSoC5/cyfitter_cfg.c **** 
 179:Generated_Source\PSoC5/cyfitter_cfg.c **** /* CYDEV_CLKDIST_ACFG0_CFG0 Address: CYREG_CLKDIST_ACFG0_CFG0 Size (bytes): 4 */
 180:Generated_Source\PSoC5/cyfitter_cfg.c **** #define BS_CYDEV_CLKDIST_ACFG0_CFG0_VAL ((const uint8 CYFAR *)0x4800051Cu)
 181:Generated_Source\PSoC5/cyfitter_cfg.c **** 
 182:Generated_Source\PSoC5/cyfitter_cfg.c **** 
 183:Generated_Source\PSoC5/cyfitter_cfg.c **** /*******************************************************************************
ARM GAS  C:\Users\ANNASP~1\AppData\Local\Temp\ccsytGYf.s 			page 5


 184:Generated_Source\PSoC5/cyfitter_cfg.c **** * Function Name: cfg_write_bytes32
 185:Generated_Source\PSoC5/cyfitter_cfg.c **** ********************************************************************************
 186:Generated_Source\PSoC5/cyfitter_cfg.c **** * Summary:
 187:Generated_Source\PSoC5/cyfitter_cfg.c **** *  This function is used for setting up the chip configuration areas that
 188:Generated_Source\PSoC5/cyfitter_cfg.c **** *  contain relatively sparse data.
 189:Generated_Source\PSoC5/cyfitter_cfg.c **** *
 190:Generated_Source\PSoC5/cyfitter_cfg.c **** * Parameters:
 191:Generated_Source\PSoC5/cyfitter_cfg.c **** *   void
 192:Generated_Source\PSoC5/cyfitter_cfg.c **** *
 193:Generated_Source\PSoC5/cyfitter_cfg.c **** * Return:
 194:Generated_Source\PSoC5/cyfitter_cfg.c **** *   void
 195:Generated_Source\PSoC5/cyfitter_cfg.c **** *
 196:Generated_Source\PSoC5/cyfitter_cfg.c **** *******************************************************************************/
 197:Generated_Source\PSoC5/cyfitter_cfg.c **** static void cfg_write_bytes32(const uint32 addr_table[], const cy_cfg_addrvalue_t data_table[]);
 198:Generated_Source\PSoC5/cyfitter_cfg.c **** static void cfg_write_bytes32(const uint32 addr_table[], const cy_cfg_addrvalue_t data_table[])
 199:Generated_Source\PSoC5/cyfitter_cfg.c **** {
  46              		.loc 1 199 0
  47              		.cfi_startproc
  48              		@ args = 0, pretend = 0, frame = 0
  49              		@ frame_needed = 0, uses_anonymous_args = 0
  50              		@ link register save eliminated.
  51              	.LVL1:
  52              		.loc 1 199 0
  53 0000 F0B4     		push	{r4, r5, r6, r7}
  54              		.cfi_def_cfa_offset 16
  55              		.cfi_offset 4, -16
  56              		.cfi_offset 5, -12
  57              		.cfi_offset 6, -8
  58              		.cfi_offset 7, -4
  59              	.LVL2:
 200:Generated_Source\PSoC5/cyfitter_cfg.c **** 	/* For 32-bit little-endian architectures */
 201:Generated_Source\PSoC5/cyfitter_cfg.c **** 	uint32 i, j = 0u;
  60              		.loc 1 201 0
  61 0002 0022     		movs	r2, #0
 202:Generated_Source\PSoC5/cyfitter_cfg.c **** 	for (i = 0u; i < CY_CFG_BASE_ADDR_COUNT; i++)
  62              		.loc 1 202 0
  63 0004 1746     		mov	r7, r2
  64 0006 11E0     		b	.L4
  65              	.LVL3:
  66              	.L7:
  67              	.LBB2:
 203:Generated_Source\PSoC5/cyfitter_cfg.c **** 	{
 204:Generated_Source\PSoC5/cyfitter_cfg.c **** 		uint32 baseAddr = addr_table[i];
  68              		.loc 1 204 0
  69 0008 50F82760 		ldr	r6, [r0, r7, lsl #2]
  70              	.LVL4:
 205:Generated_Source\PSoC5/cyfitter_cfg.c **** 		uint8 count = (uint8)baseAddr;
  71              		.loc 1 205 0
  72 000c F3B2     		uxtb	r3, r6
  73              	.LVL5:
 206:Generated_Source\PSoC5/cyfitter_cfg.c **** 		baseAddr &= 0xFFFFFF00u;
  74              		.loc 1 206 0
  75 000e 26F0FF06 		bic	r6, r6, #255
  76              	.LVL6:
 207:Generated_Source\PSoC5/cyfitter_cfg.c **** 		while (count != 0u)
  77              		.loc 1 207 0
  78 0012 08E0     		b	.L5
ARM GAS  C:\Users\ANNASP~1\AppData\Local\Temp\ccsytGYf.s 			page 6


  79              	.L6:
 208:Generated_Source\PSoC5/cyfitter_cfg.c **** 		{
 209:Generated_Source\PSoC5/cyfitter_cfg.c **** 			CY_SET_REG8((void *)(baseAddr + data_table[j].offset), data_table[j].value);
  80              		.loc 1 209 0
  81 0014 01EB4205 		add	r5, r1, r2, lsl #1
  82 0018 11F81240 		ldrb	r4, [r1, r2, lsl #1]	@ zero_extendqisi2
  83 001c 6D78     		ldrb	r5, [r5, #1]	@ zero_extendqisi2
  84 001e A555     		strb	r5, [r4, r6]
 210:Generated_Source\PSoC5/cyfitter_cfg.c **** 			j++;
  85              		.loc 1 210 0
  86 0020 0132     		adds	r2, r2, #1
  87              	.LVL7:
 211:Generated_Source\PSoC5/cyfitter_cfg.c **** 			count--;
  88              		.loc 1 211 0
  89 0022 013B     		subs	r3, r3, #1
  90              	.LVL8:
  91 0024 DBB2     		uxtb	r3, r3
  92              	.LVL9:
  93              	.L5:
 207:Generated_Source\PSoC5/cyfitter_cfg.c **** 		{
  94              		.loc 1 207 0
  95 0026 002B     		cmp	r3, #0
  96 0028 F4D1     		bne	.L6
  97              	.LBE2:
 202:Generated_Source\PSoC5/cyfitter_cfg.c **** 	{
  98              		.loc 1 202 0 discriminator 2
  99 002a 0137     		adds	r7, r7, #1
 100              	.LVL10:
 101              	.L4:
 202:Generated_Source\PSoC5/cyfitter_cfg.c **** 	{
 102              		.loc 1 202 0 is_stmt 0 discriminator 1
 103 002c 1D2F     		cmp	r7, #29
 104 002e EBD9     		bls	.L7
 212:Generated_Source\PSoC5/cyfitter_cfg.c **** 		}
 213:Generated_Source\PSoC5/cyfitter_cfg.c **** 	}
 214:Generated_Source\PSoC5/cyfitter_cfg.c **** }
 105              		.loc 1 214 0 is_stmt 1
 106 0030 F0BC     		pop	{r4, r5, r6, r7}
 107              		.cfi_restore 7
 108              		.cfi_restore 6
 109              		.cfi_restore 5
 110              		.cfi_restore 4
 111              		.cfi_def_cfa_offset 0
 112              	.LVL11:
 113 0032 7047     		bx	lr
 114              		.cfi_endproc
 115              	.LFE4:
 116              		.size	cfg_write_bytes32, .-cfg_write_bytes32
 117              		.section	.text.AnalogSetDefault,"ax",%progbits
 118              		.align	2
 119              		.thumb
 120              		.thumb_func
 121              		.type	AnalogSetDefault, %function
 122              	AnalogSetDefault:
 123              	.LFB6:
 215:Generated_Source\PSoC5/cyfitter_cfg.c **** 
 216:Generated_Source\PSoC5/cyfitter_cfg.c **** /*******************************************************************************
ARM GAS  C:\Users\ANNASP~1\AppData\Local\Temp\ccsytGYf.s 			page 7


 217:Generated_Source\PSoC5/cyfitter_cfg.c **** * Function Name: ClockSetup
 218:Generated_Source\PSoC5/cyfitter_cfg.c **** ********************************************************************************
 219:Generated_Source\PSoC5/cyfitter_cfg.c **** *
 220:Generated_Source\PSoC5/cyfitter_cfg.c **** * Summary:
 221:Generated_Source\PSoC5/cyfitter_cfg.c **** *  Performs the initialization of all of the clocks in the device based on the
 222:Generated_Source\PSoC5/cyfitter_cfg.c **** *  settings in the Clock tab of the DWR.  This includes enabling the requested
 223:Generated_Source\PSoC5/cyfitter_cfg.c **** *  clocks and setting the necessary dividers to produce the desired frequency. 
 224:Generated_Source\PSoC5/cyfitter_cfg.c **** *
 225:Generated_Source\PSoC5/cyfitter_cfg.c **** * Parameters:
 226:Generated_Source\PSoC5/cyfitter_cfg.c **** *  void
 227:Generated_Source\PSoC5/cyfitter_cfg.c **** *
 228:Generated_Source\PSoC5/cyfitter_cfg.c **** * Return:
 229:Generated_Source\PSoC5/cyfitter_cfg.c **** *  void
 230:Generated_Source\PSoC5/cyfitter_cfg.c **** *
 231:Generated_Source\PSoC5/cyfitter_cfg.c **** *******************************************************************************/
 232:Generated_Source\PSoC5/cyfitter_cfg.c **** static void ClockSetup(void);
 233:Generated_Source\PSoC5/cyfitter_cfg.c **** static void ClockSetup(void)
 234:Generated_Source\PSoC5/cyfitter_cfg.c **** {
 235:Generated_Source\PSoC5/cyfitter_cfg.c **** 	uint32 timeout;
 236:Generated_Source\PSoC5/cyfitter_cfg.c **** 	uint8 pllLock;
 237:Generated_Source\PSoC5/cyfitter_cfg.c **** 
 238:Generated_Source\PSoC5/cyfitter_cfg.c **** 
 239:Generated_Source\PSoC5/cyfitter_cfg.c **** 	/* Configure Digital Clocks based on settings from Clock DWR */
 240:Generated_Source\PSoC5/cyfitter_cfg.c **** 	CY_SET_XTND_REG16((void CYFAR *)(CYREG_CLKDIST_DCFG0_CFG0), 0x0063u);
 241:Generated_Source\PSoC5/cyfitter_cfg.c **** 	CY_SET_XTND_REG8((void CYFAR *)(CYREG_CLKDIST_DCFG0_CFG0 + 0x2u), 0x18u);
 242:Generated_Source\PSoC5/cyfitter_cfg.c **** 	CY_SET_XTND_REG16((void CYFAR *)(CYREG_CLKDIST_DCFG1_CFG0), 0x0000u);
 243:Generated_Source\PSoC5/cyfitter_cfg.c **** 	CY_SET_XTND_REG8((void CYFAR *)(CYREG_CLKDIST_DCFG1_CFG0 + 0x2u), 0x50u);
 244:Generated_Source\PSoC5/cyfitter_cfg.c **** 	CY_SET_XTND_REG16((void CYFAR *)(CYREG_CLKDIST_DCFG2_CFG0), 0x005Fu);
 245:Generated_Source\PSoC5/cyfitter_cfg.c **** 	CY_SET_XTND_REG8((void CYFAR *)(CYREG_CLKDIST_DCFG2_CFG0 + 0x2u), 0x18u);
 246:Generated_Source\PSoC5/cyfitter_cfg.c **** 	CY_SET_XTND_REG16((void CYFAR *)(CYREG_CLKDIST_DCFG3_CFG0), 0x0138u);
 247:Generated_Source\PSoC5/cyfitter_cfg.c **** 	CY_SET_XTND_REG8((void CYFAR *)(CYREG_CLKDIST_DCFG3_CFG0 + 0x2u), 0x18u);
 248:Generated_Source\PSoC5/cyfitter_cfg.c **** 
 249:Generated_Source\PSoC5/cyfitter_cfg.c **** 	/* Configure Analog Clocks based on settings from Clock DWR */
 250:Generated_Source\PSoC5/cyfitter_cfg.c **** 	CYCONFIGCPY((void CYFAR *)(CYREG_CLKDIST_ACFG0_CFG0), (const void CYFAR *)(BS_CYDEV_CLKDIST_ACFG0_
 251:Generated_Source\PSoC5/cyfitter_cfg.c **** 
 252:Generated_Source\PSoC5/cyfitter_cfg.c **** 	/* Configure ILO based on settings from Clock DWR */
 253:Generated_Source\PSoC5/cyfitter_cfg.c **** 	CY_SET_XTND_REG8((void CYFAR *)(CYREG_SLOWCLK_ILO_CR0), 0x02u);
 254:Generated_Source\PSoC5/cyfitter_cfg.c **** 	CY_SET_XTND_REG8((void CYFAR *)(CYREG_CLKDIST_CR), 0x08u);
 255:Generated_Source\PSoC5/cyfitter_cfg.c **** 
 256:Generated_Source\PSoC5/cyfitter_cfg.c **** 	/* Configure IMO based on settings from Clock DWR */
 257:Generated_Source\PSoC5/cyfitter_cfg.c **** 	CY_SET_XTND_REG8((void CYFAR *)(CYREG_FASTCLK_IMO_CR), 0x03u);
 258:Generated_Source\PSoC5/cyfitter_cfg.c **** 	CY_SET_XTND_REG8((void CYFAR *)(CYREG_IMO_TR1), (CY_GET_XTND_REG8((void CYFAR *)CYREG_FLSHID_CUST_
 259:Generated_Source\PSoC5/cyfitter_cfg.c **** 
 260:Generated_Source\PSoC5/cyfitter_cfg.c **** 	/* Configure PLL based on settings from Clock DWR */
 261:Generated_Source\PSoC5/cyfitter_cfg.c **** 	CY_SET_XTND_REG16((void CYFAR *)(CYREG_FASTCLK_PLL_P), 0x0008u);
 262:Generated_Source\PSoC5/cyfitter_cfg.c **** 	CY_SET_XTND_REG16((void CYFAR *)(CYREG_FASTCLK_PLL_CFG0), 0x1251u);
 263:Generated_Source\PSoC5/cyfitter_cfg.c **** 	/* Wait up to 250us for the PLL to lock */
 264:Generated_Source\PSoC5/cyfitter_cfg.c **** 	pllLock = 0u;
 265:Generated_Source\PSoC5/cyfitter_cfg.c **** 	for (timeout = 250u / 10u; (timeout > 0u) && (pllLock != 0x03u); timeout--)
 266:Generated_Source\PSoC5/cyfitter_cfg.c **** 	{ 
 267:Generated_Source\PSoC5/cyfitter_cfg.c **** 		pllLock = 0x03u & ((uint8)((uint8)pllLock << 1) | ((CY_GET_XTND_REG8((void CYFAR *)CYREG_FASTCLK_
 268:Generated_Source\PSoC5/cyfitter_cfg.c **** 		CyDelayCycles(10u * 48u); /* Delay 10us based on 48MHz clock */
 269:Generated_Source\PSoC5/cyfitter_cfg.c **** 	}
 270:Generated_Source\PSoC5/cyfitter_cfg.c **** 	/* If we ran out of time the PLL didn't lock so go to the error function */
 271:Generated_Source\PSoC5/cyfitter_cfg.c **** 	if (timeout == 0u)
 272:Generated_Source\PSoC5/cyfitter_cfg.c **** 	{
 273:Generated_Source\PSoC5/cyfitter_cfg.c **** 		CyClockStartupError(CYCLOCKSTART_PLL_ERROR);
ARM GAS  C:\Users\ANNASP~1\AppData\Local\Temp\ccsytGYf.s 			page 8


 274:Generated_Source\PSoC5/cyfitter_cfg.c **** 	}
 275:Generated_Source\PSoC5/cyfitter_cfg.c **** 
 276:Generated_Source\PSoC5/cyfitter_cfg.c **** 	/* Configure Bus/Master Clock based on settings from Clock DWR */
 277:Generated_Source\PSoC5/cyfitter_cfg.c **** 	CY_SET_XTND_REG16((void CYFAR *)(CYREG_CLKDIST_MSTR0), 0x0100u);
 278:Generated_Source\PSoC5/cyfitter_cfg.c **** 	CY_SET_XTND_REG8((void CYFAR *)(CYREG_CLKDIST_MSTR0), 0x07u);
 279:Generated_Source\PSoC5/cyfitter_cfg.c **** 	CY_SET_XTND_REG8((void CYFAR *)(CYREG_CLKDIST_BCFG0), 0x00u);
 280:Generated_Source\PSoC5/cyfitter_cfg.c **** 	CY_SET_XTND_REG8((void CYFAR *)(CYREG_CLKDIST_BCFG2), 0x48u);
 281:Generated_Source\PSoC5/cyfitter_cfg.c **** 	CY_SET_XTND_REG8((void CYFAR *)(CYREG_CLKDIST_MSTR0), 0x00u);
 282:Generated_Source\PSoC5/cyfitter_cfg.c **** 	CY_SET_XTND_REG8((void CYFAR *)(CYREG_CLKDIST_LD), 0x02u);
 283:Generated_Source\PSoC5/cyfitter_cfg.c **** 	CY_SET_XTND_REG8((void CYFAR *)(CYREG_CLKDIST_DLY1), 0x04u);
 284:Generated_Source\PSoC5/cyfitter_cfg.c **** 
 285:Generated_Source\PSoC5/cyfitter_cfg.c **** 	CY_SET_XTND_REG8((void CYFAR *)(CYREG_PM_ACT_CFG2), ((CY_GET_XTND_REG8((void CYFAR *)CYREG_PM_ACT_
 286:Generated_Source\PSoC5/cyfitter_cfg.c **** 	CY_SET_XTND_REG8((void CYFAR *)(CYREG_PM_ACT_CFG1), ((CY_GET_XTND_REG8((void CYFAR *)CYREG_PM_ACT_
 287:Generated_Source\PSoC5/cyfitter_cfg.c **** 	CY_SET_XTND_REG8((void CYFAR *)(CYREG_PM_ACT_CFG0), ((CY_GET_XTND_REG8((void CYFAR *)CYREG_PM_ACT_
 288:Generated_Source\PSoC5/cyfitter_cfg.c **** }
 289:Generated_Source\PSoC5/cyfitter_cfg.c **** 
 290:Generated_Source\PSoC5/cyfitter_cfg.c **** 
 291:Generated_Source\PSoC5/cyfitter_cfg.c **** /* Analog API Functions */
 292:Generated_Source\PSoC5/cyfitter_cfg.c **** 
 293:Generated_Source\PSoC5/cyfitter_cfg.c **** 
 294:Generated_Source\PSoC5/cyfitter_cfg.c **** /*******************************************************************************
 295:Generated_Source\PSoC5/cyfitter_cfg.c **** * Function Name: AnalogSetDefault
 296:Generated_Source\PSoC5/cyfitter_cfg.c **** ********************************************************************************
 297:Generated_Source\PSoC5/cyfitter_cfg.c **** *
 298:Generated_Source\PSoC5/cyfitter_cfg.c **** * Summary:
 299:Generated_Source\PSoC5/cyfitter_cfg.c **** *  Sets up the analog portions of the chip to default values based on chip
 300:Generated_Source\PSoC5/cyfitter_cfg.c **** *  configuration options from the project.
 301:Generated_Source\PSoC5/cyfitter_cfg.c **** *
 302:Generated_Source\PSoC5/cyfitter_cfg.c **** * Parameters:
 303:Generated_Source\PSoC5/cyfitter_cfg.c **** *  void
 304:Generated_Source\PSoC5/cyfitter_cfg.c **** *
 305:Generated_Source\PSoC5/cyfitter_cfg.c **** * Return:
 306:Generated_Source\PSoC5/cyfitter_cfg.c **** *  void
 307:Generated_Source\PSoC5/cyfitter_cfg.c **** *
 308:Generated_Source\PSoC5/cyfitter_cfg.c **** *******************************************************************************/
 309:Generated_Source\PSoC5/cyfitter_cfg.c **** static void AnalogSetDefault(void);
 310:Generated_Source\PSoC5/cyfitter_cfg.c **** static void AnalogSetDefault(void)
 311:Generated_Source\PSoC5/cyfitter_cfg.c **** {
 124              		.loc 1 311 0
 125              		.cfi_startproc
 126              		@ args = 0, pretend = 0, frame = 0
 127              		@ frame_needed = 0, uses_anonymous_args = 0
 128              		@ link register save eliminated.
 312:Generated_Source\PSoC5/cyfitter_cfg.c **** 	uint8 bg_xover_inl_trim = CY_GET_XTND_REG8((void CYFAR *)(CYREG_FLSHID_MFG_CFG_BG_XOVER_INL_TRIM +
 129              		.loc 1 312 0
 130 0000 154B     		ldr	r3, .L10
 131 0002 1B78     		ldrb	r3, [r3]	@ zero_extendqisi2
 132 0004 DBB2     		uxtb	r3, r3
 133              	.LVL12:
 313:Generated_Source\PSoC5/cyfitter_cfg.c **** 	CY_SET_XTND_REG8((void CYFAR *)(CYREG_BG_DFT0), (bg_xover_inl_trim & 0x07u));
 134              		.loc 1 313 0
 135 0006 03F00701 		and	r1, r3, #7
 136 000a 144A     		ldr	r2, .L10+4
 137 000c 1170     		strb	r1, [r2]
 314:Generated_Source\PSoC5/cyfitter_cfg.c **** 	CY_SET_XTND_REG8((void CYFAR *)(CYREG_BG_DFT1), ((bg_xover_inl_trim >> 4) & 0x0Fu));
 138              		.loc 1 314 0
 139 000e 1B09     		lsrs	r3, r3, #4
ARM GAS  C:\Users\ANNASP~1\AppData\Local\Temp\ccsytGYf.s 			page 9


 140              	.LVL13:
 141 0010 0132     		adds	r2, r2, #1
 142 0012 1370     		strb	r3, [r2]
 315:Generated_Source\PSoC5/cyfitter_cfg.c **** 	CY_SET_XTND_REG8((void CYFAR *)CYREG_PRT1_AG, 0x80u);
 143              		.loc 1 315 0
 144 0014 8022     		movs	r2, #128
 145 0016 124B     		ldr	r3, .L10+8
 146 0018 1A70     		strb	r2, [r3]
 316:Generated_Source\PSoC5/cyfitter_cfg.c **** 	CY_SET_XTND_REG8((void CYFAR *)CYREG_PRT3_AMUX, 0x02u);
 147              		.loc 1 316 0
 148 001a 0223     		movs	r3, #2
 149 001c 114A     		ldr	r2, .L10+12
 150 001e 1370     		strb	r3, [r2]
 317:Generated_Source\PSoC5/cyfitter_cfg.c **** 	CY_SET_XTND_REG8((void CYFAR *)CYREG_SC2_SW0, 0x18u);
 151              		.loc 1 317 0
 152 0020 1821     		movs	r1, #24
 153 0022 02F6E402 		addw	r2, r2, #2276
 154 0026 1170     		strb	r1, [r2]
 318:Generated_Source\PSoC5/cyfitter_cfg.c **** 	CY_SET_XTND_REG8((void CYFAR *)CYREG_SC2_SW4, 0x02u);
 155              		.loc 1 318 0
 156 0028 0432     		adds	r2, r2, #4
 157 002a 1370     		strb	r3, [r2]
 319:Generated_Source\PSoC5/cyfitter_cfg.c **** 	CY_SET_XTND_REG8((void CYFAR *)CYREG_SC2_SW8, 0x40u);
 158              		.loc 1 319 0
 159 002c 4022     		movs	r2, #64
 160 002e 0E49     		ldr	r1, .L10+16
 161 0030 0A70     		strb	r2, [r1]
 320:Generated_Source\PSoC5/cyfitter_cfg.c **** 	CY_SET_XTND_REG8((void CYFAR *)CYREG_DAC0_SW0, 0x02u);
 162              		.loc 1 320 0
 163 0032 5831     		adds	r1, r1, #88
 164 0034 0B70     		strb	r3, [r1]
 321:Generated_Source\PSoC5/cyfitter_cfg.c **** 	CY_SET_XTND_REG8((void CYFAR *)CYREG_DAC1_SW3, 0x01u);
 165              		.loc 1 321 0
 166 0036 0120     		movs	r0, #1
 167 0038 0B31     		adds	r1, r1, #11
 168 003a 0870     		strb	r0, [r1]
 322:Generated_Source\PSoC5/cyfitter_cfg.c **** 	CY_SET_XTND_REG8((void CYFAR *)CYREG_DSM0_SW0, 0x40u);
 169              		.loc 1 322 0
 170 003c 7531     		adds	r1, r1, #117
 171 003e 0A70     		strb	r2, [r1]
 323:Generated_Source\PSoC5/cyfitter_cfg.c **** 	CY_SET_XTND_REG8((void CYFAR *)CYREG_DSM0_SW4, 0x02u);
 172              		.loc 1 323 0
 173 0040 0A4A     		ldr	r2, .L10+20
 174 0042 1370     		strb	r3, [r2]
 324:Generated_Source\PSoC5/cyfitter_cfg.c **** 	CY_SET_XTND_REG8((void CYFAR *)CYREG_OPAMP1_MX, 0x02u);
 175              		.loc 1 324 0
 176 0044 3E32     		adds	r2, r2, #62
 177 0046 1370     		strb	r3, [r2]
 325:Generated_Source\PSoC5/cyfitter_cfg.c **** 	CY_SET_XTND_REG8((void CYFAR *)CYREG_BUS_SW0, 0x0Cu);
 178              		.loc 1 325 0
 179 0048 0C22     		movs	r2, #12
 180 004a 094B     		ldr	r3, .L10+24
 181 004c 1A70     		strb	r2, [r3]
 326:Generated_Source\PSoC5/cyfitter_cfg.c **** 	CY_SET_XTND_REG8((void CYFAR *)CYREG_PUMP_CR0, 0x44u);
 182              		.loc 1 326 0
 183 004e 4422     		movs	r2, #68
 184 0050 A3F2E223 		subw	r3, r3, #738
ARM GAS  C:\Users\ANNASP~1\AppData\Local\Temp\ccsytGYf.s 			page 10


 185 0054 1A70     		strb	r2, [r3]
 186 0056 7047     		bx	lr
 187              	.L11:
 188              		.align	2
 189              	.L10:
 190 0058 CF010049 		.word	1224737231
 191 005c 6E580040 		.word	1073764462
 192 0060 1D510040 		.word	1073762589
 193 0064 3C510040 		.word	1073762620
 194 0068 285A0040 		.word	1073764904
 195 006c 045B0040 		.word	1073765124
 196 0070 585B0040 		.word	1073765208
 197              		.cfi_endproc
 198              	.LFE6:
 199              		.size	AnalogSetDefault, .-AnalogSetDefault
 200              		.section	.text.CYMEMZERO,"ax",%progbits
 201              		.align	2
 202              		.thumb
 203              		.thumb_func
 204              		.type	CYMEMZERO, %function
 205              	CYMEMZERO:
 206              	.LFB0:
  78:Generated_Source\PSoC5/cyfitter_cfg.c **** 	(void)memset(s, 0, n);
 207              		.loc 1 78 0
 208              		.cfi_startproc
 209              		@ args = 0, pretend = 0, frame = 0
 210              		@ frame_needed = 0, uses_anonymous_args = 0
 211              	.LVL14:
 212 0000 08B5     		push	{r3, lr}
 213              		.cfi_def_cfa_offset 8
 214              		.cfi_offset 3, -8
 215              		.cfi_offset 14, -4
  79:Generated_Source\PSoC5/cyfitter_cfg.c **** }
 216              		.loc 1 79 0
 217 0002 0A46     		mov	r2, r1
 218 0004 0021     		movs	r1, #0
 219              	.LVL15:
 220 0006 FFF7FEFF 		bl	memset
 221              	.LVL16:
 222 000a 08BD     		pop	{r3, pc}
 223              		.cfi_endproc
 224              	.LFE0:
 225              		.size	CYMEMZERO, .-CYMEMZERO
 226              		.section	.text.CYCONFIGCPY,"ax",%progbits
 227              		.align	2
 228              		.thumb
 229              		.thumb_func
 230              		.type	CYCONFIGCPY, %function
 231              	CYCONFIGCPY:
 232              	.LFB1:
  85:Generated_Source\PSoC5/cyfitter_cfg.c **** 	(void)memcpy(dest, src, n);
 233              		.loc 1 85 0
 234              		.cfi_startproc
 235              		@ args = 0, pretend = 0, frame = 0
 236              		@ frame_needed = 0, uses_anonymous_args = 0
 237              	.LVL17:
 238 0000 08B5     		push	{r3, lr}
ARM GAS  C:\Users\ANNASP~1\AppData\Local\Temp\ccsytGYf.s 			page 11


 239              		.cfi_def_cfa_offset 8
 240              		.cfi_offset 3, -8
 241              		.cfi_offset 14, -4
  86:Generated_Source\PSoC5/cyfitter_cfg.c **** }
 242              		.loc 1 86 0
 243 0002 FFF7FEFF 		bl	memcpy
 244              	.LVL18:
 245 0006 08BD     		pop	{r3, pc}
 246              		.cfi_endproc
 247              	.LFE1:
 248              		.size	CYCONFIGCPY, .-CYCONFIGCPY
 249              		.section	.text.ClockSetup,"ax",%progbits
 250              		.align	2
 251              		.thumb
 252              		.thumb_func
 253              		.type	ClockSetup, %function
 254              	ClockSetup:
 255              	.LFB5:
 234:Generated_Source\PSoC5/cyfitter_cfg.c **** 	uint32 timeout;
 256              		.loc 1 234 0
 257              		.cfi_startproc
 258              		@ args = 0, pretend = 0, frame = 0
 259              		@ frame_needed = 0, uses_anonymous_args = 0
 260 0000 38B5     		push	{r3, r4, r5, lr}
 261              		.cfi_def_cfa_offset 16
 262              		.cfi_offset 3, -16
 263              		.cfi_offset 4, -12
 264              		.cfi_offset 5, -8
 265              		.cfi_offset 14, -4
 240:Generated_Source\PSoC5/cyfitter_cfg.c **** 	CY_SET_XTND_REG8((void CYFAR *)(CYREG_CLKDIST_DCFG0_CFG0 + 0x2u), 0x18u);
 266              		.loc 1 240 0
 267 0002 6322     		movs	r2, #99
 268 0004 344B     		ldr	r3, .L22
 269 0006 1A80     		strh	r2, [r3]	@ movhi
 241:Generated_Source\PSoC5/cyfitter_cfg.c **** 	CY_SET_XTND_REG16((void CYFAR *)(CYREG_CLKDIST_DCFG1_CFG0), 0x0000u);
 270              		.loc 1 241 0
 271 0008 1823     		movs	r3, #24
 272 000a 344A     		ldr	r2, .L22+4
 273 000c 1370     		strb	r3, [r2]
 242:Generated_Source\PSoC5/cyfitter_cfg.c **** 	CY_SET_XTND_REG8((void CYFAR *)(CYREG_CLKDIST_DCFG1_CFG0 + 0x2u), 0x50u);
 274              		.loc 1 242 0
 275 000e 0024     		movs	r4, #0
 276 0010 0232     		adds	r2, r2, #2
 277 0012 1480     		strh	r4, [r2]	@ movhi
 243:Generated_Source\PSoC5/cyfitter_cfg.c **** 	CY_SET_XTND_REG16((void CYFAR *)(CYREG_CLKDIST_DCFG2_CFG0), 0x005Fu);
 278              		.loc 1 243 0
 279 0014 5021     		movs	r1, #80
 280 0016 0232     		adds	r2, r2, #2
 281 0018 1170     		strb	r1, [r2]
 244:Generated_Source\PSoC5/cyfitter_cfg.c **** 	CY_SET_XTND_REG8((void CYFAR *)(CYREG_CLKDIST_DCFG2_CFG0 + 0x2u), 0x18u);
 282              		.loc 1 244 0
 283 001a 5F21     		movs	r1, #95
 284 001c 0232     		adds	r2, r2, #2
 285 001e 1180     		strh	r1, [r2]	@ movhi
 245:Generated_Source\PSoC5/cyfitter_cfg.c **** 	CY_SET_XTND_REG16((void CYFAR *)(CYREG_CLKDIST_DCFG3_CFG0), 0x0138u);
 286              		.loc 1 245 0
 287 0020 0232     		adds	r2, r2, #2
ARM GAS  C:\Users\ANNASP~1\AppData\Local\Temp\ccsytGYf.s 			page 12


 288 0022 1370     		strb	r3, [r2]
 246:Generated_Source\PSoC5/cyfitter_cfg.c **** 	CY_SET_XTND_REG8((void CYFAR *)(CYREG_CLKDIST_DCFG3_CFG0 + 0x2u), 0x18u);
 289              		.loc 1 246 0
 290 0024 4FF49C71 		mov	r1, #312
 291 0028 0232     		adds	r2, r2, #2
 292 002a 1180     		strh	r1, [r2]	@ movhi
 247:Generated_Source\PSoC5/cyfitter_cfg.c **** 
 293              		.loc 1 247 0
 294 002c 0232     		adds	r2, r2, #2
 295 002e 1370     		strb	r3, [r2]
 250:Generated_Source\PSoC5/cyfitter_cfg.c **** 
 296              		.loc 1 250 0
 297 0030 0422     		movs	r2, #4
 298 0032 2B49     		ldr	r1, .L22+8
 299 0034 2B48     		ldr	r0, .L22+12
 300 0036 FFF7FEFF 		bl	CYCONFIGCPY
 301              	.LVL19:
 253:Generated_Source\PSoC5/cyfitter_cfg.c **** 	CY_SET_XTND_REG8((void CYFAR *)(CYREG_CLKDIST_CR), 0x08u);
 302              		.loc 1 253 0
 303 003a 0222     		movs	r2, #2
 304 003c 2A4B     		ldr	r3, .L22+16
 305 003e 1A70     		strb	r2, [r3]
 254:Generated_Source\PSoC5/cyfitter_cfg.c **** 
 306              		.loc 1 254 0
 307 0040 0822     		movs	r2, #8
 308 0042 4FF04023 		mov	r3, #1073758208
 309 0046 1A70     		strb	r2, [r3]
 257:Generated_Source\PSoC5/cyfitter_cfg.c **** 	CY_SET_XTND_REG8((void CYFAR *)(CYREG_IMO_TR1), (CY_GET_XTND_REG8((void CYFAR *)CYREG_FLSHID_CUST_
 310              		.loc 1 257 0
 311 0048 0321     		movs	r1, #3
 312 004a 03F50073 		add	r3, r3, #512
 313 004e 1970     		strb	r1, [r3]
 258:Generated_Source\PSoC5/cyfitter_cfg.c **** 
 314              		.loc 1 258 0
 315 0050 264B     		ldr	r3, .L22+20
 316 0052 1B78     		ldrb	r3, [r3]	@ zero_extendqisi2
 317 0054 DBB2     		uxtb	r3, r3
 318 0056 2649     		ldr	r1, .L22+24
 319 0058 0B70     		strb	r3, [r1]
 261:Generated_Source\PSoC5/cyfitter_cfg.c **** 	CY_SET_XTND_REG16((void CYFAR *)(CYREG_FASTCLK_PLL_CFG0), 0x1251u);
 320              		.loc 1 261 0
 321 005a 264B     		ldr	r3, .L22+28
 322 005c 1A80     		strh	r2, [r3]	@ movhi
 262:Generated_Source\PSoC5/cyfitter_cfg.c **** 	/* Wait up to 250us for the PLL to lock */
 323              		.loc 1 262 0
 324 005e 41F25122 		movw	r2, #4689
 325 0062 023B     		subs	r3, r3, #2
 326 0064 1A80     		strh	r2, [r3]	@ movhi
 327              	.LVL20:
 265:Generated_Source\PSoC5/cyfitter_cfg.c **** 	{ 
 328              		.loc 1 265 0
 329 0066 1925     		movs	r5, #25
 330 0068 0CE0     		b	.L17
 331              	.LVL21:
 332              	.L19:
 267:Generated_Source\PSoC5/cyfitter_cfg.c **** 		CyDelayCycles(10u * 48u); /* Delay 10us based on 48MHz clock */
 333              		.loc 1 267 0 discriminator 4
ARM GAS  C:\Users\ANNASP~1\AppData\Local\Temp\ccsytGYf.s 			page 13


 334 006a 234B     		ldr	r3, .L22+32
 335 006c 1B78     		ldrb	r3, [r3]	@ zero_extendqisi2
 336 006e 03F00103 		and	r3, r3, #1
 337 0072 43EA4404 		orr	r4, r3, r4, lsl #1
 338              	.LVL22:
 339 0076 04F00304 		and	r4, r4, #3
 340              	.LVL23:
 268:Generated_Source\PSoC5/cyfitter_cfg.c **** 	}
 341              		.loc 1 268 0 discriminator 4
 342 007a 4FF4F070 		mov	r0, #480
 343 007e FFF7FEFF 		bl	CyDelayCycles
 344              	.LVL24:
 265:Generated_Source\PSoC5/cyfitter_cfg.c **** 	{ 
 345              		.loc 1 265 0 discriminator 4
 346 0082 013D     		subs	r5, r5, #1
 347              	.LVL25:
 348              	.L17:
 265:Generated_Source\PSoC5/cyfitter_cfg.c **** 	{ 
 349              		.loc 1 265 0 is_stmt 0 discriminator 1
 350 0084 0DB1     		cbz	r5, .L18
 265:Generated_Source\PSoC5/cyfitter_cfg.c **** 	{ 
 351              		.loc 1 265 0 discriminator 3
 352 0086 032C     		cmp	r4, #3
 353 0088 EFD1     		bne	.L19
 354              	.L18:
 271:Generated_Source\PSoC5/cyfitter_cfg.c **** 	{
 355              		.loc 1 271 0 is_stmt 1
 356 008a 15B9     		cbnz	r5, .L20
 273:Generated_Source\PSoC5/cyfitter_cfg.c **** 	}
 357              		.loc 1 273 0
 358 008c 0320     		movs	r0, #3
 359 008e FFF7FEFF 		bl	CyClockStartupError
 360              	.LVL26:
 361              	.L20:
 277:Generated_Source\PSoC5/cyfitter_cfg.c **** 	CY_SET_XTND_REG8((void CYFAR *)(CYREG_CLKDIST_MSTR0), 0x07u);
 362              		.loc 1 277 0
 363 0092 1A4B     		ldr	r3, .L22+36
 364 0094 4FF48072 		mov	r2, #256
 365 0098 1A80     		strh	r2, [r3]	@ movhi
 278:Generated_Source\PSoC5/cyfitter_cfg.c **** 	CY_SET_XTND_REG8((void CYFAR *)(CYREG_CLKDIST_BCFG0), 0x00u);
 366              		.loc 1 278 0
 367 009a 0722     		movs	r2, #7
 368 009c 1A70     		strb	r2, [r3]
 279:Generated_Source\PSoC5/cyfitter_cfg.c **** 	CY_SET_XTND_REG8((void CYFAR *)(CYREG_CLKDIST_BCFG2), 0x48u);
 369              		.loc 1 279 0
 370 009e 0022     		movs	r2, #0
 371 00a0 1749     		ldr	r1, .L22+40
 372 00a2 0A70     		strb	r2, [r1]
 280:Generated_Source\PSoC5/cyfitter_cfg.c **** 	CY_SET_XTND_REG8((void CYFAR *)(CYREG_CLKDIST_MSTR0), 0x00u);
 373              		.loc 1 280 0
 374 00a4 4820     		movs	r0, #72
 375 00a6 0231     		adds	r1, r1, #2
 376 00a8 0870     		strb	r0, [r1]
 281:Generated_Source\PSoC5/cyfitter_cfg.c **** 	CY_SET_XTND_REG8((void CYFAR *)(CYREG_CLKDIST_LD), 0x02u);
 377              		.loc 1 281 0
 378 00aa 1A70     		strb	r2, [r3]
 282:Generated_Source\PSoC5/cyfitter_cfg.c **** 	CY_SET_XTND_REG8((void CYFAR *)(CYREG_CLKDIST_DLY1), 0x04u);
ARM GAS  C:\Users\ANNASP~1\AppData\Local\Temp\ccsytGYf.s 			page 14


 379              		.loc 1 282 0
 380 00ac 0222     		movs	r2, #2
 381 00ae 033B     		subs	r3, r3, #3
 382 00b0 1A70     		strb	r2, [r3]
 283:Generated_Source\PSoC5/cyfitter_cfg.c **** 
 383              		.loc 1 283 0
 384 00b2 0422     		movs	r2, #4
 385 00b4 0A33     		adds	r3, r3, #10
 386 00b6 1A70     		strb	r2, [r3]
 285:Generated_Source\PSoC5/cyfitter_cfg.c **** 	CY_SET_XTND_REG8((void CYFAR *)(CYREG_PM_ACT_CFG1), ((CY_GET_XTND_REG8((void CYFAR *)CYREG_PM_ACT_
 387              		.loc 1 285 0
 388 00b8 124A     		ldr	r2, .L22+44
 389 00ba 1378     		ldrb	r3, [r2]	@ zero_extendqisi2
 390 00bc 43F00F03 		orr	r3, r3, #15
 391 00c0 1370     		strb	r3, [r2]
 286:Generated_Source\PSoC5/cyfitter_cfg.c **** 	CY_SET_XTND_REG8((void CYFAR *)(CYREG_PM_ACT_CFG0), ((CY_GET_XTND_REG8((void CYFAR *)CYREG_PM_ACT_
 392              		.loc 1 286 0
 393 00c2 013A     		subs	r2, r2, #1
 394 00c4 1378     		ldrb	r3, [r2]	@ zero_extendqisi2
 395 00c6 43F00103 		orr	r3, r3, #1
 396 00ca 1370     		strb	r3, [r2]
 287:Generated_Source\PSoC5/cyfitter_cfg.c **** }
 397              		.loc 1 287 0
 398 00cc 013A     		subs	r2, r2, #1
 399 00ce 1378     		ldrb	r3, [r2]	@ zero_extendqisi2
 400 00d0 43F08003 		orr	r3, r3, #128
 401 00d4 1370     		strb	r3, [r2]
 402 00d6 38BD     		pop	{r3, r4, r5, pc}
 403              	.LVL27:
 404              	.L23:
 405              		.align	2
 406              	.L22:
 407 00d8 80400040 		.word	1073758336
 408 00dc 82400040 		.word	1073758338
 409 00e0 1C050048 		.word	1207960860
 410 00e4 00410040 		.word	1073758464
 411 00e8 00430040 		.word	1073758976
 412 00ec 08010049 		.word	1224737032
 413 00f0 A1460040 		.word	1073759905
 414 00f4 22420040 		.word	1073758754
 415 00f8 25420040 		.word	1073758757
 416 00fc 04400040 		.word	1073758212
 417 0100 06400040 		.word	1073758214
 418 0104 A2430040 		.word	1073759138
 419              		.cfi_endproc
 420              	.LFE5:
 421              		.size	ClockSetup, .-ClockSetup
 422              		.section	.text.SetAnalogRoutingPumps,"ax",%progbits
 423              		.align	2
 424              		.global	SetAnalogRoutingPumps
 425              		.thumb
 426              		.thumb_func
 427              		.type	SetAnalogRoutingPumps, %function
 428              	SetAnalogRoutingPumps:
 429              	.LFB7:
 327:Generated_Source\PSoC5/cyfitter_cfg.c **** }
 328:Generated_Source\PSoC5/cyfitter_cfg.c **** 
ARM GAS  C:\Users\ANNASP~1\AppData\Local\Temp\ccsytGYf.s 			page 15


 329:Generated_Source\PSoC5/cyfitter_cfg.c **** 
 330:Generated_Source\PSoC5/cyfitter_cfg.c **** /*******************************************************************************
 331:Generated_Source\PSoC5/cyfitter_cfg.c **** * Function Name: SetAnalogRoutingPumps
 332:Generated_Source\PSoC5/cyfitter_cfg.c **** ********************************************************************************
 333:Generated_Source\PSoC5/cyfitter_cfg.c **** *
 334:Generated_Source\PSoC5/cyfitter_cfg.c **** * Summary:
 335:Generated_Source\PSoC5/cyfitter_cfg.c **** * Enables or disables the analog pumps feeding analog routing switches.
 336:Generated_Source\PSoC5/cyfitter_cfg.c **** * Intended to be called at startup, based on the Vdda system configuration;
 337:Generated_Source\PSoC5/cyfitter_cfg.c **** * may be called during operation when the user informs us that the Vdda voltage
 338:Generated_Source\PSoC5/cyfitter_cfg.c **** * crossed the pump threshold.
 339:Generated_Source\PSoC5/cyfitter_cfg.c **** *
 340:Generated_Source\PSoC5/cyfitter_cfg.c **** * Parameters:
 341:Generated_Source\PSoC5/cyfitter_cfg.c **** *  enabled - 1 to enable the pumps, 0 to disable the pumps
 342:Generated_Source\PSoC5/cyfitter_cfg.c **** *
 343:Generated_Source\PSoC5/cyfitter_cfg.c **** * Return:
 344:Generated_Source\PSoC5/cyfitter_cfg.c **** *  void
 345:Generated_Source\PSoC5/cyfitter_cfg.c **** *
 346:Generated_Source\PSoC5/cyfitter_cfg.c **** *******************************************************************************/
 347:Generated_Source\PSoC5/cyfitter_cfg.c **** void SetAnalogRoutingPumps(uint8 enabled)
 348:Generated_Source\PSoC5/cyfitter_cfg.c **** {
 430              		.loc 1 348 0
 431              		.cfi_startproc
 432              		@ args = 0, pretend = 0, frame = 0
 433              		@ frame_needed = 0, uses_anonymous_args = 0
 434              		@ link register save eliminated.
 435              	.LVL28:
 349:Generated_Source\PSoC5/cyfitter_cfg.c **** 	uint8 regValue = CY_GET_XTND_REG8((void CYFAR *)CYREG_PUMP_CR0);
 436              		.loc 1 349 0
 437 0000 054B     		ldr	r3, .L27
 438 0002 1B78     		ldrb	r3, [r3]	@ zero_extendqisi2
 439 0004 DBB2     		uxtb	r3, r3
 440              	.LVL29:
 350:Generated_Source\PSoC5/cyfitter_cfg.c **** 	if (enabled != 0u)
 441              		.loc 1 350 0
 442 0006 10B1     		cbz	r0, .L25
 351:Generated_Source\PSoC5/cyfitter_cfg.c **** 	{
 352:Generated_Source\PSoC5/cyfitter_cfg.c **** 		regValue |= 0x22u;
 443              		.loc 1 352 0
 444 0008 43F02203 		orr	r3, r3, #34
 445              	.LVL30:
 446 000c 01E0     		b	.L26
 447              	.L25:
 353:Generated_Source\PSoC5/cyfitter_cfg.c **** 	}
 354:Generated_Source\PSoC5/cyfitter_cfg.c **** 	else
 355:Generated_Source\PSoC5/cyfitter_cfg.c **** 	{
 356:Generated_Source\PSoC5/cyfitter_cfg.c **** 		regValue &= (uint8)~0x22u;
 448              		.loc 1 356 0
 449 000e 03F0DD03 		and	r3, r3, #221
 450              	.LVL31:
 451              	.L26:
 357:Generated_Source\PSoC5/cyfitter_cfg.c **** 	}
 358:Generated_Source\PSoC5/cyfitter_cfg.c **** 	CY_SET_XTND_REG8((void CYFAR *)CYREG_PUMP_CR0, regValue);
 452              		.loc 1 358 0
 453 0012 014A     		ldr	r2, .L27
 454 0014 1370     		strb	r3, [r2]
 455 0016 7047     		bx	lr
 456              	.L28:
ARM GAS  C:\Users\ANNASP~1\AppData\Local\Temp\ccsytGYf.s 			page 16


 457              		.align	2
 458              	.L27:
 459 0018 76580040 		.word	1073764470
 460              		.cfi_endproc
 461              	.LFE7:
 462              		.size	SetAnalogRoutingPumps, .-SetAnalogRoutingPumps
 463              		.section	.text.AMux_TIA_input_Set,"ax",%progbits
 464              		.align	2
 465              		.global	AMux_TIA_input_Set
 466              		.thumb
 467              		.thumb_func
 468              		.type	AMux_TIA_input_Set, %function
 469              	AMux_TIA_input_Set:
 470              	.LFB8:
 359:Generated_Source\PSoC5/cyfitter_cfg.c **** }
 360:Generated_Source\PSoC5/cyfitter_cfg.c **** 
 361:Generated_Source\PSoC5/cyfitter_cfg.c **** 
 362:Generated_Source\PSoC5/cyfitter_cfg.c **** #define CY_AMUX_UNUSED CYREG_BOOST_SR
 363:Generated_Source\PSoC5/cyfitter_cfg.c **** /* This is an implementation detail of the AMux. Code that depends on it may be
 364:Generated_Source\PSoC5/cyfitter_cfg.c ****    incompatible with other versions of PSoC Creator. */
 365:Generated_Source\PSoC5/cyfitter_cfg.c **** uint8 CYXDATA * const CYCODE AMux_TIA_input__addrTable[3] = {
 366:Generated_Source\PSoC5/cyfitter_cfg.c **** 	(uint8 CYXDATA *)CYREG_DAC2_SW4, 
 367:Generated_Source\PSoC5/cyfitter_cfg.c **** 	(uint8 CYXDATA *)CYREG_PRT0_AG, 
 368:Generated_Source\PSoC5/cyfitter_cfg.c **** 	(uint8 CYXDATA *)CY_AMUX_UNUSED, 
 369:Generated_Source\PSoC5/cyfitter_cfg.c **** };
 370:Generated_Source\PSoC5/cyfitter_cfg.c **** 
 371:Generated_Source\PSoC5/cyfitter_cfg.c **** /* This is an implementation detail of the AMux. Code that depends on it may be
 372:Generated_Source\PSoC5/cyfitter_cfg.c ****    incompatible with other versions of PSoC Creator. */
 373:Generated_Source\PSoC5/cyfitter_cfg.c **** const uint8 CYCODE AMux_TIA_input__maskTable[3] = {
 374:Generated_Source\PSoC5/cyfitter_cfg.c **** 	0x10u, 
 375:Generated_Source\PSoC5/cyfitter_cfg.c **** 	0x01u, 
 376:Generated_Source\PSoC5/cyfitter_cfg.c **** 	0x00u, 
 377:Generated_Source\PSoC5/cyfitter_cfg.c **** };
 378:Generated_Source\PSoC5/cyfitter_cfg.c **** 
 379:Generated_Source\PSoC5/cyfitter_cfg.c **** /*******************************************************************************
 380:Generated_Source\PSoC5/cyfitter_cfg.c **** * Function Name: AMux_TIA_input_Set
 381:Generated_Source\PSoC5/cyfitter_cfg.c **** ********************************************************************************
 382:Generated_Source\PSoC5/cyfitter_cfg.c **** * Summary:
 383:Generated_Source\PSoC5/cyfitter_cfg.c **** *  This function is used to set a particular channel as active on the AMux.
 384:Generated_Source\PSoC5/cyfitter_cfg.c **** *
 385:Generated_Source\PSoC5/cyfitter_cfg.c **** * Parameters:  
 386:Generated_Source\PSoC5/cyfitter_cfg.c **** *   channel - The mux channel input to set as active
 387:Generated_Source\PSoC5/cyfitter_cfg.c **** *
 388:Generated_Source\PSoC5/cyfitter_cfg.c **** * Return:
 389:Generated_Source\PSoC5/cyfitter_cfg.c **** *   void
 390:Generated_Source\PSoC5/cyfitter_cfg.c **** *
 391:Generated_Source\PSoC5/cyfitter_cfg.c **** *******************************************************************************/
 392:Generated_Source\PSoC5/cyfitter_cfg.c **** void AMux_TIA_input_Set(uint8 channel)
 393:Generated_Source\PSoC5/cyfitter_cfg.c **** {
 471              		.loc 1 393 0
 472              		.cfi_startproc
 473              		@ args = 0, pretend = 0, frame = 0
 474              		@ frame_needed = 0, uses_anonymous_args = 0
 475              		@ link register save eliminated.
 476              	.LVL32:
 394:Generated_Source\PSoC5/cyfitter_cfg.c **** 	if (channel < 3)
 477              		.loc 1 394 0
ARM GAS  C:\Users\ANNASP~1\AppData\Local\Temp\ccsytGYf.s 			page 17


 478 0000 0228     		cmp	r0, #2
 479 0002 07D8     		bhi	.L29
 395:Generated_Source\PSoC5/cyfitter_cfg.c **** 	{
 396:Generated_Source\PSoC5/cyfitter_cfg.c **** 		*AMux_TIA_input__addrTable[channel] |= AMux_TIA_input__maskTable[channel];
 480              		.loc 1 396 0
 481 0004 044B     		ldr	r3, .L31
 482 0006 53F82020 		ldr	r2, [r3, r0, lsl #2]
 483 000a 1844     		add	r0, r0, r3
 484              	.LVL33:
 485 000c 017B     		ldrb	r1, [r0, #12]	@ zero_extendqisi2
 486 000e 1378     		ldrb	r3, [r2]	@ zero_extendqisi2
 487 0010 0B43     		orrs	r3, r3, r1
 488 0012 1370     		strb	r3, [r2]
 489              	.L29:
 490 0014 7047     		bx	lr
 491              	.L32:
 492 0016 00BF     		.align	2
 493              	.L31:
 494 0018 00000000 		.word	.LANCHOR0
 495              		.cfi_endproc
 496              	.LFE8:
 497              		.size	AMux_TIA_input_Set, .-AMux_TIA_input_Set
 498              		.section	.text.AMux_TIA_input_Unset,"ax",%progbits
 499              		.align	2
 500              		.global	AMux_TIA_input_Unset
 501              		.thumb
 502              		.thumb_func
 503              		.type	AMux_TIA_input_Unset, %function
 504              	AMux_TIA_input_Unset:
 505              	.LFB9:
 397:Generated_Source\PSoC5/cyfitter_cfg.c **** 	}
 398:Generated_Source\PSoC5/cyfitter_cfg.c **** }
 399:Generated_Source\PSoC5/cyfitter_cfg.c **** 
 400:Generated_Source\PSoC5/cyfitter_cfg.c **** /*******************************************************************************
 401:Generated_Source\PSoC5/cyfitter_cfg.c **** * Function Name: AMux_TIA_input_Unset
 402:Generated_Source\PSoC5/cyfitter_cfg.c **** ********************************************************************************
 403:Generated_Source\PSoC5/cyfitter_cfg.c **** * Summary:
 404:Generated_Source\PSoC5/cyfitter_cfg.c **** *  This function is used to clear a particular channel from being active on the
 405:Generated_Source\PSoC5/cyfitter_cfg.c **** *  AMux.
 406:Generated_Source\PSoC5/cyfitter_cfg.c **** *
 407:Generated_Source\PSoC5/cyfitter_cfg.c **** * Parameters:  
 408:Generated_Source\PSoC5/cyfitter_cfg.c **** *   channel - The mux channel input to mark inactive
 409:Generated_Source\PSoC5/cyfitter_cfg.c **** *
 410:Generated_Source\PSoC5/cyfitter_cfg.c **** * Return:
 411:Generated_Source\PSoC5/cyfitter_cfg.c **** *   void
 412:Generated_Source\PSoC5/cyfitter_cfg.c **** *
 413:Generated_Source\PSoC5/cyfitter_cfg.c **** *******************************************************************************/
 414:Generated_Source\PSoC5/cyfitter_cfg.c **** void AMux_TIA_input_Unset(uint8 channel)
 415:Generated_Source\PSoC5/cyfitter_cfg.c **** {
 506              		.loc 1 415 0
 507              		.cfi_startproc
 508              		@ args = 0, pretend = 0, frame = 0
 509              		@ frame_needed = 0, uses_anonymous_args = 0
 510              		@ link register save eliminated.
 511              	.LVL34:
 416:Generated_Source\PSoC5/cyfitter_cfg.c **** 	if (channel < 3)
 512              		.loc 1 416 0
ARM GAS  C:\Users\ANNASP~1\AppData\Local\Temp\ccsytGYf.s 			page 18


 513 0000 0228     		cmp	r0, #2
 514 0002 08D8     		bhi	.L33
 417:Generated_Source\PSoC5/cyfitter_cfg.c **** 	{
 418:Generated_Source\PSoC5/cyfitter_cfg.c **** 		*AMux_TIA_input__addrTable[channel] &= (uint8)~AMux_TIA_input__maskTable[channel];
 515              		.loc 1 418 0
 516 0004 044B     		ldr	r3, .L35
 517 0006 53F82020 		ldr	r2, [r3, r0, lsl #2]
 518 000a 1844     		add	r0, r0, r3
 519              	.LVL35:
 520 000c 017B     		ldrb	r1, [r0, #12]	@ zero_extendqisi2
 521 000e 1378     		ldrb	r3, [r2]	@ zero_extendqisi2
 522 0010 23EA0103 		bic	r3, r3, r1
 523 0014 1370     		strb	r3, [r2]
 524              	.L33:
 525 0016 7047     		bx	lr
 526              	.L36:
 527              		.align	2
 528              	.L35:
 529 0018 00000000 		.word	.LANCHOR0
 530              		.cfi_endproc
 531              	.LFE9:
 532              		.size	AMux_TIA_input_Unset, .-AMux_TIA_input_Unset
 533              		.section	.text.AMux_TIA_resistor_bypass_Set,"ax",%progbits
 534              		.align	2
 535              		.global	AMux_TIA_resistor_bypass_Set
 536              		.thumb
 537              		.thumb_func
 538              		.type	AMux_TIA_resistor_bypass_Set, %function
 539              	AMux_TIA_resistor_bypass_Set:
 540              	.LFB10:
 419:Generated_Source\PSoC5/cyfitter_cfg.c **** 	}
 420:Generated_Source\PSoC5/cyfitter_cfg.c **** }
 421:Generated_Source\PSoC5/cyfitter_cfg.c **** 
 422:Generated_Source\PSoC5/cyfitter_cfg.c **** /* This is an implementation detail of the AMux. Code that depends on it may be
 423:Generated_Source\PSoC5/cyfitter_cfg.c ****    incompatible with other versions of PSoC Creator. */
 424:Generated_Source\PSoC5/cyfitter_cfg.c **** uint8 CYXDATA * const CYCODE AMux_TIA_resistor_bypass__addrTable[2] = {
 425:Generated_Source\PSoC5/cyfitter_cfg.c **** 	(uint8 CYXDATA *)CYREG_DSM0_SW0, (uint8 CYXDATA *)CYREG_PRT1_AG, 
 426:Generated_Source\PSoC5/cyfitter_cfg.c **** };
 427:Generated_Source\PSoC5/cyfitter_cfg.c **** 
 428:Generated_Source\PSoC5/cyfitter_cfg.c **** /* This is an implementation detail of the AMux. Code that depends on it may be
 429:Generated_Source\PSoC5/cyfitter_cfg.c ****    incompatible with other versions of PSoC Creator. */
 430:Generated_Source\PSoC5/cyfitter_cfg.c **** const uint8 CYCODE AMux_TIA_resistor_bypass__maskTable[2] = {
 431:Generated_Source\PSoC5/cyfitter_cfg.c **** 	0x04u, 0x40u, 
 432:Generated_Source\PSoC5/cyfitter_cfg.c **** };
 433:Generated_Source\PSoC5/cyfitter_cfg.c **** 
 434:Generated_Source\PSoC5/cyfitter_cfg.c **** /*******************************************************************************
 435:Generated_Source\PSoC5/cyfitter_cfg.c **** * Function Name: AMux_TIA_resistor_bypass_Set
 436:Generated_Source\PSoC5/cyfitter_cfg.c **** ********************************************************************************
 437:Generated_Source\PSoC5/cyfitter_cfg.c **** * Summary:
 438:Generated_Source\PSoC5/cyfitter_cfg.c **** *  This function is used to set a particular channel as active on the AMux.
 439:Generated_Source\PSoC5/cyfitter_cfg.c **** *
 440:Generated_Source\PSoC5/cyfitter_cfg.c **** * Parameters:  
 441:Generated_Source\PSoC5/cyfitter_cfg.c **** *   channel - The mux channel input to set as active
 442:Generated_Source\PSoC5/cyfitter_cfg.c **** *
 443:Generated_Source\PSoC5/cyfitter_cfg.c **** * Return:
 444:Generated_Source\PSoC5/cyfitter_cfg.c **** *   void
 445:Generated_Source\PSoC5/cyfitter_cfg.c **** *
ARM GAS  C:\Users\ANNASP~1\AppData\Local\Temp\ccsytGYf.s 			page 19


 446:Generated_Source\PSoC5/cyfitter_cfg.c **** *******************************************************************************/
 447:Generated_Source\PSoC5/cyfitter_cfg.c **** void AMux_TIA_resistor_bypass_Set(uint8 channel)
 448:Generated_Source\PSoC5/cyfitter_cfg.c **** {
 541              		.loc 1 448 0
 542              		.cfi_startproc
 543              		@ args = 0, pretend = 0, frame = 0
 544              		@ frame_needed = 0, uses_anonymous_args = 0
 545              		@ link register save eliminated.
 546              	.LVL36:
 449:Generated_Source\PSoC5/cyfitter_cfg.c **** 	if (channel < 1)
 547              		.loc 1 449 0
 548 0000 B0B9     		cbnz	r0, .L41
 448:Generated_Source\PSoC5/cyfitter_cfg.c **** 	if (channel < 1)
 549              		.loc 1 448 0
 550 0002 10B4     		push	{r4}
 551              		.cfi_def_cfa_offset 4
 552              		.cfi_offset 4, -4
 450:Generated_Source\PSoC5/cyfitter_cfg.c **** 	{
 451:Generated_Source\PSoC5/cyfitter_cfg.c **** 		channel += channel;
 553              		.loc 1 451 0
 554 0004 4000     		lsls	r0, r0, #1
 555              	.LVL37:
 556 0006 C0B2     		uxtb	r0, r0
 557              	.LVL38:
 452:Generated_Source\PSoC5/cyfitter_cfg.c **** 		*AMux_TIA_resistor_bypass__addrTable[channel] |= AMux_TIA_resistor_bypass__maskTable[channel];
 558              		.loc 1 452 0
 559 0008 0A4A     		ldr	r2, .L42
 560 000a 02EB8003 		add	r3, r2, r0, lsl #2
 561 000e 1969     		ldr	r1, [r3, #16]
 562 0010 1318     		adds	r3, r2, r0
 563 0012 1C7E     		ldrb	r4, [r3, #24]	@ zero_extendqisi2
 564 0014 0B78     		ldrb	r3, [r1]	@ zero_extendqisi2
 565 0016 2343     		orrs	r3, r3, r4
 566 0018 0B70     		strb	r3, [r1]
 453:Generated_Source\PSoC5/cyfitter_cfg.c **** 		channel++;
 567              		.loc 1 453 0
 568 001a 431C     		adds	r3, r0, #1
 569 001c D8B2     		uxtb	r0, r3
 570              	.LVL39:
 454:Generated_Source\PSoC5/cyfitter_cfg.c **** 		*AMux_TIA_resistor_bypass__addrTable[channel] |= AMux_TIA_resistor_bypass__maskTable[channel];
 571              		.loc 1 454 0
 572 001e 02EB8003 		add	r3, r2, r0, lsl #2
 573 0022 1969     		ldr	r1, [r3, #16]
 574 0024 1044     		add	r0, r0, r2
 575              	.LVL40:
 576 0026 027E     		ldrb	r2, [r0, #24]	@ zero_extendqisi2
 577 0028 0B78     		ldrb	r3, [r1]	@ zero_extendqisi2
 578 002a 1343     		orrs	r3, r3, r2
 579 002c 0B70     		strb	r3, [r1]
 455:Generated_Source\PSoC5/cyfitter_cfg.c **** 	}
 456:Generated_Source\PSoC5/cyfitter_cfg.c **** }
 580              		.loc 1 456 0
 581 002e 10BC     		pop	{r4}
 582              		.cfi_restore 4
 583              		.cfi_def_cfa_offset 0
 584              	.LVL41:
 585              	.L41:
ARM GAS  C:\Users\ANNASP~1\AppData\Local\Temp\ccsytGYf.s 			page 20


 586 0030 7047     		bx	lr
 587              	.L43:
 588 0032 00BF     		.align	2
 589              	.L42:
 590 0034 00000000 		.word	.LANCHOR0
 591              		.cfi_endproc
 592              	.LFE10:
 593              		.size	AMux_TIA_resistor_bypass_Set, .-AMux_TIA_resistor_bypass_Set
 594              		.section	.text.AMux_TIA_resistor_bypass_Unset,"ax",%progbits
 595              		.align	2
 596              		.global	AMux_TIA_resistor_bypass_Unset
 597              		.thumb
 598              		.thumb_func
 599              		.type	AMux_TIA_resistor_bypass_Unset, %function
 600              	AMux_TIA_resistor_bypass_Unset:
 601              	.LFB11:
 457:Generated_Source\PSoC5/cyfitter_cfg.c **** 
 458:Generated_Source\PSoC5/cyfitter_cfg.c **** /*******************************************************************************
 459:Generated_Source\PSoC5/cyfitter_cfg.c **** * Function Name: AMux_TIA_resistor_bypass_Unset
 460:Generated_Source\PSoC5/cyfitter_cfg.c **** ********************************************************************************
 461:Generated_Source\PSoC5/cyfitter_cfg.c **** * Summary:
 462:Generated_Source\PSoC5/cyfitter_cfg.c **** *  This function is used to clear a particular channel from being active on the
 463:Generated_Source\PSoC5/cyfitter_cfg.c **** *  AMux.
 464:Generated_Source\PSoC5/cyfitter_cfg.c **** *
 465:Generated_Source\PSoC5/cyfitter_cfg.c **** * Parameters:  
 466:Generated_Source\PSoC5/cyfitter_cfg.c **** *   channel - The mux channel input to mark inactive
 467:Generated_Source\PSoC5/cyfitter_cfg.c **** *
 468:Generated_Source\PSoC5/cyfitter_cfg.c **** * Return:
 469:Generated_Source\PSoC5/cyfitter_cfg.c **** *   void
 470:Generated_Source\PSoC5/cyfitter_cfg.c **** *
 471:Generated_Source\PSoC5/cyfitter_cfg.c **** *******************************************************************************/
 472:Generated_Source\PSoC5/cyfitter_cfg.c **** void AMux_TIA_resistor_bypass_Unset(uint8 channel)
 473:Generated_Source\PSoC5/cyfitter_cfg.c **** {
 602              		.loc 1 473 0
 603              		.cfi_startproc
 604              		@ args = 0, pretend = 0, frame = 0
 605              		@ frame_needed = 0, uses_anonymous_args = 0
 606              		@ link register save eliminated.
 607              	.LVL42:
 474:Generated_Source\PSoC5/cyfitter_cfg.c **** 	if (channel < 1)
 608              		.loc 1 474 0
 609 0000 C0B9     		cbnz	r0, .L48
 473:Generated_Source\PSoC5/cyfitter_cfg.c **** 	if (channel < 1)
 610              		.loc 1 473 0
 611 0002 10B4     		push	{r4}
 612              		.cfi_def_cfa_offset 4
 613              		.cfi_offset 4, -4
 475:Generated_Source\PSoC5/cyfitter_cfg.c **** 	{
 476:Generated_Source\PSoC5/cyfitter_cfg.c **** 		channel += channel;
 614              		.loc 1 476 0
 615 0004 4000     		lsls	r0, r0, #1
 616              	.LVL43:
 617 0006 C0B2     		uxtb	r0, r0
 618              	.LVL44:
 477:Generated_Source\PSoC5/cyfitter_cfg.c **** 		*AMux_TIA_resistor_bypass__addrTable[channel] &= (uint8)~AMux_TIA_resistor_bypass__maskTable[chan
 619              		.loc 1 477 0
 620 0008 0B4A     		ldr	r2, .L49
ARM GAS  C:\Users\ANNASP~1\AppData\Local\Temp\ccsytGYf.s 			page 21


 621 000a 02EB8003 		add	r3, r2, r0, lsl #2
 622 000e 1969     		ldr	r1, [r3, #16]
 623 0010 1318     		adds	r3, r2, r0
 624 0012 1C7E     		ldrb	r4, [r3, #24]	@ zero_extendqisi2
 625 0014 0B78     		ldrb	r3, [r1]	@ zero_extendqisi2
 626 0016 23EA0403 		bic	r3, r3, r4
 627 001a 0B70     		strb	r3, [r1]
 478:Generated_Source\PSoC5/cyfitter_cfg.c **** 		channel++;
 628              		.loc 1 478 0
 629 001c 431C     		adds	r3, r0, #1
 630 001e D8B2     		uxtb	r0, r3
 631              	.LVL45:
 479:Generated_Source\PSoC5/cyfitter_cfg.c **** 		*AMux_TIA_resistor_bypass__addrTable[channel] &= (uint8)~AMux_TIA_resistor_bypass__maskTable[chan
 632              		.loc 1 479 0
 633 0020 02EB8003 		add	r3, r2, r0, lsl #2
 634 0024 1969     		ldr	r1, [r3, #16]
 635 0026 1044     		add	r0, r0, r2
 636              	.LVL46:
 637 0028 027E     		ldrb	r2, [r0, #24]	@ zero_extendqisi2
 638 002a 0B78     		ldrb	r3, [r1]	@ zero_extendqisi2
 639 002c 23EA0203 		bic	r3, r3, r2
 640 0030 0B70     		strb	r3, [r1]
 480:Generated_Source\PSoC5/cyfitter_cfg.c **** 	}
 481:Generated_Source\PSoC5/cyfitter_cfg.c **** }
 641              		.loc 1 481 0
 642 0032 10BC     		pop	{r4}
 643              		.cfi_restore 4
 644              		.cfi_def_cfa_offset 0
 645              	.LVL47:
 646              	.L48:
 647 0034 7047     		bx	lr
 648              	.L50:
 649 0036 00BF     		.align	2
 650              	.L49:
 651 0038 00000000 		.word	.LANCHOR0
 652              		.cfi_endproc
 653              	.LFE11:
 654              		.size	AMux_TIA_resistor_bypass_Unset, .-AMux_TIA_resistor_bypass_Unset
 655              		.section	.text.AMux_V_source_Set,"ax",%progbits
 656              		.align	2
 657              		.global	AMux_V_source_Set
 658              		.thumb
 659              		.thumb_func
 660              		.type	AMux_V_source_Set, %function
 661              	AMux_V_source_Set:
 662              	.LFB12:
 482:Generated_Source\PSoC5/cyfitter_cfg.c **** 
 483:Generated_Source\PSoC5/cyfitter_cfg.c **** /* This is an implementation detail of the AMux. Code that depends on it may be
 484:Generated_Source\PSoC5/cyfitter_cfg.c ****    incompatible with other versions of PSoC Creator. */
 485:Generated_Source\PSoC5/cyfitter_cfg.c **** uint8 CYXDATA * const CYCODE AMux_V_source__addrTable[2] = {
 486:Generated_Source\PSoC5/cyfitter_cfg.c **** 	(uint8 CYXDATA *)CYREG_DAC3_SW0, 
 487:Generated_Source\PSoC5/cyfitter_cfg.c **** 	(uint8 CYXDATA *)CYREG_PRT3_AG, 
 488:Generated_Source\PSoC5/cyfitter_cfg.c **** };
 489:Generated_Source\PSoC5/cyfitter_cfg.c **** 
 490:Generated_Source\PSoC5/cyfitter_cfg.c **** /* This is an implementation detail of the AMux. Code that depends on it may be
 491:Generated_Source\PSoC5/cyfitter_cfg.c ****    incompatible with other versions of PSoC Creator. */
 492:Generated_Source\PSoC5/cyfitter_cfg.c **** const uint8 CYCODE AMux_V_source__maskTable[2] = {
ARM GAS  C:\Users\ANNASP~1\AppData\Local\Temp\ccsytGYf.s 			page 22


 493:Generated_Source\PSoC5/cyfitter_cfg.c **** 	0x20u, 
 494:Generated_Source\PSoC5/cyfitter_cfg.c **** 	0x02u, 
 495:Generated_Source\PSoC5/cyfitter_cfg.c **** };
 496:Generated_Source\PSoC5/cyfitter_cfg.c **** 
 497:Generated_Source\PSoC5/cyfitter_cfg.c **** /*******************************************************************************
 498:Generated_Source\PSoC5/cyfitter_cfg.c **** * Function Name: AMux_V_source_Set
 499:Generated_Source\PSoC5/cyfitter_cfg.c **** ********************************************************************************
 500:Generated_Source\PSoC5/cyfitter_cfg.c **** * Summary:
 501:Generated_Source\PSoC5/cyfitter_cfg.c **** *  This function is used to set a particular channel as active on the AMux.
 502:Generated_Source\PSoC5/cyfitter_cfg.c **** *
 503:Generated_Source\PSoC5/cyfitter_cfg.c **** * Parameters:  
 504:Generated_Source\PSoC5/cyfitter_cfg.c **** *   channel - The mux channel input to set as active
 505:Generated_Source\PSoC5/cyfitter_cfg.c **** *
 506:Generated_Source\PSoC5/cyfitter_cfg.c **** * Return:
 507:Generated_Source\PSoC5/cyfitter_cfg.c **** *   void
 508:Generated_Source\PSoC5/cyfitter_cfg.c **** *
 509:Generated_Source\PSoC5/cyfitter_cfg.c **** *******************************************************************************/
 510:Generated_Source\PSoC5/cyfitter_cfg.c **** void AMux_V_source_Set(uint8 channel)
 511:Generated_Source\PSoC5/cyfitter_cfg.c **** {
 663              		.loc 1 511 0
 664              		.cfi_startproc
 665              		@ args = 0, pretend = 0, frame = 0
 666              		@ frame_needed = 0, uses_anonymous_args = 0
 667              		@ link register save eliminated.
 668              	.LVL48:
 512:Generated_Source\PSoC5/cyfitter_cfg.c **** 	if (channel < 2)
 669              		.loc 1 512 0
 670 0000 0128     		cmp	r0, #1
 671 0002 09D8     		bhi	.L51
 513:Generated_Source\PSoC5/cyfitter_cfg.c **** 	{
 514:Generated_Source\PSoC5/cyfitter_cfg.c **** 		*AMux_V_source__addrTable[channel] |= AMux_V_source__maskTable[channel];
 672              		.loc 1 514 0
 673 0004 054B     		ldr	r3, .L53
 674 0006 03EB8002 		add	r2, r3, r0, lsl #2
 675 000a D269     		ldr	r2, [r2, #28]
 676 000c 1844     		add	r0, r0, r3
 677              	.LVL49:
 678 000e 90F82410 		ldrb	r1, [r0, #36]	@ zero_extendqisi2
 679 0012 1378     		ldrb	r3, [r2]	@ zero_extendqisi2
 680 0014 0B43     		orrs	r3, r3, r1
 681 0016 1370     		strb	r3, [r2]
 682              	.L51:
 683 0018 7047     		bx	lr
 684              	.L54:
 685 001a 00BF     		.align	2
 686              	.L53:
 687 001c 00000000 		.word	.LANCHOR0
 688              		.cfi_endproc
 689              	.LFE12:
 690              		.size	AMux_V_source_Set, .-AMux_V_source_Set
 691              		.section	.text.AMux_V_source_Unset,"ax",%progbits
 692              		.align	2
 693              		.global	AMux_V_source_Unset
 694              		.thumb
 695              		.thumb_func
 696              		.type	AMux_V_source_Unset, %function
 697              	AMux_V_source_Unset:
ARM GAS  C:\Users\ANNASP~1\AppData\Local\Temp\ccsytGYf.s 			page 23


 698              	.LFB13:
 515:Generated_Source\PSoC5/cyfitter_cfg.c **** 	}
 516:Generated_Source\PSoC5/cyfitter_cfg.c **** }
 517:Generated_Source\PSoC5/cyfitter_cfg.c **** 
 518:Generated_Source\PSoC5/cyfitter_cfg.c **** /*******************************************************************************
 519:Generated_Source\PSoC5/cyfitter_cfg.c **** * Function Name: AMux_V_source_Unset
 520:Generated_Source\PSoC5/cyfitter_cfg.c **** ********************************************************************************
 521:Generated_Source\PSoC5/cyfitter_cfg.c **** * Summary:
 522:Generated_Source\PSoC5/cyfitter_cfg.c **** *  This function is used to clear a particular channel from being active on the
 523:Generated_Source\PSoC5/cyfitter_cfg.c **** *  AMux.
 524:Generated_Source\PSoC5/cyfitter_cfg.c **** *
 525:Generated_Source\PSoC5/cyfitter_cfg.c **** * Parameters:  
 526:Generated_Source\PSoC5/cyfitter_cfg.c **** *   channel - The mux channel input to mark inactive
 527:Generated_Source\PSoC5/cyfitter_cfg.c **** *
 528:Generated_Source\PSoC5/cyfitter_cfg.c **** * Return:
 529:Generated_Source\PSoC5/cyfitter_cfg.c **** *   void
 530:Generated_Source\PSoC5/cyfitter_cfg.c **** *
 531:Generated_Source\PSoC5/cyfitter_cfg.c **** *******************************************************************************/
 532:Generated_Source\PSoC5/cyfitter_cfg.c **** void AMux_V_source_Unset(uint8 channel)
 533:Generated_Source\PSoC5/cyfitter_cfg.c **** {
 699              		.loc 1 533 0
 700              		.cfi_startproc
 701              		@ args = 0, pretend = 0, frame = 0
 702              		@ frame_needed = 0, uses_anonymous_args = 0
 703              		@ link register save eliminated.
 704              	.LVL50:
 534:Generated_Source\PSoC5/cyfitter_cfg.c **** 	if (channel < 2)
 705              		.loc 1 534 0
 706 0000 0128     		cmp	r0, #1
 707 0002 0AD8     		bhi	.L55
 535:Generated_Source\PSoC5/cyfitter_cfg.c **** 	{
 536:Generated_Source\PSoC5/cyfitter_cfg.c **** 		*AMux_V_source__addrTable[channel] &= (uint8)~AMux_V_source__maskTable[channel];
 708              		.loc 1 536 0
 709 0004 054B     		ldr	r3, .L57
 710 0006 03EB8002 		add	r2, r3, r0, lsl #2
 711 000a D269     		ldr	r2, [r2, #28]
 712 000c 1844     		add	r0, r0, r3
 713              	.LVL51:
 714 000e 90F82410 		ldrb	r1, [r0, #36]	@ zero_extendqisi2
 715 0012 1378     		ldrb	r3, [r2]	@ zero_extendqisi2
 716 0014 23EA0103 		bic	r3, r3, r1
 717 0018 1370     		strb	r3, [r2]
 718              	.L55:
 719 001a 7047     		bx	lr
 720              	.L58:
 721              		.align	2
 722              	.L57:
 723 001c 00000000 		.word	.LANCHOR0
 724              		.cfi_endproc
 725              	.LFE13:
 726              		.size	AMux_V_source_Unset, .-AMux_V_source_Unset
 727              		.section	.text.AMux_electrode_Set,"ax",%progbits
 728              		.align	2
 729              		.global	AMux_electrode_Set
 730              		.thumb
 731              		.thumb_func
 732              		.type	AMux_electrode_Set, %function
ARM GAS  C:\Users\ANNASP~1\AppData\Local\Temp\ccsytGYf.s 			page 24


 733              	AMux_electrode_Set:
 734              	.LFB14:
 537:Generated_Source\PSoC5/cyfitter_cfg.c **** 	}
 538:Generated_Source\PSoC5/cyfitter_cfg.c **** }
 539:Generated_Source\PSoC5/cyfitter_cfg.c **** 
 540:Generated_Source\PSoC5/cyfitter_cfg.c **** /* This is an implementation detail of the AMux. Code that depends on it may be
 541:Generated_Source\PSoC5/cyfitter_cfg.c ****    incompatible with other versions of PSoC Creator. */
 542:Generated_Source\PSoC5/cyfitter_cfg.c **** uint8 CYXDATA * const CYCODE AMux_electrode__addrTable[2] = {
 543:Generated_Source\PSoC5/cyfitter_cfg.c **** 	(uint8 CYXDATA *)CYREG_OPAMP1_SW, 
 544:Generated_Source\PSoC5/cyfitter_cfg.c **** 	(uint8 CYXDATA *)CYREG_OPAMP1_SW, 
 545:Generated_Source\PSoC5/cyfitter_cfg.c **** };
 546:Generated_Source\PSoC5/cyfitter_cfg.c **** 
 547:Generated_Source\PSoC5/cyfitter_cfg.c **** /* This is an implementation detail of the AMux. Code that depends on it may be
 548:Generated_Source\PSoC5/cyfitter_cfg.c ****    incompatible with other versions of PSoC Creator. */
 549:Generated_Source\PSoC5/cyfitter_cfg.c **** const uint8 CYCODE AMux_electrode__maskTable[2] = {
 550:Generated_Source\PSoC5/cyfitter_cfg.c **** 	0x01u, 
 551:Generated_Source\PSoC5/cyfitter_cfg.c **** 	0x02u, 
 552:Generated_Source\PSoC5/cyfitter_cfg.c **** };
 553:Generated_Source\PSoC5/cyfitter_cfg.c **** 
 554:Generated_Source\PSoC5/cyfitter_cfg.c **** /*******************************************************************************
 555:Generated_Source\PSoC5/cyfitter_cfg.c **** * Function Name: AMux_electrode_Set
 556:Generated_Source\PSoC5/cyfitter_cfg.c **** ********************************************************************************
 557:Generated_Source\PSoC5/cyfitter_cfg.c **** * Summary:
 558:Generated_Source\PSoC5/cyfitter_cfg.c **** *  This function is used to set a particular channel as active on the AMux.
 559:Generated_Source\PSoC5/cyfitter_cfg.c **** *
 560:Generated_Source\PSoC5/cyfitter_cfg.c **** * Parameters:  
 561:Generated_Source\PSoC5/cyfitter_cfg.c **** *   channel - The mux channel input to set as active
 562:Generated_Source\PSoC5/cyfitter_cfg.c **** *
 563:Generated_Source\PSoC5/cyfitter_cfg.c **** * Return:
 564:Generated_Source\PSoC5/cyfitter_cfg.c **** *   void
 565:Generated_Source\PSoC5/cyfitter_cfg.c **** *
 566:Generated_Source\PSoC5/cyfitter_cfg.c **** *******************************************************************************/
 567:Generated_Source\PSoC5/cyfitter_cfg.c **** void AMux_electrode_Set(uint8 channel)
 568:Generated_Source\PSoC5/cyfitter_cfg.c **** {
 735              		.loc 1 568 0
 736              		.cfi_startproc
 737              		@ args = 0, pretend = 0, frame = 0
 738              		@ frame_needed = 0, uses_anonymous_args = 0
 739              		@ link register save eliminated.
 740              	.LVL52:
 569:Generated_Source\PSoC5/cyfitter_cfg.c **** 	if (channel < 2)
 741              		.loc 1 569 0
 742 0000 0128     		cmp	r0, #1
 743 0002 09D8     		bhi	.L59
 570:Generated_Source\PSoC5/cyfitter_cfg.c **** 	{
 571:Generated_Source\PSoC5/cyfitter_cfg.c **** 		*AMux_electrode__addrTable[channel] |= AMux_electrode__maskTable[channel];
 744              		.loc 1 571 0
 745 0004 054B     		ldr	r3, .L61
 746 0006 03EB8002 		add	r2, r3, r0, lsl #2
 747 000a 926A     		ldr	r2, [r2, #40]
 748 000c 1844     		add	r0, r0, r3
 749              	.LVL53:
 750 000e 90F83010 		ldrb	r1, [r0, #48]	@ zero_extendqisi2
 751 0012 1378     		ldrb	r3, [r2]	@ zero_extendqisi2
 752 0014 0B43     		orrs	r3, r3, r1
 753 0016 1370     		strb	r3, [r2]
 754              	.L59:
ARM GAS  C:\Users\ANNASP~1\AppData\Local\Temp\ccsytGYf.s 			page 25


 755 0018 7047     		bx	lr
 756              	.L62:
 757 001a 00BF     		.align	2
 758              	.L61:
 759 001c 00000000 		.word	.LANCHOR0
 760              		.cfi_endproc
 761              	.LFE14:
 762              		.size	AMux_electrode_Set, .-AMux_electrode_Set
 763              		.section	.text.AMux_electrode_Unset,"ax",%progbits
 764              		.align	2
 765              		.global	AMux_electrode_Unset
 766              		.thumb
 767              		.thumb_func
 768              		.type	AMux_electrode_Unset, %function
 769              	AMux_electrode_Unset:
 770              	.LFB15:
 572:Generated_Source\PSoC5/cyfitter_cfg.c **** 	}
 573:Generated_Source\PSoC5/cyfitter_cfg.c **** }
 574:Generated_Source\PSoC5/cyfitter_cfg.c **** 
 575:Generated_Source\PSoC5/cyfitter_cfg.c **** /*******************************************************************************
 576:Generated_Source\PSoC5/cyfitter_cfg.c **** * Function Name: AMux_electrode_Unset
 577:Generated_Source\PSoC5/cyfitter_cfg.c **** ********************************************************************************
 578:Generated_Source\PSoC5/cyfitter_cfg.c **** * Summary:
 579:Generated_Source\PSoC5/cyfitter_cfg.c **** *  This function is used to clear a particular channel from being active on the
 580:Generated_Source\PSoC5/cyfitter_cfg.c **** *  AMux.
 581:Generated_Source\PSoC5/cyfitter_cfg.c **** *
 582:Generated_Source\PSoC5/cyfitter_cfg.c **** * Parameters:  
 583:Generated_Source\PSoC5/cyfitter_cfg.c **** *   channel - The mux channel input to mark inactive
 584:Generated_Source\PSoC5/cyfitter_cfg.c **** *
 585:Generated_Source\PSoC5/cyfitter_cfg.c **** * Return:
 586:Generated_Source\PSoC5/cyfitter_cfg.c **** *   void
 587:Generated_Source\PSoC5/cyfitter_cfg.c **** *
 588:Generated_Source\PSoC5/cyfitter_cfg.c **** *******************************************************************************/
 589:Generated_Source\PSoC5/cyfitter_cfg.c **** void AMux_electrode_Unset(uint8 channel)
 590:Generated_Source\PSoC5/cyfitter_cfg.c **** {
 771              		.loc 1 590 0
 772              		.cfi_startproc
 773              		@ args = 0, pretend = 0, frame = 0
 774              		@ frame_needed = 0, uses_anonymous_args = 0
 775              		@ link register save eliminated.
 776              	.LVL54:
 591:Generated_Source\PSoC5/cyfitter_cfg.c **** 	if (channel < 2)
 777              		.loc 1 591 0
 778 0000 0128     		cmp	r0, #1
 779 0002 0AD8     		bhi	.L63
 592:Generated_Source\PSoC5/cyfitter_cfg.c **** 	{
 593:Generated_Source\PSoC5/cyfitter_cfg.c **** 		*AMux_electrode__addrTable[channel] &= (uint8)~AMux_electrode__maskTable[channel];
 780              		.loc 1 593 0
 781 0004 054B     		ldr	r3, .L65
 782 0006 03EB8002 		add	r2, r3, r0, lsl #2
 783 000a 926A     		ldr	r2, [r2, #40]
 784 000c 1844     		add	r0, r0, r3
 785              	.LVL55:
 786 000e 90F83010 		ldrb	r1, [r0, #48]	@ zero_extendqisi2
 787 0012 1378     		ldrb	r3, [r2]	@ zero_extendqisi2
 788 0014 23EA0103 		bic	r3, r3, r1
 789 0018 1370     		strb	r3, [r2]
ARM GAS  C:\Users\ANNASP~1\AppData\Local\Temp\ccsytGYf.s 			page 26


 790              	.L63:
 791 001a 7047     		bx	lr
 792              	.L66:
 793              		.align	2
 794              	.L65:
 795 001c 00000000 		.word	.LANCHOR0
 796              		.cfi_endproc
 797              	.LFE15:
 798              		.size	AMux_electrode_Unset, .-AMux_electrode_Unset
 799              		.section	.text.cyfitter_cfg,"ax",%progbits
 800              		.align	2
 801              		.global	cyfitter_cfg
 802              		.thumb
 803              		.thumb_func
 804              		.type	cyfitter_cfg, %function
 805              	cyfitter_cfg:
 806              	.LFB16:
 594:Generated_Source\PSoC5/cyfitter_cfg.c **** 	}
 595:Generated_Source\PSoC5/cyfitter_cfg.c **** }
 596:Generated_Source\PSoC5/cyfitter_cfg.c **** 
 597:Generated_Source\PSoC5/cyfitter_cfg.c **** 
 598:Generated_Source\PSoC5/cyfitter_cfg.c **** 
 599:Generated_Source\PSoC5/cyfitter_cfg.c **** /*******************************************************************************
 600:Generated_Source\PSoC5/cyfitter_cfg.c **** * Function Name: cyfitter_cfg
 601:Generated_Source\PSoC5/cyfitter_cfg.c **** ********************************************************************************
 602:Generated_Source\PSoC5/cyfitter_cfg.c **** * Summary:
 603:Generated_Source\PSoC5/cyfitter_cfg.c **** *  This function is called by the start-up code for the selected device. It
 604:Generated_Source\PSoC5/cyfitter_cfg.c **** *  performs all of the necessary device configuration based on the design
 605:Generated_Source\PSoC5/cyfitter_cfg.c **** *  settings.  This includes settings from the Design Wide Resources (DWR) such
 606:Generated_Source\PSoC5/cyfitter_cfg.c **** *  as Clocks and Pins as well as any component configuration that is necessary.
 607:Generated_Source\PSoC5/cyfitter_cfg.c **** *
 608:Generated_Source\PSoC5/cyfitter_cfg.c **** * Parameters:
 609:Generated_Source\PSoC5/cyfitter_cfg.c **** *   void
 610:Generated_Source\PSoC5/cyfitter_cfg.c **** *
 611:Generated_Source\PSoC5/cyfitter_cfg.c **** * Return:
 612:Generated_Source\PSoC5/cyfitter_cfg.c **** *   void
 613:Generated_Source\PSoC5/cyfitter_cfg.c **** *
 614:Generated_Source\PSoC5/cyfitter_cfg.c **** *******************************************************************************/
 615:Generated_Source\PSoC5/cyfitter_cfg.c **** 
 616:Generated_Source\PSoC5/cyfitter_cfg.c **** void cyfitter_cfg(void)
 617:Generated_Source\PSoC5/cyfitter_cfg.c **** {
 807              		.loc 1 617 0
 808              		.cfi_startproc
 809              		@ args = 0, pretend = 0, frame = 0
 810              		@ frame_needed = 0, uses_anonymous_args = 0
 811 0000 38B5     		push	{r3, r4, r5, lr}
 812              		.cfi_def_cfa_offset 16
 813              		.cfi_offset 3, -16
 814              		.cfi_offset 4, -12
 815              		.cfi_offset 5, -8
 816              		.cfi_offset 14, -4
 618:Generated_Source\PSoC5/cyfitter_cfg.c **** #ifdef CYGlobalIntDisable
 619:Generated_Source\PSoC5/cyfitter_cfg.c **** 	/* Disable interrupts by default. Let user enable if/when they want. */
 620:Generated_Source\PSoC5/cyfitter_cfg.c **** 	CYGlobalIntDisable
 817              		.loc 1 620 0
 818              		.syntax unified
 819              	@ 620 "Generated_Source\PSoC5\cyfitter_cfg.c" 1
ARM GAS  C:\Users\ANNASP~1\AppData\Local\Temp\ccsytGYf.s 			page 27


 820 0002 72B6     		CPSID   i
 821              	@ 0 "" 2
 621:Generated_Source\PSoC5/cyfitter_cfg.c **** #endif
 622:Generated_Source\PSoC5/cyfitter_cfg.c **** 
 623:Generated_Source\PSoC5/cyfitter_cfg.c **** 	/* Enable/Disable Debug functionality based on settings from System DWR */
 624:Generated_Source\PSoC5/cyfitter_cfg.c **** 	CY_SET_XTND_REG8((void CYFAR *)CYREG_MLOGIC_DEBUG, (CY_GET_XTND_REG8((void CYFAR *)CYREG_MLOGIC_DE
 822              		.loc 1 624 0
 823              		.thumb
 824              		.syntax unified
 825 0004 3B4A     		ldr	r2, .L73
 826 0006 1378     		ldrb	r3, [r2]	@ zero_extendqisi2
 827 0008 43F00403 		orr	r3, r3, #4
 828 000c 1370     		strb	r3, [r2]
 829              	.LVL56:
 830              	.LBB3:
 625:Generated_Source\PSoC5/cyfitter_cfg.c **** 
 626:Generated_Source\PSoC5/cyfitter_cfg.c **** 	{
 627:Generated_Source\PSoC5/cyfitter_cfg.c **** 
 628:Generated_Source\PSoC5/cyfitter_cfg.c **** 		CYPACKED typedef struct {
 629:Generated_Source\PSoC5/cyfitter_cfg.c **** 			void CYFAR *address;
 630:Generated_Source\PSoC5/cyfitter_cfg.c **** 			uint16 size;
 631:Generated_Source\PSoC5/cyfitter_cfg.c **** 		} CYPACKED_ATTR cfg_memset_t;
 632:Generated_Source\PSoC5/cyfitter_cfg.c **** 
 633:Generated_Source\PSoC5/cyfitter_cfg.c **** 
 634:Generated_Source\PSoC5/cyfitter_cfg.c **** 		CYPACKED typedef struct {
 635:Generated_Source\PSoC5/cyfitter_cfg.c **** 			void CYFAR *dest;
 636:Generated_Source\PSoC5/cyfitter_cfg.c **** 			const void CYFAR *src;
 637:Generated_Source\PSoC5/cyfitter_cfg.c **** 			uint16 size;
 638:Generated_Source\PSoC5/cyfitter_cfg.c **** 		} CYPACKED_ATTR cfg_memcpy_t;
 639:Generated_Source\PSoC5/cyfitter_cfg.c **** 
 640:Generated_Source\PSoC5/cyfitter_cfg.c **** 		static const cfg_memset_t CYCODE cfg_memset_list[] = {
 641:Generated_Source\PSoC5/cyfitter_cfg.c **** 			/* address, size */
 642:Generated_Source\PSoC5/cyfitter_cfg.c **** 			{(void CYFAR *)(CYREG_PRT4_DR), 48u},
 643:Generated_Source\PSoC5/cyfitter_cfg.c **** 			{(void CYFAR *)(CYREG_PRT15_DR), 16u},
 644:Generated_Source\PSoC5/cyfitter_cfg.c **** 			{(void CYFAR *)(CYDEV_UCFG_B0_P0_U0_BASE), 4096u},
 645:Generated_Source\PSoC5/cyfitter_cfg.c **** 			{(void CYFAR *)(CYDEV_UCFG_B1_P2_U0_BASE), 1152u},
 646:Generated_Source\PSoC5/cyfitter_cfg.c **** 			{(void CYFAR *)(CYDEV_UCFG_B1_P4_ROUTE_BASE), 768u},
 647:Generated_Source\PSoC5/cyfitter_cfg.c **** 			{(void CYFAR *)(CYDEV_UCFG_DSI0_BASE), 2560u},
 648:Generated_Source\PSoC5/cyfitter_cfg.c **** 			{(void CYFAR *)(CYDEV_UCFG_DSI12_BASE), 512u},
 649:Generated_Source\PSoC5/cyfitter_cfg.c **** 			{(void CYFAR *)(CYREG_BCTL0_MDCLK_EN), 32u},
 650:Generated_Source\PSoC5/cyfitter_cfg.c **** 		};
 651:Generated_Source\PSoC5/cyfitter_cfg.c **** 
 652:Generated_Source\PSoC5/cyfitter_cfg.c **** 		static const cfg_memcpy_t CYCODE cfg_memcpy_list [] = {
 653:Generated_Source\PSoC5/cyfitter_cfg.c **** 			/* dest, src, size */
 654:Generated_Source\PSoC5/cyfitter_cfg.c **** 			{(void CYFAR *)(CYDEV_UCFG_B1_P4_U1_BASE), BS_UDB_0_1_0_CONFIG_VAL, 128u},
 655:Generated_Source\PSoC5/cyfitter_cfg.c **** 		};
 656:Generated_Source\PSoC5/cyfitter_cfg.c **** 
 657:Generated_Source\PSoC5/cyfitter_cfg.c **** 		uint8 CYDATA i;
 658:Generated_Source\PSoC5/cyfitter_cfg.c **** 
 659:Generated_Source\PSoC5/cyfitter_cfg.c **** 		/* Zero out critical memory blocks before beginning configuration */
 660:Generated_Source\PSoC5/cyfitter_cfg.c **** 		for (i = 0u; i < (sizeof(cfg_memset_list)/sizeof(cfg_memset_list[0])); i++)
 831              		.loc 1 660 0
 832 000e 0024     		movs	r4, #0
 833 0010 0BE0     		b	.L68
 834              	.LVL57:
 835              	.L69:
 836              	.LBB4:
ARM GAS  C:\Users\ANNASP~1\AppData\Local\Temp\ccsytGYf.s 			page 28


 661:Generated_Source\PSoC5/cyfitter_cfg.c **** 		{
 662:Generated_Source\PSoC5/cyfitter_cfg.c **** 			const cfg_memset_t CYCODE * CYDATA ms = &cfg_memset_list[i];
 663:Generated_Source\PSoC5/cyfitter_cfg.c **** 			CYMEMZERO(ms->address, (size_t)(uint32)(ms->size));
 837              		.loc 1 663 0 discriminator 3
 838 0012 3948     		ldr	r0, .L73+4
 839 0014 6300     		lsls	r3, r4, #1
 840 0016 1A19     		adds	r2, r3, r4
 841 0018 5100     		lsls	r1, r2, #1
 842 001a 0144     		add	r1, r1, r0
 843 001c 0A46     		mov	r2, r1
 844 001e 098F     		ldrh	r1, [r1, #56]
 845 0020 506B     		ldr	r0, [r2, #52]	@ unaligned
 846 0022 FFF7FEFF 		bl	CYMEMZERO
 847              	.LVL58:
 848              	.LBE4:
 660:Generated_Source\PSoC5/cyfitter_cfg.c **** 		{
 849              		.loc 1 660 0 discriminator 3
 850 0026 0134     		adds	r4, r4, #1
 851              	.LVL59:
 852 0028 E4B2     		uxtb	r4, r4
 853              	.LVL60:
 854              	.L68:
 660:Generated_Source\PSoC5/cyfitter_cfg.c **** 		{
 855              		.loc 1 660 0 is_stmt 0 discriminator 1
 856 002a 072C     		cmp	r4, #7
 857 002c F1D9     		bls	.L69
 858 002e 0024     		movs	r4, #0
 859              	.LVL61:
 860 0030 0BE0     		b	.L70
 861              	.LVL62:
 862              	.L71:
 863              	.LBB5:
 664:Generated_Source\PSoC5/cyfitter_cfg.c **** 		}
 665:Generated_Source\PSoC5/cyfitter_cfg.c **** 
 666:Generated_Source\PSoC5/cyfitter_cfg.c **** 		/* Copy device configuration data into registers */
 667:Generated_Source\PSoC5/cyfitter_cfg.c **** 		for (i = 0u; i < (sizeof(cfg_memcpy_list)/sizeof(cfg_memcpy_list[0])); i++)
 668:Generated_Source\PSoC5/cyfitter_cfg.c **** 		{
 669:Generated_Source\PSoC5/cyfitter_cfg.c **** 			const cfg_memcpy_t CYCODE * CYDATA mc = &cfg_memcpy_list[i];
 670:Generated_Source\PSoC5/cyfitter_cfg.c **** 			void * CYDATA destPtr = mc->dest;
 864              		.loc 1 670 0 is_stmt 1 discriminator 3
 865 0032 3149     		ldr	r1, .L73+4
 866 0034 A300     		lsls	r3, r4, #2
 867 0036 1819     		adds	r0, r3, r4
 868 0038 4200     		lsls	r2, r0, #1
 869 003a 8818     		adds	r0, r1, r2
 870              	.LVL63:
 671:Generated_Source\PSoC5/cyfitter_cfg.c **** 			const void * CYDATA srcPtr = mc->src;
 672:Generated_Source\PSoC5/cyfitter_cfg.c **** 			uint16 CYDATA numBytes = mc->size;
 673:Generated_Source\PSoC5/cyfitter_cfg.c **** 			CYCONFIGCPY(destPtr, srcPtr, numBytes);
 871              		.loc 1 673 0 discriminator 3
 872 003c 8022     		movs	r2, #128
 873 003e 816E     		ldr	r1, [r0, #104]	@ unaligned
 874              	.LVL64:
 875 0040 406E     		ldr	r0, [r0, #100]	@ unaligned
 876              	.LVL65:
 877 0042 FFF7FEFF 		bl	CYCONFIGCPY
 878              	.LVL66:
ARM GAS  C:\Users\ANNASP~1\AppData\Local\Temp\ccsytGYf.s 			page 29


 879              	.LBE5:
 667:Generated_Source\PSoC5/cyfitter_cfg.c **** 		{
 880              		.loc 1 667 0 discriminator 3
 881 0046 0134     		adds	r4, r4, #1
 882              	.LVL67:
 883 0048 E4B2     		uxtb	r4, r4
 884              	.LVL68:
 885              	.L70:
 667:Generated_Source\PSoC5/cyfitter_cfg.c **** 		{
 886              		.loc 1 667 0 is_stmt 0 discriminator 1
 887 004a 002C     		cmp	r4, #0
 888 004c F1D0     		beq	.L71
 674:Generated_Source\PSoC5/cyfitter_cfg.c **** 		}
 675:Generated_Source\PSoC5/cyfitter_cfg.c **** 
 676:Generated_Source\PSoC5/cyfitter_cfg.c **** 		cfg_write_bytes32(cy_cfg_addr_table, cy_cfg_data_table);
 889              		.loc 1 676 0 is_stmt 1
 890 004e 2B49     		ldr	r1, .L73+8
 891 0050 4FF09040 		mov	r0, #1207959552
 892 0054 FFF7FEFF 		bl	cfg_write_bytes32
 893              	.LVL69:
 677:Generated_Source\PSoC5/cyfitter_cfg.c **** 
 678:Generated_Source\PSoC5/cyfitter_cfg.c **** 		/* Perform normal device configuration. Order is not critical for these items. */
 679:Generated_Source\PSoC5/cyfitter_cfg.c **** 		CY_SET_XTND_REG8((void CYFAR *)(CYREG_DSM0_CR3), 0x0Au);
 894              		.loc 1 679 0
 895 0058 0A25     		movs	r5, #10
 896 005a 294B     		ldr	r3, .L73+12
 897 005c 1D70     		strb	r5, [r3]
 680:Generated_Source\PSoC5/cyfitter_cfg.c **** 		CYMEMZERO((void CYFAR *)(CYREG_PHUB_CFGMEM0_CFG0), 4u);
 898              		.loc 1 680 0
 899 005e 0421     		movs	r1, #4
 900 0060 2848     		ldr	r0, .L73+16
 901 0062 FFF7FEFF 		bl	CYMEMZERO
 902              	.LVL70:
 681:Generated_Source\PSoC5/cyfitter_cfg.c **** 
 682:Generated_Source\PSoC5/cyfitter_cfg.c **** 		/* Enable digital routing */
 683:Generated_Source\PSoC5/cyfitter_cfg.c **** 		CY_SET_XTND_REG8((void CYFAR *)CYREG_BCTL0_BANK_CTL, CY_GET_XTND_REG8((void CYFAR *)CYREG_BCTL0_B
 903              		.loc 1 683 0
 904 0066 284A     		ldr	r2, .L73+20
 905 0068 1378     		ldrb	r3, [r2]	@ zero_extendqisi2
 906 006a 43F00203 		orr	r3, r3, #2
 907 006e 1370     		strb	r3, [r2]
 684:Generated_Source\PSoC5/cyfitter_cfg.c **** 		CY_SET_XTND_REG8((void CYFAR *)CYREG_BCTL1_BANK_CTL, CY_GET_XTND_REG8((void CYFAR *)CYREG_BCTL1_B
 908              		.loc 1 684 0
 909 0070 1032     		adds	r2, r2, #16
 910 0072 1378     		ldrb	r3, [r2]	@ zero_extendqisi2
 911 0074 43F00203 		orr	r3, r3, #2
 912 0078 1370     		strb	r3, [r2]
 685:Generated_Source\PSoC5/cyfitter_cfg.c **** 
 686:Generated_Source\PSoC5/cyfitter_cfg.c **** 		/* Enable UDB array */
 687:Generated_Source\PSoC5/cyfitter_cfg.c **** 		CY_SET_XTND_REG8((void CYFAR *)CYREG_PM_ACT_CFG0, CY_GET_XTND_REG8((void CYFAR *)CYREG_PM_ACT_CFG
 913              		.loc 1 687 0
 914 007a 244C     		ldr	r4, .L73+24
 915              	.LVL71:
 916 007c 2378     		ldrb	r3, [r4]	@ zero_extendqisi2
 917 007e 43F04003 		orr	r3, r3, #64
 918 0082 2370     		strb	r3, [r4]
 688:Generated_Source\PSoC5/cyfitter_cfg.c **** 		CY_SET_XTND_REG8((void CYFAR *)CYREG_PM_AVAIL_CR2, CY_GET_XTND_REG8((void CYFAR *)CYREG_PM_AVAIL_
ARM GAS  C:\Users\ANNASP~1\AppData\Local\Temp\ccsytGYf.s 			page 30


 919              		.loc 1 688 0
 920 0084 A2F58632 		sub	r2, r2, #68608
 921 0088 513A     		subs	r2, r2, #81
 922 008a 1378     		ldrb	r3, [r2]	@ zero_extendqisi2
 923 008c 43F01003 		orr	r3, r3, #16
 924 0090 1370     		strb	r3, [r2]
 925              	.LBE3:
 689:Generated_Source\PSoC5/cyfitter_cfg.c **** 	}
 690:Generated_Source\PSoC5/cyfitter_cfg.c **** 
 691:Generated_Source\PSoC5/cyfitter_cfg.c **** 
 692:Generated_Source\PSoC5/cyfitter_cfg.c **** 	/* Perform second pass device configuration. These items must be configured in specific order afte
 693:Generated_Source\PSoC5/cyfitter_cfg.c **** 	CYCONFIGCPY((void CYFAR *)(CYREG_PRT0_DM0), (const void CYFAR *)(BS_IOPINS0_0_VAL), 8u);
 926              		.loc 1 693 0
 927 0092 0822     		movs	r2, #8
 928 0094 1E49     		ldr	r1, .L73+28
 929 0096 1F48     		ldr	r0, .L73+32
 930 0098 FFF7FEFF 		bl	CYCONFIGCPY
 931              	.LVL72:
 694:Generated_Source\PSoC5/cyfitter_cfg.c **** 	CYCONFIGCPY((void CYFAR *)(CYREG_PRT12_DR), (const void CYFAR *)(BS_IOPINS0_7_VAL), 10u);
 932              		.loc 1 694 0
 933 009c 2A46     		mov	r2, r5
 934 009e 1E49     		ldr	r1, .L73+36
 935 00a0 1E48     		ldr	r0, .L73+40
 936 00a2 FFF7FEFF 		bl	CYCONFIGCPY
 937              	.LVL73:
 695:Generated_Source\PSoC5/cyfitter_cfg.c **** 	CYCONFIGCPY((void CYFAR *)(CYREG_PRT1_DM0), (const void CYFAR *)(BS_IOPINS0_1_VAL), 8u);
 938              		.loc 1 695 0
 939 00a6 0822     		movs	r2, #8
 940 00a8 1D49     		ldr	r1, .L73+44
 941 00aa 1E48     		ldr	r0, .L73+48
 942 00ac FFF7FEFF 		bl	CYCONFIGCPY
 943              	.LVL74:
 696:Generated_Source\PSoC5/cyfitter_cfg.c **** 	CYCONFIGCPY((void CYFAR *)(CYREG_PRT2_DM0), (const void CYFAR *)(BS_IOPINS0_2_VAL), 8u);
 944              		.loc 1 696 0
 945 00b0 0822     		movs	r2, #8
 946 00b2 1D49     		ldr	r1, .L73+52
 947 00b4 1D48     		ldr	r0, .L73+56
 948 00b6 FFF7FEFF 		bl	CYCONFIGCPY
 949              	.LVL75:
 697:Generated_Source\PSoC5/cyfitter_cfg.c **** 	CYCONFIGCPY((void CYFAR *)(CYREG_PRT3_DM0), (const void CYFAR *)(BS_IOPINS0_3_VAL), 8u);
 950              		.loc 1 697 0
 951 00ba 0822     		movs	r2, #8
 952 00bc 1C49     		ldr	r1, .L73+60
 953 00be 1D48     		ldr	r0, .L73+64
 954 00c0 FFF7FEFF 		bl	CYCONFIGCPY
 955              	.LVL76:
 698:Generated_Source\PSoC5/cyfitter_cfg.c **** 	/* Switch Boost to the precision bandgap reference from its internal reference */
 699:Generated_Source\PSoC5/cyfitter_cfg.c **** 	CY_SET_REG8((void CYXDATA *)CYREG_BOOST_CR2, (CY_GET_REG8((void CYXDATA *)CYREG_BOOST_CR2) | 0x08u
 956              		.loc 1 699 0
 957 00c4 1C4A     		ldr	r2, .L73+68
 958 00c6 1378     		ldrb	r3, [r2]	@ zero_extendqisi2
 959 00c8 43F00803 		orr	r3, r3, #8
 960 00cc 1370     		strb	r3, [r2]
 700:Generated_Source\PSoC5/cyfitter_cfg.c **** 
 701:Generated_Source\PSoC5/cyfitter_cfg.c **** 	/* Set Flash Cycles based on max possible frequency in case a glitch occurs during ClockSetup(). *
 702:Generated_Source\PSoC5/cyfitter_cfg.c **** 	CY_SET_XTND_REG8((void CYFAR *)(CYREG_CACHE_CC_CTL), (((CYDEV_INSTRUCT_CACHE_ENABLED) != 0) ? 0x61
 961              		.loc 1 702 0
ARM GAS  C:\Users\ANNASP~1\AppData\Local\Temp\ccsytGYf.s 			page 31


 962 00ce 1B4D     		ldr	r5, .L73+72
 963 00d0 6123     		movs	r3, #97
 964 00d2 2B70     		strb	r3, [r5]
 703:Generated_Source\PSoC5/cyfitter_cfg.c **** 	/* Setup clocks based on selections from Clock DWR */
 704:Generated_Source\PSoC5/cyfitter_cfg.c **** 	ClockSetup();
 965              		.loc 1 704 0
 966 00d4 FFF7FEFF 		bl	ClockSetup
 967              	.LVL77:
 705:Generated_Source\PSoC5/cyfitter_cfg.c **** 	/* Set Flash Cycles based on newly configured 24.00MHz Bus Clock. */
 706:Generated_Source\PSoC5/cyfitter_cfg.c **** 	CY_SET_XTND_REG8((void CYFAR *)(CYREG_CACHE_CC_CTL), (((CYDEV_INSTRUCT_CACHE_ENABLED) != 0) ? 0x81
 968              		.loc 1 706 0
 969 00d8 8123     		movs	r3, #129
 970 00da 2B70     		strb	r3, [r5]
 707:Generated_Source\PSoC5/cyfitter_cfg.c **** 	CY_SET_XTND_REG8((void CYFAR *)(CYREG_PANTHER_WAITPIPE), 0x01u);
 971              		.loc 1 707 0
 972 00dc 0122     		movs	r2, #1
 973 00de 184B     		ldr	r3, .L73+76
 974 00e0 1A70     		strb	r2, [r3]
 708:Generated_Source\PSoC5/cyfitter_cfg.c **** 
 709:Generated_Source\PSoC5/cyfitter_cfg.c **** 	/* Perform basic analog initialization to defaults */
 710:Generated_Source\PSoC5/cyfitter_cfg.c **** 	AnalogSetDefault();
 975              		.loc 1 710 0
 976 00e2 FFF7FEFF 		bl	AnalogSetDefault
 977              	.LVL78:
 711:Generated_Source\PSoC5/cyfitter_cfg.c **** 
 712:Generated_Source\PSoC5/cyfitter_cfg.c **** 	/* Configure alternate active mode */
 713:Generated_Source\PSoC5/cyfitter_cfg.c **** 	CYCONFIGCPY((void CYFAR *)CYDEV_PM_STBY_BASE, (const void CYFAR *)CYDEV_PM_ACT_BASE, 14u);
 978              		.loc 1 713 0
 979 00e6 0E22     		movs	r2, #14
 980 00e8 2146     		mov	r1, r4
 981 00ea 1648     		ldr	r0, .L73+80
 982 00ec FFF7FEFF 		bl	CYCONFIGCPY
 983              	.LVL79:
 984 00f0 38BD     		pop	{r3, r4, r5, pc}
 985              	.L74:
 986 00f2 00BF     		.align	2
 987              	.L73:
 988 00f4 E8460040 		.word	1073759976
 989 00f8 00000000 		.word	.LANCHOR0
 990 00fc 78000048 		.word	1207959672
 991 0100 83580040 		.word	1073764483
 992 0104 00760040 		.word	1073772032
 993 0108 03500140 		.word	1073827843
 994 010c A0430040 		.word	1073759136
 995 0110 F0040048 		.word	1207960816
 996 0114 02510040 		.word	1073762562
 997 0118 F8040048 		.word	1207960824
 998 011c C0510040 		.word	1073762752
 999 0120 04050048 		.word	1207960836
 1000 0124 12510040 		.word	1073762578
 1001 0128 0C050048 		.word	1207960844
 1002 012c 22510040 		.word	1073762594
 1003 0130 14050048 		.word	1207960852
 1004 0134 32510040 		.word	1073762610
 1005 0138 22430040 		.word	1073759010
 1006 013c 00480040 		.word	1073760256
 1007 0140 04000840 		.word	1074266116
ARM GAS  C:\Users\ANNASP~1\AppData\Local\Temp\ccsytGYf.s 			page 32


 1008 0144 B0430040 		.word	1073759152
 1009              		.cfi_endproc
 1010              	.LFE16:
 1011              		.size	cyfitter_cfg, .-cyfitter_cfg
 1012              		.global	AMux_electrode__maskTable
 1013              		.global	AMux_electrode__addrTable
 1014              		.global	AMux_V_source__maskTable
 1015              		.global	AMux_V_source__addrTable
 1016              		.global	AMux_TIA_resistor_bypass__maskTable
 1017              		.global	AMux_TIA_resistor_bypass__addrTable
 1018              		.global	AMux_TIA_input__maskTable
 1019              		.global	AMux_TIA_input__addrTable
 1020              		.section	.rodata
 1021              		.align	2
 1022              		.set	.LANCHOR0,. + 0
 1023              		.type	AMux_TIA_input__addrTable, %object
 1024              		.size	AMux_TIA_input__addrTable, 12
 1025              	AMux_TIA_input__addrTable:
 1026 0000 945A0040 		.word	1073765012
 1027 0004 0D510040 		.word	1073762573
 1028 0008 24430040 		.word	1073759012
 1029              		.type	AMux_TIA_input__maskTable, %object
 1030              		.size	AMux_TIA_input__maskTable, 3
 1031              	AMux_TIA_input__maskTable:
 1032 000c 10       		.byte	16
 1033 000d 01       		.byte	1
 1034 000e 00       		.byte	0
 1035 000f 00       		.space	1
 1036              		.type	AMux_TIA_resistor_bypass__addrTable, %object
 1037              		.size	AMux_TIA_resistor_bypass__addrTable, 8
 1038              	AMux_TIA_resistor_bypass__addrTable:
 1039 0010 005B0040 		.word	1073765120
 1040 0014 1D510040 		.word	1073762589
 1041              		.type	AMux_TIA_resistor_bypass__maskTable, %object
 1042              		.size	AMux_TIA_resistor_bypass__maskTable, 2
 1043              	AMux_TIA_resistor_bypass__maskTable:
 1044 0018 04       		.byte	4
 1045 0019 40       		.byte	64
 1046 001a 0000     		.space	2
 1047              		.type	AMux_V_source__addrTable, %object
 1048              		.size	AMux_V_source__addrTable, 8
 1049              	AMux_V_source__addrTable:
 1050 001c 985A0040 		.word	1073765016
 1051 0020 3D510040 		.word	1073762621
 1052              		.type	AMux_V_source__maskTable, %object
 1053              		.size	AMux_V_source__maskTable, 2
 1054              	AMux_V_source__maskTable:
 1055 0024 20       		.byte	32
 1056 0025 02       		.byte	2
 1057 0026 0000     		.space	2
 1058              		.type	AMux_electrode__addrTable, %object
 1059              		.size	AMux_electrode__addrTable, 8
 1060              	AMux_electrode__addrTable:
 1061 0028 435B0040 		.word	1073765187
 1062 002c 435B0040 		.word	1073765187
 1063              		.type	AMux_electrode__maskTable, %object
 1064              		.size	AMux_electrode__maskTable, 2
ARM GAS  C:\Users\ANNASP~1\AppData\Local\Temp\ccsytGYf.s 			page 33


 1065              	AMux_electrode__maskTable:
 1066 0030 01       		.byte	1
 1067 0031 02       		.byte	2
 1068 0032 0000     		.space	2
 1069              		.type	cfg_memset_list.5074, %object
 1070              		.size	cfg_memset_list.5074, 48
 1071              	cfg_memset_list.5074:
 1072 0034 40510040 		.word	1073762624
 1073 0038 3000     		.short	48
 1074 003a F0510040 		.4byte	1073762800
 1075 003e 1000     		.short	16
 1076 0040 00000140 		.word	1073807360
 1077 0044 0010     		.short	4096
 1078 0046 00140140 		.4byte	1073812480
 1079 004a 8004     		.short	1152
 1080 004c 00190140 		.word	1073813760
 1081 0050 0003     		.short	768
 1082 0052 00400140 		.4byte	1073823744
 1083 0056 000A     		.short	2560
 1084 0058 004C0140 		.word	1073826816
 1085 005c 0002     		.short	512
 1086 005e 00500140 		.4byte	1073827840
 1087 0062 2000     		.short	32
 1088              		.type	cfg_memcpy_list.5075, %object
 1089              		.size	cfg_memcpy_list.5075, 10
 1090              	cfg_memcpy_list.5075:
 1091 0064 80180140 		.word	1073813632
 1092 0068 70040048 		.word	1207960688
 1093 006c 8000     		.short	128
 1094              		.text
 1095              	.Letext0:
 1096              		.file 2 "c:\\program files (x86)\\cypress\\psoc creator\\4.4\\psoc creator\\import\\gnu\\arm\\5.4.
 1097              		.file 3 "Generated_Source\\PSoC5\\cytypes.h"
 1098              		.file 4 "Generated_Source\\PSoC5\\CyLib.h"