ARM GAS  C:\Users\ANNASP~1\AppData\Local\Temp\ccjG21mV.s 			page 1


   1              		.syntax unified
   2              		.cpu cortex-m3
   3              		.fpu softvfp
   4              		.eabi_attribute 20, 1
   5              		.eabi_attribute 21, 1
   6              		.eabi_attribute 23, 3
   7              		.eabi_attribute 24, 1
   8              		.eabi_attribute 25, 1
   9              		.eabi_attribute 26, 1
  10              		.eabi_attribute 30, 1
  11              		.eabi_attribute 34, 1
  12              		.eabi_attribute 18, 4
  13              		.thumb
  14              		.syntax unified
  15              		.file	"DAC_management.c"
  16              		.text
  17              	.Ltext0:
  18              		.cfi_sections	.debug_frame
  19              		.section	.text.DAC_Start,"ax",%progbits
  20              		.align	2
  21              		.global	DAC_Start
  22              		.thumb
  23              		.thumb_func
  24              		.type	DAC_Start, %function
  25              	DAC_Start:
  26              	.LFB64:
  27              		.file 1 "DAC_management.c"
   1:DAC_management.c **** /*********************************************************************************
   2:DAC_management.c **** * File Name: DAC.c
   3:DAC_management.c **** *
   4:DAC_management.c **** * Description:
   5:DAC_management.c **** *  An abstraction of 2 different DACs, an 8-bit VDAC or 12-bit DVDAC.
   6:DAC_management.c **** *  This file contains the source code for
   7:DAC_management.c **** *  the custom DAC, an 8-bit VDAC or 12-bit DVDAC selectable by the user
   8:DAC_management.c **** *
   9:DAC_management.c **** **********************************************************************************
  10:DAC_management.c ****  * Copyright Naresuan University, Phitsanulok Thailand
  11:DAC_management.c ****  * Released under Creative Commons Attribution-ShareAlike  3.0 (CC BY-SA 3.0 US)
  12:DAC_management.c **** *********************************************************************************/
  13:DAC_management.c **** 
  14:DAC_management.c **** #include "DAC_management.h"
  15:DAC_management.c **** #include "globals.h"
  16:DAC_management.c **** 
  17:DAC_management.c **** 
  18:DAC_management.c **** /******************************************************************************
  19:DAC_management.c **** * Function Name: DAC_Start
  20:DAC_management.c **** *******************************************************************************
  21:DAC_management.c **** *
  22:DAC_management.c **** * Summary:
  23:DAC_management.c **** *  Start the correct voltage source.  
  24:DAC_management.c **** *  Figure what source is being used, set the  correct AMux settings and start 
  25:DAC_management.c **** *  the correct source
  26:DAC_management.c **** *
  27:DAC_management.c **** * Parameters:
  28:DAC_management.c **** *
  29:DAC_management.c **** *
  30:DAC_management.c **** *  Global variables:
ARM GAS  C:\Users\ANNASP~1\AppData\Local\Temp\ccjG21mV.s 			page 2


  31:DAC_management.c **** *  selected_voltage_source:  voltage source that is set to run, 
  32:DAC_management.c **** *      [VDAC_IS_VDAC or VDAC_IS_DVDAC]
  33:DAC_management.c **** *
  34:DAC_management.c **** *******************************************************************************/
  35:DAC_management.c **** 
  36:DAC_management.c **** void DAC_Start(void) {
  28              		.loc 1 36 0
  29              		.cfi_startproc
  30              		@ args = 0, pretend = 0, frame = 0
  31              		@ frame_needed = 0, uses_anonymous_args = 0
  32 0000 08B5     		push	{r3, lr}
  33              		.cfi_def_cfa_offset 8
  34              		.cfi_offset 3, -8
  35              		.cfi_offset 14, -4
  37:DAC_management.c ****     selected_voltage_source = helper_check_voltage_source();  // check which DAC is being used
  36              		.loc 1 37 0
  37 0002 FFF7FEFF 		bl	helper_check_voltage_source
  38              	.LVL0:
  39 0006 0B4B     		ldr	r3, .L5
  40 0008 1870     		strb	r0, [r3]
  38:DAC_management.c ****     
  39:DAC_management.c ****     if (selected_voltage_source == VDAC_IS_DVDAC) {
  41              		.loc 1 39 0
  42 000a 0228     		cmp	r0, #2
  43 000c 09D1     		bne	.L2
  40:DAC_management.c ****         DVDAC_Start();
  44              		.loc 1 40 0
  45 000e FFF7FEFF 		bl	DVDAC_Start
  46              	.LVL1:
  41:DAC_management.c ****         dac_ground_value = VIRTUAL_GROUND;  //VIRTUAL_GROUND / 1 mV the value of the DAC that will 
  47              		.loc 1 41 0
  48 0012 4FF40062 		mov	r2, #2048
  49 0016 084B     		ldr	r3, .L5+4
  50 0018 1A80     		strh	r2, [r3]	@ movhi
  42:DAC_management.c ****         AMux_V_source_Select(DVDAC_channel);
  51              		.loc 1 42 0
  52 001a 0120     		movs	r0, #1
  53 001c FFF7FEFF 		bl	AMux_V_source_Select
  54              	.LVL2:
  55 0020 08BD     		pop	{r3, pc}
  56              	.L2:
  43:DAC_management.c ****     }
  44:DAC_management.c ****     else {
  45:DAC_management.c ****         VDAC_source_Start();
  57              		.loc 1 45 0
  58 0022 FFF7FEFF 		bl	VDAC_source_Start
  59              	.LVL3:
  46:DAC_management.c ****         dac_ground_value = VIRTUAL_GROUND / 16;  // value of dac to make 0 V across working and aux
  60              		.loc 1 46 0
  61 0026 8022     		movs	r2, #128
  62 0028 034B     		ldr	r3, .L5+4
  63 002a 1A80     		strh	r2, [r3]	@ movhi
  47:DAC_management.c ****         AMux_V_source_Select(VDAC_channel);
  64              		.loc 1 47 0
  65 002c 0020     		movs	r0, #0
  66 002e FFF7FEFF 		bl	AMux_V_source_Select
  67              	.LVL4:
ARM GAS  C:\Users\ANNASP~1\AppData\Local\Temp\ccjG21mV.s 			page 3


  68 0032 08BD     		pop	{r3, pc}
  69              	.L6:
  70              		.align	2
  71              	.L5:
  72 0034 00000000 		.word	selected_voltage_source
  73 0038 00000000 		.word	dac_ground_value
  74              		.cfi_endproc
  75              	.LFE64:
  76              		.size	DAC_Start, .-DAC_Start
  77              		.section	.text.DAC_Sleep,"ax",%progbits
  78              		.align	2
  79              		.global	DAC_Sleep
  80              		.thumb
  81              		.thumb_func
  82              		.type	DAC_Sleep, %function
  83              	DAC_Sleep:
  84              	.LFB65:
  48:DAC_management.c ****     }
  49:DAC_management.c **** }
  50:DAC_management.c **** 
  51:DAC_management.c **** /******************************************************************************
  52:DAC_management.c **** * Function Name: DAC_Sleep
  53:DAC_management.c **** *******************************************************************************
  54:DAC_management.c **** *
  55:DAC_management.c **** * Summary:
  56:DAC_management.c **** *  Put to sleep the correct voltage source
  57:DAC_management.c **** *
  58:DAC_management.c **** * Parameters:
  59:DAC_management.c **** *
  60:DAC_management.c **** *
  61:DAC_management.c **** * Global variables:
  62:DAC_management.c **** *  selected_voltage_source:  voltage source that is set to run, 
  63:DAC_management.c **** *      [VDAC_IS_VDAC or VDAC_IS_DVDAC]
  64:DAC_management.c **** *
  65:DAC_management.c **** *******************************************************************************/
  66:DAC_management.c **** 
  67:DAC_management.c **** void DAC_Sleep(void) {
  85              		.loc 1 67 0
  86              		.cfi_startproc
  87              		@ args = 0, pretend = 0, frame = 0
  88              		@ frame_needed = 0, uses_anonymous_args = 0
  89 0000 08B5     		push	{r3, lr}
  90              		.cfi_def_cfa_offset 8
  91              		.cfi_offset 3, -8
  92              		.cfi_offset 14, -4
  68:DAC_management.c ****     if (selected_voltage_source == VDAC_IS_DVDAC) {
  93              		.loc 1 68 0
  94 0002 054B     		ldr	r3, .L11
  95 0004 1B78     		ldrb	r3, [r3]	@ zero_extendqisi2
  96 0006 022B     		cmp	r3, #2
  97 0008 02D1     		bne	.L8
  69:DAC_management.c ****         DVDAC_Sleep();
  98              		.loc 1 69 0
  99 000a FFF7FEFF 		bl	DVDAC_Sleep
 100              	.LVL5:
 101 000e 08BD     		pop	{r3, pc}
 102              	.L8:
ARM GAS  C:\Users\ANNASP~1\AppData\Local\Temp\ccjG21mV.s 			page 4


  70:DAC_management.c ****     }
  71:DAC_management.c ****     else {
  72:DAC_management.c ****         VDAC_source_Sleep();
 103              		.loc 1 72 0
 104 0010 FFF7FEFF 		bl	VDAC_source_Sleep
 105              	.LVL6:
 106 0014 08BD     		pop	{r3, pc}
 107              	.L12:
 108 0016 00BF     		.align	2
 109              	.L11:
 110 0018 00000000 		.word	selected_voltage_source
 111              		.cfi_endproc
 112              	.LFE65:
 113              		.size	DAC_Sleep, .-DAC_Sleep
 114              		.section	.text.DAC_Wakeup,"ax",%progbits
 115              		.align	2
 116              		.global	DAC_Wakeup
 117              		.thumb
 118              		.thumb_func
 119              		.type	DAC_Wakeup, %function
 120              	DAC_Wakeup:
 121              	.LFB66:
  73:DAC_management.c ****     }
  74:DAC_management.c **** }
  75:DAC_management.c **** 
  76:DAC_management.c **** 
  77:DAC_management.c **** /******************************************************************************
  78:DAC_management.c **** * Function Name: DAC_Wakeup
  79:DAC_management.c **** *******************************************************************************
  80:DAC_management.c **** *
  81:DAC_management.c **** * Summary:
  82:DAC_management.c **** *  Wake up the correct voltage source
  83:DAC_management.c **** *
  84:DAC_management.c **** * Parameters:
  85:DAC_management.c **** *
  86:DAC_management.c **** *
  87:DAC_management.c **** * Global variables:
  88:DAC_management.c **** *  selected_voltage_source:  voltage source that is set to run, 
  89:DAC_management.c **** *      [VDAC_IS_VDAC or VDAC_IS_DVDAC]
  90:DAC_management.c **** *
  91:DAC_management.c **** *******************************************************************************/
  92:DAC_management.c **** 
  93:DAC_management.c **** void DAC_Wakeup(void) {
 122              		.loc 1 93 0
 123              		.cfi_startproc
 124              		@ args = 0, pretend = 0, frame = 0
 125              		@ frame_needed = 0, uses_anonymous_args = 0
 126 0000 08B5     		push	{r3, lr}
 127              		.cfi_def_cfa_offset 8
 128              		.cfi_offset 3, -8
 129              		.cfi_offset 14, -4
  94:DAC_management.c ****     if (selected_voltage_source == VDAC_IS_DVDAC) {
 130              		.loc 1 94 0
 131 0002 054B     		ldr	r3, .L17
 132 0004 1B78     		ldrb	r3, [r3]	@ zero_extendqisi2
 133 0006 022B     		cmp	r3, #2
 134 0008 02D1     		bne	.L14
ARM GAS  C:\Users\ANNASP~1\AppData\Local\Temp\ccjG21mV.s 			page 5


  95:DAC_management.c ****         DVDAC_Wakeup();
 135              		.loc 1 95 0
 136 000a FFF7FEFF 		bl	DVDAC_Wakeup
 137              	.LVL7:
 138 000e 08BD     		pop	{r3, pc}
 139              	.L14:
  96:DAC_management.c ****     }
  97:DAC_management.c ****     else {
  98:DAC_management.c ****         VDAC_source_Wakeup();
 140              		.loc 1 98 0
 141 0010 FFF7FEFF 		bl	VDAC_source_Wakeup
 142              	.LVL8:
 143 0014 08BD     		pop	{r3, pc}
 144              	.L18:
 145 0016 00BF     		.align	2
 146              	.L17:
 147 0018 00000000 		.word	selected_voltage_source
 148              		.cfi_endproc
 149              	.LFE66:
 150              		.size	DAC_Wakeup, .-DAC_Wakeup
 151              		.section	.text.DAC_SetValue,"ax",%progbits
 152              		.align	2
 153              		.global	DAC_SetValue
 154              		.thumb
 155              		.thumb_func
 156              		.type	DAC_SetValue, %function
 157              	DAC_SetValue:
 158              	.LFB67:
  99:DAC_management.c ****     }
 100:DAC_management.c **** }
 101:DAC_management.c **** 
 102:DAC_management.c **** 
 103:DAC_management.c **** /******************************************************************************
 104:DAC_management.c **** * Function Name: DAC_SetValue
 105:DAC_management.c **** *******************************************************************************
 106:DAC_management.c **** *
 107:DAC_management.c **** * Summary:
 108:DAC_management.c **** *  Set the value of the correct voltage source
 109:DAC_management.c **** *
 110:DAC_management.c **** * Parameters:
 111:DAC_management.c **** *  uint16_t value: number to place in the appropriate DAC
 112:DAC_management.c **** *
 113:DAC_management.c **** * Global variables:
 114:DAC_management.c **** *  selected_voltage_source:  voltage source that is set to run, 
 115:DAC_management.c **** *      [VDAC_IS_VDAC or VDAC_IS_DVDAC]
 116:DAC_management.c **** *
 117:DAC_management.c **** *******************************************************************************/
 118:DAC_management.c **** 
 119:DAC_management.c **** void DAC_SetValue(uint16_t value) {
 159              		.loc 1 119 0
 160              		.cfi_startproc
 161              		@ args = 0, pretend = 0, frame = 0
 162              		@ frame_needed = 0, uses_anonymous_args = 0
 163              	.LVL9:
 164 0000 08B5     		push	{r3, lr}
 165              		.cfi_def_cfa_offset 8
 166              		.cfi_offset 3, -8
ARM GAS  C:\Users\ANNASP~1\AppData\Local\Temp\ccjG21mV.s 			page 6


 167              		.cfi_offset 14, -4
 120:DAC_management.c ****     
 121:DAC_management.c ****     if (selected_voltage_source == VDAC_IS_DVDAC) {
 168              		.loc 1 121 0
 169 0002 054B     		ldr	r3, .L23
 170 0004 1B78     		ldrb	r3, [r3]	@ zero_extendqisi2
 171 0006 022B     		cmp	r3, #2
 172 0008 02D1     		bne	.L20
 122:DAC_management.c ****         DVDAC_SetValue(value);
 173              		.loc 1 122 0
 174 000a FFF7FEFF 		bl	DVDAC_SetValue
 175              	.LVL10:
 176 000e 08BD     		pop	{r3, pc}
 177              	.LVL11:
 178              	.L20:
 123:DAC_management.c ****     }
 124:DAC_management.c ****     else {
 125:DAC_management.c ****         VDAC_source_SetValue(value);
 179              		.loc 1 125 0
 180 0010 C0B2     		uxtb	r0, r0
 181              	.LVL12:
 182 0012 FFF7FEFF 		bl	VDAC_source_SetValue
 183              	.LVL13:
 184 0016 08BD     		pop	{r3, pc}
 185              	.L24:
 186              		.align	2
 187              	.L23:
 188 0018 00000000 		.word	selected_voltage_source
 189              		.cfi_endproc
 190              	.LFE67:
 191              		.size	DAC_SetValue, .-DAC_SetValue
 192              		.comm	finished_procedure_flag,1,1
 193              		.comm	data_long,5000,4
 194              		.comm	data_to_send,120,4
 195              		.comm	temp,20,4
 196              		.comm	data_buffer,20,4
 197              		.comm	selected_voltage_source,1,1
 198              		.comm	tia_calibration_values,21,4
 199              		.comm	lut_length,2,2
 200              		.comm	lut_index,2,2
 201              		.comm	waveform_lut,10010,4
 202              		.comm	lut_value,2,2
 203              		.comm	return_value,4,4
 204              		.comm	dac_ground_value,2,2
 205              		.bss
 206              		.type	input_flag, %object
 207              		.size	input_flag, 1
 208              	input_flag:
 209 0000 00       		.space	1
 210              		.type	connection_state, %object
 211              		.size	connection_state, 1
 212              	connection_state:
 213 0001 00       		.space	1
 214              		.type	buffer_index, %object
 215              		.size	buffer_index, 1
 216              	buffer_index:
 217 0002 00       		.space	1
ARM GAS  C:\Users\ANNASP~1\AppData\Local\Temp\ccjG21mV.s 			page 7


 218              		.text
 219              	.Letext0:
 220              		.file 2 "c:\\program files (x86)\\cypress\\psoc creator\\4.4\\psoc creator\\import\\gnu\\arm\\5.4.
 221              		.file 3 "c:\\program files (x86)\\cypress\\psoc creator\\4.4\\psoc creator\\import\\gnu\\arm\\5.4.
 222              		.file 4 "Generated_Source\\PSoC5/cytypes.h"
 223              		.file 5 "globals.h"
 224              		.file 6 "Generated_Source\\PSoC5/core_cm3.h"
 225              		.file 7 "DAC_management.h"
 226              		.file 8 "BT_protocols.h"
 227              		.file 9 "hardware_management.h"
 228              		.file 10 "Generated_Source\\PSoC5/DVDAC.h"
 229              		.file 11 "Generated_Source\\PSoC5/AMux_V_source.h"
 230              		.file 12 "Generated_Source\\PSoC5/VDAC_source.h"