ARM GAS  C:\Users\ANNASP~1\AppData\Local\Temp\ccgNa7f3.s 			page 1


   1              		.syntax unified
   2              		.cpu cortex-m3
   3              		.fpu softvfp
   4              		.eabi_attribute 20, 1
   5              		.eabi_attribute 21, 1
   6              		.eabi_attribute 23, 3
   7              		.eabi_attribute 24, 1
   8              		.eabi_attribute 25, 1
   9              		.eabi_attribute 26, 1
  10              		.eabi_attribute 30, 1
  11              		.eabi_attribute 34, 1
  12              		.eabi_attribute 18, 4
  13              		.thumb
  14              		.syntax unified
  15              		.file	"hardware_management.c"
  16              		.text
  17              	.Ltext0:
  18              		.cfi_sections	.debug_frame
  19              		.section	.text.helper_Writebyte_EEPROM,"ax",%progbits
  20              		.align	2
  21              		.global	helper_Writebyte_EEPROM
  22              		.thumb
  23              		.thumb_func
  24              		.type	helper_Writebyte_EEPROM, %function
  25              	helper_Writebyte_EEPROM:
  26              	.LFB66:
  27              		.file 1 "hardware_management.c"
   1:hardware_management.c **** /*******************************************************************************
   2:hardware_management.c **** * File Name: helper_functions.c
   3:hardware_management.c **** *
   4:hardware_management.c **** * Description:
   5:hardware_management.c **** *  Functions used by main.
   6:hardware_management.c **** *  basically EEPROM functions at this point.
   7:hardware_management.c **** *
   8:hardware_management.c **** **********************************************************************************
   9:hardware_management.c ****  * Copyright Naresuan University, Phitsanulok Thailand
  10:hardware_management.c ****  * Released under Creative Commons Attribution-ShareAlike  3.0 (CC BY-SA 3.0 US)
  11:hardware_management.c **** *********************************************************************************/
  12:hardware_management.c **** 
  13:hardware_management.c **** #include "hardware_management.h"
  14:hardware_management.c **** 
  15:hardware_management.c **** /******************************************************************************
  16:hardware_management.c **** * Function Name: helper_check_voltage_source
  17:hardware_management.c **** *******************************************************************************
  18:hardware_management.c **** *
  19:hardware_management.c **** * Summary:
  20:hardware_management.c **** *  Look in the EEPROM to for what Voltage source is selected
  21:hardware_management.c ****   # TODO: dont look in eeprom first, check selected_voltage_source before going to the eeprom
  22:hardware_management.c **** *
  23:hardware_management.c **** * Parameters:
  24:hardware_management.c **** *
  25:hardware_management.c **** * Return:
  26:hardware_management.c **** *  VDAC_NOT_SET [0] - if no voltage source has been selected yet
  27:hardware_management.c **** *  VDAC_IS_VDAC [1] - user indicated no external capacitor is installed, 
  28:hardware_management.c **** *                     so 8-bit VDAC should be used
  29:hardware_management.c **** *  VDAC_IS_DVDAC [2] - user has indicated and external capacitor is installed
  30:hardware_management.c **** *                      so the dithering VDAC (DVDAC) should be set
ARM GAS  C:\Users\ANNASP~1\AppData\Local\Temp\ccgNa7f3.s 			page 2


  31:hardware_management.c **** *
  32:hardware_management.c **** * Global variables:
  33:hardware_management.c **** *  OUT_ENDPOINT:  number that is the endpoint coming out of the computer
  34:hardware_management.c **** *
  35:hardware_management.c **** *******************************************************************************/
  36:hardware_management.c **** 
  37:hardware_management.c **** uint8_t helper_check_voltage_source(void) {
  38:hardware_management.c ****     // start eeprom and read the value at voltage source address
  39:hardware_management.c ****     return helper_Readbyte_EEPROM(VDAC_ADDRESS);
  40:hardware_management.c **** }
  41:hardware_management.c **** 
  42:hardware_management.c **** /******************************************************************************
  43:hardware_management.c **** * Function Name: helper_set_voltage_source
  44:hardware_management.c **** *******************************************************************************
  45:hardware_management.c **** *
  46:hardware_management.c **** * Summary:
  47:hardware_management.c **** *  Set the voltage source.  Connects the analog mux to the correct channel and 
  48:hardware_management.c **** *  stops the other voltage source if it was on and starts and puts to sleep the DAC
  49:hardware_management.c **** *
  50:hardware_management.c **** * Parameters:
  51:hardware_management.c **** *  uint8 voltage_source: which voltage source has been selected
  52:hardware_management.c **** *
  53:hardware_management.c **** * Global variables:
  54:hardware_management.c **** *  selected_voltage_source:  which DAC is to be used
  55:hardware_management.c **** *
  56:hardware_management.c **** *******************************************************************************/
  57:hardware_management.c **** 
  58:hardware_management.c **** void helper_set_voltage_source(uint8_t voltage_source) {
  59:hardware_management.c ****     selected_voltage_source = voltage_source;
  60:hardware_management.c ****     helper_Writebyte_EEPROM(voltage_source, VDAC_ADDRESS);
  61:hardware_management.c ****     
  62:hardware_management.c ****     if (selected_voltage_source == VDAC_IS_DVDAC) {
  63:hardware_management.c ****         VDAC_source_Stop();  // in case the other DAC is on, turn it off
  64:hardware_management.c ****         
  65:hardware_management.c ****     }
  66:hardware_management.c ****     else {
  67:hardware_management.c ****         DVDAC_Stop();  // in case the other DAC is on, turn it off
  68:hardware_management.c ****     }
  69:hardware_management.c ****     DAC_Start();
  70:hardware_management.c ****     DAC_Sleep();
  71:hardware_management.c **** }
  72:hardware_management.c **** 
  73:hardware_management.c **** 
  74:hardware_management.c **** 
  75:hardware_management.c **** /******************************************************************************
  76:hardware_management.c **** * Function Name: helper_Writebyte_EEPROM
  77:hardware_management.c **** *******************************************************************************
  78:hardware_management.c **** *
  79:hardware_management.c **** * Summary:
  80:hardware_management.c **** *    Start the eepromm, update the temperature and write a byte to it
  81:hardware_management.c **** *
  82:hardware_management.c **** * Parameters:
  83:hardware_management.c **** *     data: the byte to write in
  84:hardware_management.c **** *     address: the address to write the data at
  85:hardware_management.c **** *
  86:hardware_management.c **** * Return:
  87:hardware_management.c **** *
ARM GAS  C:\Users\ANNASP~1\AppData\Local\Temp\ccgNa7f3.s 			page 3


  88:hardware_management.c **** *******************************************************************************/
  89:hardware_management.c **** 
  90:hardware_management.c **** uint8_t helper_Writebyte_EEPROM(uint8_t data, uint16_t address) {
  28              		.loc 1 90 0
  29              		.cfi_startproc
  30              		@ args = 0, pretend = 0, frame = 0
  31              		@ frame_needed = 0, uses_anonymous_args = 0
  32              	.LVL0:
  33 0000 38B5     		push	{r3, r4, r5, lr}
  34              		.cfi_def_cfa_offset 16
  35              		.cfi_offset 3, -16
  36              		.cfi_offset 4, -12
  37              		.cfi_offset 5, -8
  38              		.cfi_offset 14, -4
  39 0002 0446     		mov	r4, r0
  40 0004 0D46     		mov	r5, r1
  91:hardware_management.c ****     EEPROM_Start();
  41              		.loc 1 91 0
  42 0006 FFF7FEFF 		bl	EEPROM_Start
  43              	.LVL1:
  92:hardware_management.c ****     CyDelayUs(10);
  44              		.loc 1 92 0
  45 000a 0A20     		movs	r0, #10
  46 000c FFF7FEFF 		bl	CyDelayUs
  47              	.LVL2:
  93:hardware_management.c ****     EEPROM_UpdateTemperature();
  48              		.loc 1 93 0
  49 0010 FFF7FEFF 		bl	EEPROM_UpdateTemperature
  50              	.LVL3:
  94:hardware_management.c ****     uint8_t write_results = EEPROM_WriteByte(data, address);
  51              		.loc 1 94 0
  52 0014 2946     		mov	r1, r5
  53 0016 2046     		mov	r0, r4
  54 0018 FFF7FEFF 		bl	EEPROM_WriteByte
  55              	.LVL4:
  56 001c C4B2     		uxtb	r4, r0
  57              	.LVL5:
  95:hardware_management.c ****     EEPROM_Stop();
  58              		.loc 1 95 0
  59 001e FFF7FEFF 		bl	EEPROM_Stop
  60              	.LVL6:
  96:hardware_management.c ****     return write_results;
  97:hardware_management.c **** }
  61              		.loc 1 97 0
  62 0022 2046     		mov	r0, r4
  63 0024 38BD     		pop	{r3, r4, r5, pc}
  64              		.cfi_endproc
  65              	.LFE66:
  66              		.size	helper_Writebyte_EEPROM, .-helper_Writebyte_EEPROM
  67 0026 00BF     		.section	.text.helper_set_voltage_source,"ax",%progbits
  68              		.align	2
  69              		.global	helper_set_voltage_source
  70              		.thumb
  71              		.thumb_func
  72              		.type	helper_set_voltage_source, %function
  73              	helper_set_voltage_source:
  74              	.LFB65:
ARM GAS  C:\Users\ANNASP~1\AppData\Local\Temp\ccgNa7f3.s 			page 4


  58:hardware_management.c ****     selected_voltage_source = voltage_source;
  75              		.loc 1 58 0
  76              		.cfi_startproc
  77              		@ args = 0, pretend = 0, frame = 0
  78              		@ frame_needed = 0, uses_anonymous_args = 0
  79              	.LVL7:
  80 0000 10B5     		push	{r4, lr}
  81              		.cfi_def_cfa_offset 8
  82              		.cfi_offset 4, -8
  83              		.cfi_offset 14, -4
  59:hardware_management.c ****     helper_Writebyte_EEPROM(voltage_source, VDAC_ADDRESS);
  84              		.loc 1 59 0
  85 0002 094C     		ldr	r4, .L7
  86 0004 2070     		strb	r0, [r4]
  60:hardware_management.c ****     
  87              		.loc 1 60 0
  88 0006 0021     		movs	r1, #0
  89 0008 FFF7FEFF 		bl	helper_Writebyte_EEPROM
  90              	.LVL8:
  62:hardware_management.c ****         VDAC_source_Stop();  // in case the other DAC is on, turn it off
  91              		.loc 1 62 0
  92 000c 2378     		ldrb	r3, [r4]	@ zero_extendqisi2
  93 000e 022B     		cmp	r3, #2
  94 0010 02D1     		bne	.L4
  63:hardware_management.c ****         
  95              		.loc 1 63 0
  96 0012 FFF7FEFF 		bl	VDAC_source_Stop
  97              	.LVL9:
  98 0016 01E0     		b	.L5
  99              	.L4:
  67:hardware_management.c ****     }
 100              		.loc 1 67 0
 101 0018 FFF7FEFF 		bl	DVDAC_Stop
 102              	.LVL10:
 103              	.L5:
  69:hardware_management.c ****     DAC_Sleep();
 104              		.loc 1 69 0
 105 001c FFF7FEFF 		bl	DAC_Start
 106              	.LVL11:
  70:hardware_management.c **** }
 107              		.loc 1 70 0
 108 0020 FFF7FEFF 		bl	DAC_Sleep
 109              	.LVL12:
 110 0024 10BD     		pop	{r4, pc}
 111              	.L8:
 112 0026 00BF     		.align	2
 113              	.L7:
 114 0028 00000000 		.word	selected_voltage_source
 115              		.cfi_endproc
 116              	.LFE65:
 117              		.size	helper_set_voltage_source, .-helper_set_voltage_source
 118              		.section	.text.helper_Readbyte_EEPROM,"ax",%progbits
 119              		.align	2
 120              		.global	helper_Readbyte_EEPROM
 121              		.thumb
 122              		.thumb_func
 123              		.type	helper_Readbyte_EEPROM, %function
ARM GAS  C:\Users\ANNASP~1\AppData\Local\Temp\ccgNa7f3.s 			page 5


 124              	helper_Readbyte_EEPROM:
 125              	.LFB67:
  98:hardware_management.c **** 
  99:hardware_management.c **** /******************************************************************************
 100:hardware_management.c **** * Function Name: helper_Readbyte_EEPROM
 101:hardware_management.c **** *******************************************************************************
 102:hardware_management.c **** *
 103:hardware_management.c **** * Summary:
 104:hardware_management.c **** *    Start the eepromm, update the temperature and read a byte to it
 105:hardware_management.c **** *
 106:hardware_management.c **** * Parameters:
 107:hardware_management.c **** *     address: the address to read the data from
 108:hardware_management.c **** *
 109:hardware_management.c **** * Return:
 110:hardware_management.c **** *     data that was read
 111:hardware_management.c **** *
 112:hardware_management.c **** *******************************************************************************/
 113:hardware_management.c **** 
 114:hardware_management.c **** uint8_t helper_Readbyte_EEPROM(uint16_t address) {
 126              		.loc 1 114 0
 127              		.cfi_startproc
 128              		@ args = 0, pretend = 0, frame = 0
 129              		@ frame_needed = 0, uses_anonymous_args = 0
 130              	.LVL13:
 131 0000 10B5     		push	{r4, lr}
 132              		.cfi_def_cfa_offset 8
 133              		.cfi_offset 4, -8
 134              		.cfi_offset 14, -4
 135 0002 0446     		mov	r4, r0
 115:hardware_management.c ****     EEPROM_Start();
 136              		.loc 1 115 0
 137 0004 FFF7FEFF 		bl	EEPROM_Start
 138              	.LVL14:
 116:hardware_management.c ****     CyDelayUs(10);
 139              		.loc 1 116 0
 140 0008 0A20     		movs	r0, #10
 141 000a FFF7FEFF 		bl	CyDelayUs
 142              	.LVL15:
 117:hardware_management.c ****     EEPROM_UpdateTemperature();
 143              		.loc 1 117 0
 144 000e FFF7FEFF 		bl	EEPROM_UpdateTemperature
 145              	.LVL16:
 118:hardware_management.c ****     CyDelayUs(10);
 146              		.loc 1 118 0
 147 0012 0A20     		movs	r0, #10
 148 0014 FFF7FEFF 		bl	CyDelayUs
 149              	.LVL17:
 119:hardware_management.c ****     uint8_t data = EEPROM_ReadByte(address);
 150              		.loc 1 119 0
 151 0018 2046     		mov	r0, r4
 152 001a FFF7FEFF 		bl	EEPROM_ReadByte
 153              	.LVL18:
 154 001e 0446     		mov	r4, r0
 155              	.LVL19:
 120:hardware_management.c ****     EEPROM_Stop();
 156              		.loc 1 120 0
 157 0020 FFF7FEFF 		bl	EEPROM_Stop
ARM GAS  C:\Users\ANNASP~1\AppData\Local\Temp\ccgNa7f3.s 			page 6


 158              	.LVL20:
 121:hardware_management.c ****     return data;
 122:hardware_management.c **** }
 159              		.loc 1 122 0
 160 0024 2046     		mov	r0, r4
 161 0026 10BD     		pop	{r4, pc}
 162              		.cfi_endproc
 163              	.LFE67:
 164              		.size	helper_Readbyte_EEPROM, .-helper_Readbyte_EEPROM
 165              		.section	.text.helper_check_voltage_source,"ax",%progbits
 166              		.align	2
 167              		.global	helper_check_voltage_source
 168              		.thumb
 169              		.thumb_func
 170              		.type	helper_check_voltage_source, %function
 171              	helper_check_voltage_source:
 172              	.LFB64:
  37:hardware_management.c ****     // start eeprom and read the value at voltage source address
 173              		.loc 1 37 0
 174              		.cfi_startproc
 175              		@ args = 0, pretend = 0, frame = 0
 176              		@ frame_needed = 0, uses_anonymous_args = 0
 177 0000 08B5     		push	{r3, lr}
 178              		.cfi_def_cfa_offset 8
 179              		.cfi_offset 3, -8
 180              		.cfi_offset 14, -4
  39:hardware_management.c **** }
 181              		.loc 1 39 0
 182 0002 0020     		movs	r0, #0
 183 0004 FFF7FEFF 		bl	helper_Readbyte_EEPROM
 184              	.LVL21:
  40:hardware_management.c **** 
 185              		.loc 1 40 0
 186 0008 08BD     		pop	{r3, pc}
 187              		.cfi_endproc
 188              	.LFE64:
 189              		.size	helper_check_voltage_source, .-helper_check_voltage_source
 190 000a 00BF     		.section	.text.helper_HardwareStart,"ax",%progbits
 191              		.align	2
 192              		.global	helper_HardwareStart
 193              		.thumb
 194              		.thumb_func
 195              		.type	helper_HardwareStart, %function
 196              	helper_HardwareStart:
 197              	.LFB69:
 123:hardware_management.c **** 
 124:hardware_management.c **** /******************************************************************************
 125:hardware_management.c **** * Function Name: helper_HardwareSetup
 126:hardware_management.c **** *******************************************************************************
 127:hardware_management.c **** *
 128:hardware_management.c **** * Summary:
 129:hardware_management.c **** *    Setup all the hardware needed for an experiment.  This will start all the hardware
 130:hardware_management.c **** *    and then put them to sleep so they can be awoke for an experiment.  Connect all the 
 131:hardware_management.c **** *    defualt analog muxes
 132:hardware_management.c **** *
 133:hardware_management.c **** *******************************************************************************/
 134:hardware_management.c **** 
ARM GAS  C:\Users\ANNASP~1\AppData\Local\Temp\ccgNa7f3.s 			page 7


 135:hardware_management.c **** 
 136:hardware_management.c **** void helper_HardwareSetup(void) {
 137:hardware_management.c ****     
 138:hardware_management.c ****     helper_HardwareStart();
 139:hardware_management.c ****     helper_HardwareSleep();
 140:hardware_management.c **** 
 141:hardware_management.c ****     AMux_electrode_Init();
 142:hardware_management.c ****     AMux_TIA_input_Init();
 143:hardware_management.c ****     AMux_TIA_resistor_bypass_Init();
 144:hardware_management.c ****     AMux_V_source_Init();
 145:hardware_management.c ****     AMux_TIA_resistor_bypass_Init();
 146:hardware_management.c ****     DAC_Start();  // DAC has to be started after the AMux_V_source because it will set it based wha
 147:hardware_management.c ****     
 148:hardware_management.c ****     // iniatialize the analog muxes connections 
 149:hardware_management.c ****     AMux_electrode_Select(two_electrode_config_ch);  // start with 3 electrode configuration
 150:hardware_management.c ****     AMux_TIA_input_Select(AMux_TIA_working_electrode_ch);  // Connect the working electrode
 151:hardware_management.c ****     AMux_TIA_resistor_bypass_Select(0);  // Start with no extra TIA resistor
 152:hardware_management.c ****     //TIA_resistor_value_index=1; // when starting set by default the R of the TIA to 20kOhm 
 153:hardware_management.c **** }
 154:hardware_management.c **** 
 155:hardware_management.c **** /******************************************************************************
 156:hardware_management.c **** * Function Name: helper_HardwareStart
 157:hardware_management.c **** *******************************************************************************
 158:hardware_management.c **** *
 159:hardware_management.c **** * Summary:
 160:hardware_management.c **** *    Start all the hardware needed for an experiment.
 161:hardware_management.c **** *
 162:hardware_management.c **** *******************************************************************************/
 163:hardware_management.c **** 
 164:hardware_management.c **** void helper_HardwareStart(void){  // start all the components that have to be on for a reading
 198              		.loc 1 164 0
 199              		.cfi_startproc
 200              		@ args = 0, pretend = 0, frame = 0
 201              		@ frame_needed = 0, uses_anonymous_args = 0
 202 0000 08B5     		push	{r3, lr}
 203              		.cfi_def_cfa_offset 8
 204              		.cfi_offset 3, -8
 205              		.cfi_offset 14, -4
 165:hardware_management.c ****     ADC_SigDel_Start();
 206              		.loc 1 165 0
 207 0002 FFF7FEFF 		bl	ADC_SigDel_Start
 208              	.LVL22:
 166:hardware_management.c ****     TIA_Start();
 209              		.loc 1 166 0
 210 0006 FFF7FEFF 		bl	TIA_Start
 211              	.LVL23:
 167:hardware_management.c ****     VDAC_TIA_Start();
 212              		.loc 1 167 0
 213 000a FFF7FEFF 		bl	VDAC_TIA_Start
 214              	.LVL24:
 168:hardware_management.c ****     Opamp_Aux_Start();
 215              		.loc 1 168 0
 216 000e FFF7FEFF 		bl	Opamp_Aux_Start
 217              	.LVL25:
 169:hardware_management.c ****     PWM_isr_Start();
 218              		.loc 1 169 0
 219 0012 FFF7FEFF 		bl	PWM_isr_Start
ARM GAS  C:\Users\ANNASP~1\AppData\Local\Temp\ccgNa7f3.s 			page 8


 220              	.LVL26:
 221 0016 08BD     		pop	{r3, pc}
 222              		.cfi_endproc
 223              	.LFE69:
 224              		.size	helper_HardwareStart, .-helper_HardwareStart
 225              		.section	.text.helper_HardwareWakeup,"ax",%progbits
 226              		.align	2
 227              		.global	helper_HardwareWakeup
 228              		.thumb
 229              		.thumb_func
 230              		.type	helper_HardwareWakeup, %function
 231              	helper_HardwareWakeup:
 232              	.LFB70:
 170:hardware_management.c **** }
 171:hardware_management.c **** 
 172:hardware_management.c **** /******************************************************************************
 173:hardware_management.c **** * Function Name: helper_HardwareWakeup
 174:hardware_management.c **** *******************************************************************************
 175:hardware_management.c **** *
 176:hardware_management.c **** * Summary:
 177:hardware_management.c **** *    Start all the hardware needed for an experiment.
 178:hardware_management.c **** *
 179:hardware_management.c **** *******************************************************************************/
 180:hardware_management.c **** 
 181:hardware_management.c **** void helper_HardwareWakeup(void){  // wakeup all the components that have to be on for a reading
 233              		.loc 1 181 0
 234              		.cfi_startproc
 235              		@ args = 0, pretend = 0, frame = 0
 236              		@ frame_needed = 0, uses_anonymous_args = 0
 237 0000 08B5     		push	{r3, lr}
 238              		.cfi_def_cfa_offset 8
 239              		.cfi_offset 3, -8
 240              		.cfi_offset 14, -4
 182:hardware_management.c ****     ADC_SigDel_Wakeup();
 241              		.loc 1 182 0
 242 0002 FFF7FEFF 		bl	ADC_SigDel_Wakeup
 243              	.LVL27:
 183:hardware_management.c ****     TIA_Wakeup();
 244              		.loc 1 183 0
 245 0006 FFF7FEFF 		bl	TIA_Wakeup
 246              	.LVL28:
 184:hardware_management.c ****     VDAC_TIA_Wakeup();
 247              		.loc 1 184 0
 248 000a FFF7FEFF 		bl	VDAC_TIA_Wakeup
 249              	.LVL29:
 185:hardware_management.c ****     DAC_Wakeup();
 250              		.loc 1 185 0
 251 000e FFF7FEFF 		bl	DAC_Wakeup
 252              	.LVL30:
 186:hardware_management.c ****     CyDelay(1);
 253              		.loc 1 186 0
 254 0012 0120     		movs	r0, #1
 255 0014 FFF7FEFF 		bl	CyDelay
 256              	.LVL31:
 187:hardware_management.c ****     DAC_SetValue(lut_value);
 257              		.loc 1 187 0
 258 0018 054B     		ldr	r3, .L17
ARM GAS  C:\Users\ANNASP~1\AppData\Local\Temp\ccgNa7f3.s 			page 9


 259 001a 1888     		ldrh	r0, [r3]
 260 001c FFF7FEFF 		bl	DAC_SetValue
 261              	.LVL32:
 188:hardware_management.c ****     CyDelay(10);
 262              		.loc 1 188 0
 263 0020 0A20     		movs	r0, #10
 264 0022 FFF7FEFF 		bl	CyDelay
 265              	.LVL33:
 189:hardware_management.c ****     Opamp_Aux_Wakeup();
 266              		.loc 1 189 0
 267 0026 FFF7FEFF 		bl	Opamp_Aux_Wakeup
 268              	.LVL34:
 190:hardware_management.c ****     
 191:hardware_management.c ****     PWM_isr_Wakeup();
 269              		.loc 1 191 0
 270 002a FFF7FEFF 		bl	PWM_isr_Wakeup
 271              	.LVL35:
 272 002e 08BD     		pop	{r3, pc}
 273              	.L18:
 274              		.align	2
 275              	.L17:
 276 0030 00000000 		.word	lut_value
 277              		.cfi_endproc
 278              	.LFE70:
 279              		.size	helper_HardwareWakeup, .-helper_HardwareWakeup
 280              		.section	.text.helper_HardwareSleep,"ax",%progbits
 281              		.align	2
 282              		.global	helper_HardwareSleep
 283              		.thumb
 284              		.thumb_func
 285              		.type	helper_HardwareSleep, %function
 286              	helper_HardwareSleep:
 287              	.LFB71:
 192:hardware_management.c ****     
 193:hardware_management.c **** }
 194:hardware_management.c **** 
 195:hardware_management.c **** /******************************************************************************
 196:hardware_management.c **** * Function Name: helper_HardwareSleep
 197:hardware_management.c **** *******************************************************************************
 198:hardware_management.c **** *
 199:hardware_management.c **** * Summary:
 200:hardware_management.c **** *    Put to sleep all the hardware needed for an experiment.
 201:hardware_management.c **** *
 202:hardware_management.c **** *******************************************************************************/
 203:hardware_management.c **** 
 204:hardware_management.c **** void helper_HardwareSleep(void){  // put to sleep all the components that have to be on for a readi
 288              		.loc 1 204 0
 289              		.cfi_startproc
 290              		@ args = 0, pretend = 0, frame = 0
 291              		@ frame_needed = 0, uses_anonymous_args = 0
 292 0000 08B5     		push	{r3, lr}
 293              		.cfi_def_cfa_offset 8
 294              		.cfi_offset 3, -8
 295              		.cfi_offset 14, -4
 205:hardware_management.c ****     ADC_SigDel_Sleep();
 296              		.loc 1 205 0
 297 0002 FFF7FEFF 		bl	ADC_SigDel_Sleep
ARM GAS  C:\Users\ANNASP~1\AppData\Local\Temp\ccgNa7f3.s 			page 10


 298              	.LVL36:
 206:hardware_management.c ****     DAC_Sleep();
 299              		.loc 1 206 0
 300 0006 FFF7FEFF 		bl	DAC_Sleep
 301              	.LVL37:
 207:hardware_management.c ****     TIA_Sleep();
 302              		.loc 1 207 0
 303 000a FFF7FEFF 		bl	TIA_Sleep
 304              	.LVL38:
 208:hardware_management.c ****     VDAC_TIA_Sleep();
 305              		.loc 1 208 0
 306 000e FFF7FEFF 		bl	VDAC_TIA_Sleep
 307              	.LVL39:
 209:hardware_management.c ****     Opamp_Aux_Sleep();
 308              		.loc 1 209 0
 309 0012 FFF7FEFF 		bl	Opamp_Aux_Sleep
 310              	.LVL40:
 210:hardware_management.c ****     PWM_isr_Sleep();
 311              		.loc 1 210 0
 312 0016 FFF7FEFF 		bl	PWM_isr_Sleep
 313              	.LVL41:
 314 001a 08BD     		pop	{r3, pc}
 315              		.cfi_endproc
 316              	.LFE71:
 317              		.size	helper_HardwareSleep, .-helper_HardwareSleep
 318              		.section	.text.helper_HardwareSetup,"ax",%progbits
 319              		.align	2
 320              		.global	helper_HardwareSetup
 321              		.thumb
 322              		.thumb_func
 323              		.type	helper_HardwareSetup, %function
 324              	helper_HardwareSetup:
 325              	.LFB68:
 136:hardware_management.c ****     
 326              		.loc 1 136 0
 327              		.cfi_startproc
 328              		@ args = 0, pretend = 0, frame = 0
 329              		@ frame_needed = 0, uses_anonymous_args = 0
 330 0000 08B5     		push	{r3, lr}
 331              		.cfi_def_cfa_offset 8
 332              		.cfi_offset 3, -8
 333              		.cfi_offset 14, -4
 138:hardware_management.c ****     helper_HardwareSleep();
 334              		.loc 1 138 0
 335 0002 FFF7FEFF 		bl	helper_HardwareStart
 336              	.LVL42:
 139:hardware_management.c **** 
 337              		.loc 1 139 0
 338 0006 FFF7FEFF 		bl	helper_HardwareSleep
 339              	.LVL43:
 141:hardware_management.c ****     AMux_TIA_input_Init();
 340              		.loc 1 141 0
 341 000a FFF7FEFF 		bl	AMux_electrode_Start
 342              	.LVL44:
 142:hardware_management.c ****     AMux_TIA_resistor_bypass_Init();
 343              		.loc 1 142 0
 344 000e FFF7FEFF 		bl	AMux_TIA_input_Start
ARM GAS  C:\Users\ANNASP~1\AppData\Local\Temp\ccgNa7f3.s 			page 11


 345              	.LVL45:
 143:hardware_management.c ****     AMux_V_source_Init();
 346              		.loc 1 143 0
 347 0012 FFF7FEFF 		bl	AMux_TIA_resistor_bypass_Start
 348              	.LVL46:
 144:hardware_management.c ****     AMux_TIA_resistor_bypass_Init();
 349              		.loc 1 144 0
 350 0016 FFF7FEFF 		bl	AMux_V_source_Start
 351              	.LVL47:
 145:hardware_management.c ****     DAC_Start();  // DAC has to be started after the AMux_V_source because it will set it based wha
 352              		.loc 1 145 0
 353 001a FFF7FEFF 		bl	AMux_TIA_resistor_bypass_Start
 354              	.LVL48:
 146:hardware_management.c ****     
 355              		.loc 1 146 0
 356 001e FFF7FEFF 		bl	DAC_Start
 357              	.LVL49:
 149:hardware_management.c ****     AMux_TIA_input_Select(AMux_TIA_working_electrode_ch);  // Connect the working electrode
 358              		.loc 1 149 0
 359 0022 0020     		movs	r0, #0
 360 0024 FFF7FEFF 		bl	AMux_electrode_Select
 361              	.LVL50:
 150:hardware_management.c ****     AMux_TIA_resistor_bypass_Select(0);  // Start with no extra TIA resistor
 362              		.loc 1 150 0
 363 0028 0120     		movs	r0, #1
 364 002a FFF7FEFF 		bl	AMux_TIA_input_Select
 365              	.LVL51:
 151:hardware_management.c ****     //TIA_resistor_value_index=1; // when starting set by default the R of the TIA to 20kOhm 
 366              		.loc 1 151 0
 367 002e 0020     		movs	r0, #0
 368 0030 FFF7FEFF 		bl	AMux_TIA_resistor_bypass_Select
 369              	.LVL52:
 370 0034 08BD     		pop	{r3, pc}
 371              		.cfi_endproc
 372              	.LFE68:
 373              		.size	helper_HardwareSetup, .-helper_HardwareSetup
 374 0036 00BF     		.section	.text.helper_Convert2Dec,"ax",%progbits
 375              		.align	2
 376              		.global	helper_Convert2Dec
 377              		.thumb
 378              		.thumb_func
 379              		.type	helper_Convert2Dec, %function
 380              	helper_Convert2Dec:
 381              	.LFB72:
 211:hardware_management.c ****     
 212:hardware_management.c **** }
 213:hardware_management.c **** 
 214:hardware_management.c **** 
 215:hardware_management.c **** /* ** NOT USED ***
 216:hardware_management.c **** void make_run_params(const uint8_t data_buffer[], const uint8_t use_swv,
 217:hardware_management.c ****                      struct RunParams *run_params) {
 218:hardware_management.c ****     run_params->start_value = helper_Convert2Dec(&data_buffer[2], 4);
 219:hardware_management.c ****     run_params->end_value = helper_Convert2Dec(&data_buffer[7], 4);
 220:hardware_management.c ****     run_params->timer_period = helper_Convert2Dec(&data_buffer[12], 5);
 221:hardware_management.c ****     if (use_swv == true) {
 222:hardware_management.c ****         run_params->use_swv = true;
 223:hardware_management.c ****         run_params->swv_inc = helper_Convert2Dec(&data_buffer[18], 4);
ARM GAS  C:\Users\ANNASP~1\AppData\Local\Temp\ccgNa7f3.s 			page 12


 224:hardware_management.c ****         run_params->swv_pulse_height = helper_Convert2Dec(&data_buffer[23], 4);
 225:hardware_management.c ****         run_params->sweep_type = data_buffer[28];
 226:hardware_management.c ****         run_params->start_volt_type = data_buffer[29];
 227:hardware_management.c ****     }
 228:hardware_management.c ****     else {
 229:hardware_management.c ****         run_params->sweep_type = data_buffer[18];
 230:hardware_management.c ****         run_params->start_volt_type = data_buffer[19];
 231:hardware_management.c ****     }
 232:hardware_management.c ****     
 233:hardware_management.c **** }*/
 234:hardware_management.c **** 
 235:hardware_management.c **** 
 236:hardware_management.c **** uint16_t helper_Convert2Dec(const uint8_t array[], const uint8_t len){
 382              		.loc 1 236 0
 383              		.cfi_startproc
 384              		@ args = 0, pretend = 0, frame = 0
 385              		@ frame_needed = 0, uses_anonymous_args = 0
 386              		@ link register save eliminated.
 387              	.LVL53:
 388 0000 30B4     		push	{r4, r5}
 389              		.cfi_def_cfa_offset 8
 390              		.cfi_offset 4, -8
 391              		.cfi_offset 5, -4
 392              	.LVL54:
 393              	.LBB2:
 237:hardware_management.c ****     uint16_t num = 0;
 238:hardware_management.c ****     for (int i = 0; i < len; i++){
 394              		.loc 1 238 0
 395 0002 0024     		movs	r4, #0
 396              	.LBE2:
 237:hardware_management.c ****     uint16_t num = 0;
 397              		.loc 1 237 0
 398 0004 2346     		mov	r3, r4
 399              	.LBB3:
 400              		.loc 1 238 0
 401 0006 08E0     		b	.L24
 402              	.LVL55:
 403              	.L25:
 239:hardware_management.c ****         num = num * 10 + (array[i] - '0');
 404              		.loc 1 239 0 discriminator 3
 405 0008 025D     		ldrb	r2, [r0, r4]	@ zero_extendqisi2
 406 000a 03EB8303 		add	r3, r3, r3, lsl #2
 407              	.LVL56:
 408 000e 5D00     		lsls	r5, r3, #1
 409 0010 AB18     		adds	r3, r5, r2
 410 0012 9BB2     		uxth	r3, r3
 411 0014 303B     		subs	r3, r3, #48
 412 0016 9BB2     		uxth	r3, r3
 413              	.LVL57:
 238:hardware_management.c ****         num = num * 10 + (array[i] - '0');
 414              		.loc 1 238 0 discriminator 3
 415 0018 0134     		adds	r4, r4, #1
 416              	.LVL58:
 417              	.L24:
 238:hardware_management.c ****         num = num * 10 + (array[i] - '0');
 418              		.loc 1 238 0 is_stmt 0 discriminator 1
 419 001a 8C42     		cmp	r4, r1
ARM GAS  C:\Users\ANNASP~1\AppData\Local\Temp\ccgNa7f3.s 			page 13


 420 001c F4DB     		blt	.L25
 421              	.LBE3:
 240:hardware_management.c ****     }
 241:hardware_management.c ****     return num;
 242:hardware_management.c **** }
 422              		.loc 1 242 0 is_stmt 1
 423 001e 1846     		mov	r0, r3
 424              	.LVL59:
 425 0020 30BC     		pop	{r4, r5}
 426              		.cfi_restore 5
 427              		.cfi_restore 4
 428              		.cfi_def_cfa_offset 0
 429              	.LVL60:
 430 0022 7047     		bx	lr
 431              		.cfi_endproc
 432              	.LFE72:
 433              		.size	helper_Convert2Dec, .-helper_Convert2Dec
 434              		.section	.text.initialize_default_values,"ax",%progbits
 435              		.align	2
 436              		.global	initialize_default_values
 437              		.thumb
 438              		.thumb_func
 439              		.type	initialize_default_values, %function
 440              	initialize_default_values:
 441              	.LFB73:
 243:hardware_management.c **** 
 244:hardware_management.c **** void initialize_default_values(void){
 442              		.loc 1 244 0
 443              		.cfi_startproc
 444              		@ args = 0, pretend = 0, frame = 0
 445              		@ frame_needed = 0, uses_anonymous_args = 0
 446 0000 08B5     		push	{r3, lr}
 447              		.cfi_def_cfa_offset 8
 448              		.cfi_offset 3, -8
 449              		.cfi_offset 14, -4
 245:hardware_management.c ****     EEPROM_Start();
 450              		.loc 1 245 0
 451 0002 FFF7FEFF 		bl	EEPROM_Start
 452              	.LVL61:
 246:hardware_management.c ****     return_value = EEPROM_WriteByte(M_DEFAULT,M_DEFAULT_ADD);
 453              		.loc 1 246 0
 454 0006 0021     		movs	r1, #0
 455 0008 0A20     		movs	r0, #10
 456 000a FFF7FEFF 		bl	EEPROM_WriteByte
 457              	.LVL62:
 458 000e 344B     		ldr	r3, .L41
 459 0010 1860     		str	r0, [r3]
 247:hardware_management.c ****         if(return_value != CYRET_SUCCESS){
 460              		.loc 1 247 0
 461 0012 08B1     		cbz	r0, .L28
 248:hardware_management.c ****             errorBT();
 462              		.loc 1 248 0
 463 0014 FFF7FEFF 		bl	errorBT
 464              	.LVL63:
 465              	.L28:
 249:hardware_management.c ****         }
 250:hardware_management.c ****     return_value = EEPROM_WriteByte(Q_DEFAULT,Q_DEFAULT_ADD);
ARM GAS  C:\Users\ANNASP~1\AppData\Local\Temp\ccgNa7f3.s 			page 14


 466              		.loc 1 250 0
 467 0018 0121     		movs	r1, #1
 468 001a 0A20     		movs	r0, #10
 469 001c FFF7FEFF 		bl	EEPROM_WriteByte
 470              	.LVL64:
 471 0020 2F4B     		ldr	r3, .L41
 472 0022 1860     		str	r0, [r3]
 251:hardware_management.c ****         if(return_value != CYRET_SUCCESS){
 473              		.loc 1 251 0
 474 0024 08B1     		cbz	r0, .L29
 252:hardware_management.c ****             errorBT();
 475              		.loc 1 252 0
 476 0026 FFF7FEFF 		bl	errorBT
 477              	.LVL65:
 478              	.L29:
 253:hardware_management.c ****         }
 254:hardware_management.c ****     return_value = EEPROM_WriteByte(V_DEFAULT,V_DEFAULT_ADD);
 479              		.loc 1 254 0
 480 002a 0221     		movs	r1, #2
 481 002c 0A20     		movs	r0, #10
 482 002e FFF7FEFF 		bl	EEPROM_WriteByte
 483              	.LVL66:
 484 0032 2B4B     		ldr	r3, .L41
 485 0034 1860     		str	r0, [r3]
 255:hardware_management.c ****         if(return_value != CYRET_SUCCESS){
 486              		.loc 1 255 0
 487 0036 08B1     		cbz	r0, .L30
 256:hardware_management.c ****             errorBT();
 488              		.loc 1 256 0
 489 0038 FFF7FEFF 		bl	errorBT
 490              	.LVL67:
 491              	.L30:
 257:hardware_management.c ****         }
 258:hardware_management.c ****     return_value = EEPROM_WriteByte(T_DEFAULT,T_DEFAULT_ADD);
 492              		.loc 1 258 0
 493 003c 0321     		movs	r1, #3
 494 003e 0A20     		movs	r0, #10
 495 0040 FFF7FEFF 		bl	EEPROM_WriteByte
 496              	.LVL68:
 497 0044 264B     		ldr	r3, .L41
 498 0046 1860     		str	r0, [r3]
 259:hardware_management.c ****         if(return_value != CYRET_SUCCESS){
 499              		.loc 1 259 0
 500 0048 08B1     		cbz	r0, .L31
 260:hardware_management.c ****             errorBT();
 501              		.loc 1 260 0
 502 004a FFF7FEFF 		bl	errorBT
 503              	.LVL69:
 504              	.L31:
 261:hardware_management.c ****         }
 262:hardware_management.c ****     return_value = EEPROM_WriteByte(SCAN_RATE_DEFAULT,SCAN_RATE_DEFAULT_ADD);
 505              		.loc 1 262 0
 506 004e 0421     		movs	r1, #4
 507 0050 0A20     		movs	r0, #10
 508 0052 FFF7FEFF 		bl	EEPROM_WriteByte
 509              	.LVL70:
 510 0056 224B     		ldr	r3, .L41
ARM GAS  C:\Users\ANNASP~1\AppData\Local\Temp\ccgNa7f3.s 			page 15


 511 0058 1860     		str	r0, [r3]
 263:hardware_management.c ****         if(return_value != CYRET_SUCCESS){
 512              		.loc 1 263 0
 513 005a 08B1     		cbz	r0, .L32
 264:hardware_management.c ****             errorBT();
 514              		.loc 1 264 0
 515 005c FFF7FEFF 		bl	errorBT
 516              	.LVL71:
 517              	.L32:
 265:hardware_management.c ****         }   
 266:hardware_management.c ****     return_value = EEPROM_WriteByte(START_DEFAULT,START_DEFAULT_ADD);
 518              		.loc 1 266 0
 519 0060 0521     		movs	r1, #5
 520 0062 0A20     		movs	r0, #10
 521 0064 FFF7FEFF 		bl	EEPROM_WriteByte
 522              	.LVL72:
 523 0068 1D4B     		ldr	r3, .L41
 524 006a 1860     		str	r0, [r3]
 267:hardware_management.c ****         if(return_value != CYRET_SUCCESS){
 525              		.loc 1 267 0
 526 006c 08B1     		cbz	r0, .L33
 268:hardware_management.c ****             errorBT();
 527              		.loc 1 268 0
 528 006e FFF7FEFF 		bl	errorBT
 529              	.LVL73:
 530              	.L33:
 269:hardware_management.c ****         }
 270:hardware_management.c ****     return_value = EEPROM_WriteByte(END_DEFAULT,END_DEFAULT_ADD);
 531              		.loc 1 270 0
 532 0072 0621     		movs	r1, #6
 533 0074 0A20     		movs	r0, #10
 534 0076 FFF7FEFF 		bl	EEPROM_WriteByte
 535              	.LVL74:
 536 007a 194B     		ldr	r3, .L41
 537 007c 1860     		str	r0, [r3]
 271:hardware_management.c ****         if(return_value != CYRET_SUCCESS){
 538              		.loc 1 271 0
 539 007e 08B1     		cbz	r0, .L34
 272:hardware_management.c ****             errorBT();
 540              		.loc 1 272 0
 541 0080 FFF7FEFF 		bl	errorBT
 542              	.LVL75:
 543              	.L34:
 273:hardware_management.c ****         } 
 274:hardware_management.c ****     return_value = EEPROM_WriteByte(INCREMENT_DEFAULT,INCREMENT_DEFAULT_ADD);
 544              		.loc 1 274 0
 545 0084 0721     		movs	r1, #7
 546 0086 0A20     		movs	r0, #10
 547 0088 FFF7FEFF 		bl	EEPROM_WriteByte
 548              	.LVL76:
 549 008c 144B     		ldr	r3, .L41
 550 008e 1860     		str	r0, [r3]
 275:hardware_management.c ****         if(return_value != CYRET_SUCCESS){
 551              		.loc 1 275 0
 552 0090 08B1     		cbz	r0, .L35
 276:hardware_management.c ****             errorBT();
 553              		.loc 1 276 0
ARM GAS  C:\Users\ANNASP~1\AppData\Local\Temp\ccgNa7f3.s 			page 16


 554 0092 FFF7FEFF 		bl	errorBT
 555              	.LVL77:
 556              	.L35:
 277:hardware_management.c ****         } 
 278:hardware_management.c ****     return_value = EEPROM_WriteByte(STEP_DEFAULT,STEP_DEFAULT_ADD);
 557              		.loc 1 278 0
 558 0096 0821     		movs	r1, #8
 559 0098 0A20     		movs	r0, #10
 560 009a FFF7FEFF 		bl	EEPROM_WriteByte
 561              	.LVL78:
 562 009e 104B     		ldr	r3, .L41
 563 00a0 1860     		str	r0, [r3]
 279:hardware_management.c ****         if(return_value != CYRET_SUCCESS){
 564              		.loc 1 279 0
 565 00a2 08B1     		cbz	r0, .L36
 280:hardware_management.c ****             errorBT();
 566              		.loc 1 280 0
 567 00a4 FFF7FEFF 		bl	errorBT
 568              	.LVL79:
 569              	.L36:
 281:hardware_management.c ****         }
 282:hardware_management.c ****     return_value = EEPROM_WriteByte(CA_PERIOD_DEFAULT,CA_PERIOD_DEFAULT_ADD);
 570              		.loc 1 282 0
 571 00a8 0921     		movs	r1, #9
 572 00aa D020     		movs	r0, #208
 573 00ac FFF7FEFF 		bl	EEPROM_WriteByte
 574              	.LVL80:
 575 00b0 0B4B     		ldr	r3, .L41
 576 00b2 1860     		str	r0, [r3]
 283:hardware_management.c ****         if(return_value != CYRET_SUCCESS){
 577              		.loc 1 283 0
 578 00b4 08B1     		cbz	r0, .L37
 284:hardware_management.c ****             errorBT();
 579              		.loc 1 284 0
 580 00b6 FFF7FEFF 		bl	errorBT
 581              	.LVL81:
 582              	.L37:
 285:hardware_management.c ****         } 
 286:hardware_management.c ****     return_value = EEPROM_WriteByte(EEPROM_FLAG_DONE,EEPROM_FLAG_ADD);
 583              		.loc 1 286 0
 584 00ba FF21     		movs	r1, #255
 585 00bc 0120     		movs	r0, #1
 586 00be FFF7FEFF 		bl	EEPROM_WriteByte
 587              	.LVL82:
 588 00c2 074B     		ldr	r3, .L41
 589 00c4 1860     		str	r0, [r3]
 287:hardware_management.c ****         if(return_value != CYRET_SUCCESS){
 590              		.loc 1 287 0
 591 00c6 08B1     		cbz	r0, .L38
 288:hardware_management.c ****             errorBT();
 592              		.loc 1 288 0
 593 00c8 FFF7FEFF 		bl	errorBT
 594              	.LVL83:
 595              	.L38:
 289:hardware_management.c ****         }
 290:hardware_management.c ****         
 291:hardware_management.c ****     return_value = EEPROM_WriteByte(VDAC_IS_VDAC,VDAC_ADDRESS);
ARM GAS  C:\Users\ANNASP~1\AppData\Local\Temp\ccgNa7f3.s 			page 17


 596              		.loc 1 291 0
 597 00cc 0021     		movs	r1, #0
 598 00ce 0120     		movs	r0, #1
 599 00d0 FFF7FEFF 		bl	EEPROM_WriteByte
 600              	.LVL84:
 601 00d4 024B     		ldr	r3, .L41
 602 00d6 1860     		str	r0, [r3]
 292:hardware_management.c ****         if(return_value != CYRET_SUCCESS){
 603              		.loc 1 292 0
 604 00d8 08B1     		cbz	r0, .L27
 293:hardware_management.c ****             errorBT();
 605              		.loc 1 293 0
 606 00da FFF7FEFF 		bl	errorBT
 607              	.LVL85:
 608              	.L27:
 609 00de 08BD     		pop	{r3, pc}
 610              	.L42:
 611              		.align	2
 612              	.L41:
 613 00e0 00000000 		.word	return_value
 614              		.cfi_endproc
 615              	.LFE73:
 616              		.size	initialize_default_values, .-initialize_default_values
 617              		.comm	finished_procedure_flag,1,1
 618              		.comm	data_long,5000,4
 619              		.comm	data_to_send,120,4
 620              		.comm	temp,20,4
 621              		.comm	data_buffer,20,4
 622              		.comm	selected_voltage_source,1,1
 623              		.comm	tia_calibration_values,21,4
 624              		.comm	lut_length,2,2
 625              		.comm	lut_index,2,2
 626              		.comm	waveform_lut,10010,4
 627              		.comm	lut_value,2,2
 628              		.comm	return_value,4,4
 629              		.comm	dac_ground_value,2,2
 630              		.bss
 631              		.type	input_flag, %object
 632              		.size	input_flag, 1
 633              	input_flag:
 634 0000 00       		.space	1
 635              		.type	connection_state, %object
 636              		.size	connection_state, 1
 637              	connection_state:
 638 0001 00       		.space	1
 639              		.type	buffer_index, %object
 640              		.size	buffer_index, 1
 641              	buffer_index:
 642 0002 00       		.space	1
 643              		.text
 644              	.Letext0:
 645              		.file 2 "c:\\program files (x86)\\cypress\\psoc creator\\4.4\\psoc creator\\import\\gnu\\arm\\5.4.
 646              		.file 3 "c:\\program files (x86)\\cypress\\psoc creator\\4.4\\psoc creator\\import\\gnu\\arm\\5.4.
 647              		.file 4 "Generated_Source\\PSoC5/cytypes.h"
 648              		.file 5 "globals.h"
 649              		.file 6 "Generated_Source\\PSoC5/core_cm3.h"
 650              		.file 7 "DAC_management.h"
ARM GAS  C:\Users\ANNASP~1\AppData\Local\Temp\ccgNa7f3.s 			page 18


 651              		.file 8 "BT_protocols.h"
 652              		.file 9 "Generated_Source\\PSoC5/EEPROM.h"
 653              		.file 10 "Generated_Source\\PSoC5/CyLib.h"
 654              		.file 11 "Generated_Source\\PSoC5/VDAC_source.h"
 655              		.file 12 "Generated_Source\\PSoC5/DVDAC.h"
 656              		.file 13 "Generated_Source\\PSoC5/ADC_SigDel.h"
 657              		.file 14 "Generated_Source\\PSoC5/TIA.h"
 658              		.file 15 "Generated_Source\\PSoC5/VDAC_TIA.h"
 659              		.file 16 "Generated_Source\\PSoC5/Opamp_Aux.h"
 660              		.file 17 "Generated_Source\\PSoC5/PWM_isr.h"
 661              		.file 18 "Generated_Source\\PSoC5/AMux_electrode.h"
 662              		.file 19 "Generated_Source\\PSoC5/AMux_TIA_input.h"
 663              		.file 20 "Generated_Source\\PSoC5/AMux_TIA_resistor_bypass.h"
 664              		.file 21 "Generated_Source\\PSoC5/AMux_V_source.h"