ARM GAS  C:\Users\ANNASP~1\AppData\Local\Temp\ccoGs3tP.s 			page 1


   1              		.syntax unified
   2              		.cpu cortex-m3
   3              		.fpu softvfp
   4              		.eabi_attribute 20, 1
   5              		.eabi_attribute 21, 1
   6              		.eabi_attribute 23, 3
   7              		.eabi_attribute 24, 1
   8              		.eabi_attribute 25, 1
   9              		.eabi_attribute 26, 1
  10              		.eabi_attribute 30, 1
  11              		.eabi_attribute 34, 1
  12              		.eabi_attribute 18, 4
  13              		.thumb
  14              		.syntax unified
  15              		.file	"main.c"
  16              		.text
  17              	.Ltext0:
  18              		.cfi_sections	.debug_frame
  19              		.section	.text.dacInterrupt,"ax",%progbits
  20              		.align	2
  21              		.global	dacInterrupt
  22              		.thumb
  23              		.thumb_func
  24              		.type	dacInterrupt, %function
  25              	dacInterrupt:
  26              	.LFB64:
  27              		.file 1 "main.c"
   1:main.c        **** /* ========================================
   2:main.c        ****  *
   3:main.c        ****  * Copyright YOUR COMPANY, THE YEAR
   4:main.c        ****  * All Rights Reserved
   5:main.c        ****  * UNPUBLISHED, LICENSED SOFTWARE.
   6:main.c        ****  *
   7:main.c        ****  * CONFIDENTIAL AND PROPRIETARY INFORMATION
   8:main.c        ****  * WHICH IS THE PROPERTY OF your company.
   9:main.c        ****  *
  10:main.c        ****  * ========================================
  11:main.c        **** */
  12:main.c        **** 
  13:main.c        **** #include "project.h"
  14:main.c        **** #include "stdio.h"
  15:main.c        **** #include "stdlib.h"
  16:main.c        **** #include "math.h"
  17:main.c        **** 
  18:main.c        **** 
  19:main.c        **** // local files
  20:main.c        **** #include "TIA_calibrate.h"
  21:main.c        **** #include "DAC_management.h"
  22:main.c        **** #include "globals.h"
  23:main.c        **** #include "hardware_management.h"
  24:main.c        **** #include "user_inputs.h"
  25:main.c        **** #include "parametric_lut.h"
  26:main.c        **** #include "BT_protocols.h"
  27:main.c        **** #include "Interrupt_Routines.h"
  28:main.c        **** 
  29:main.c        **** 
  30:main.c        **** /************************************
ARM GAS  C:\Users\ANNASP~1\AppData\Local\Temp\ccoGs3tP.s 			page 2


  31:main.c        **** ******* ISRs Custom Defined *********
  32:main.c        **** ************************************/
  33:main.c        **** 
  34:main.c        **** CY_ISR(dacInterrupt) // enabled by function that start CV and CA procedures 
  35:main.c        **** {
  28              		.loc 1 35 0
  29              		.cfi_startproc
  30              		@ args = 0, pretend = 0, frame = 0
  31              		@ frame_needed = 0, uses_anonymous_args = 0
  32 0000 08B5     		push	{r3, lr}
  33              		.cfi_def_cfa_offset 8
  34              		.cfi_offset 3, -8
  35              		.cfi_offset 14, -4
  36:main.c        ****     Opamp_Aux_Start();  
  36              		.loc 1 36 0
  37 0002 FFF7FEFF 		bl	Opamp_Aux_Start
  38              	.LVL0:
  37:main.c        ****     DAC_SetValue(lut_value);
  39              		.loc 1 37 0
  40 0006 164B     		ldr	r3, .L4
  41 0008 1888     		ldrh	r0, [r3]
  42 000a FFF7FEFF 		bl	DAC_SetValue
  43              	.LVL1:
  38:main.c        ****     LED_DAC_Write(1); 
  44              		.loc 1 38 0
  45 000e 0120     		movs	r0, #1
  46 0010 FFF7FEFF 		bl	LED_DAC_Write
  47              	.LVL2:
  39:main.c        ****     LED_ADC_Write(0);
  48              		.loc 1 39 0
  49 0014 0020     		movs	r0, #0
  50 0016 FFF7FEFF 		bl	LED_ADC_Write
  51              	.LVL3:
  40:main.c        **** 
  41:main.c        ****     lut_index++;
  52              		.loc 1 41 0
  53 001a 124A     		ldr	r2, .L4+4
  54 001c 1388     		ldrh	r3, [r2]
  55 001e 0133     		adds	r3, r3, #1
  56 0020 9BB2     		uxth	r3, r3
  57 0022 1380     		strh	r3, [r2]	@ movhi
  42:main.c        ****     
  43:main.c        ****     if (lut_index >= lut_length) { // all the data points have been given and sent 
  58              		.loc 1 43 0
  59 0024 104A     		ldr	r2, .L4+8
  60 0026 1288     		ldrh	r2, [r2]
  61 0028 9342     		cmp	r3, r2
  62 002a 10D3     		bcc	.L2
  44:main.c        ****         isr_adc_Disable();
  63              		.loc 1 44 0
  64 002c FFF7FEFF 		bl	isr_adc_Disable
  65              	.LVL4:
  45:main.c        ****         isr_dac_Disable();
  66              		.loc 1 45 0
  67 0030 FFF7FEFF 		bl	isr_dac_Disable
  68              	.LVL5:
  46:main.c        ****         finished_procedure_flag=1;
ARM GAS  C:\Users\ANNASP~1\AppData\Local\Temp\ccoGs3tP.s 			page 3


  69              		.loc 1 46 0
  70 0034 0122     		movs	r2, #1
  71 0036 0D4B     		ldr	r3, .L4+12
  72 0038 1A70     		strb	r2, [r3]
  47:main.c        ****         
  48:main.c        ****         UART_BT_PutChar(CV_DATA);
  73              		.loc 1 48 0
  74 003a 4D20     		movs	r0, #77
  75 003c FFF7FEFF 		bl	UART_BT_PutChar
  76              	.LVL6:
  49:main.c        ****         // we are sending first one Byte with the header, and after that the array with all the dat
  50:main.c        ****         // otherwise we would have to shift everything to the right
  51:main.c        ****         
  52:main.c        ****         sendMeasures();
  77              		.loc 1 52 0
  78 0040 FFF7FEFF 		bl	sendMeasures
  79              	.LVL7:
  53:main.c        ****         helper_HardwareSleep();
  80              		.loc 1 53 0
  81 0044 FFF7FEFF 		bl	helper_HardwareSleep
  82              	.LVL8:
  54:main.c        ****         lut_index = 0; 
  83              		.loc 1 54 0
  84 0048 0022     		movs	r2, #0
  85 004a 064B     		ldr	r3, .L4+4
  86 004c 1A80     		strh	r2, [r3]	@ movhi
  87              	.L2:
  55:main.c        ****     }
  56:main.c        ****     lut_value = waveform_lut[lut_index];
  88              		.loc 1 56 0
  89 004e 054B     		ldr	r3, .L4+4
  90 0050 1A88     		ldrh	r2, [r3]
  91 0052 074B     		ldr	r3, .L4+16
  92 0054 33F81220 		ldrh	r2, [r3, r2, lsl #1]
  93 0058 014B     		ldr	r3, .L4
  94 005a 1A80     		strh	r2, [r3]	@ movhi
  95 005c 08BD     		pop	{r3, pc}
  96              	.L5:
  97 005e 00BF     		.align	2
  98              	.L4:
  99 0060 00000000 		.word	lut_value
 100 0064 00000000 		.word	lut_index
 101 0068 00000000 		.word	lut_length
 102 006c 00000000 		.word	finished_procedure_flag
 103 0070 00000000 		.word	waveform_lut
 104              		.cfi_endproc
 105              	.LFE64:
 106              		.size	dacInterrupt, .-dacInterrupt
 107              		.section	.text.adcInterrupt,"ax",%progbits
 108              		.align	2
 109              		.global	adcInterrupt
 110              		.thumb
 111              		.thumb_func
 112              		.type	adcInterrupt, %function
 113              	adcInterrupt:
 114              	.LFB65:
  57:main.c        **** }
ARM GAS  C:\Users\ANNASP~1\AppData\Local\Temp\ccoGs3tP.s 			page 4


  58:main.c        **** 
  59:main.c        **** CY_ISR(adcInterrupt){ // enabled by function that starts CV and CA procedures 
 115              		.loc 1 59 0
 116              		.cfi_startproc
 117              		@ args = 0, pretend = 0, frame = 0
 118              		@ frame_needed = 0, uses_anonymous_args = 0
 119 0000 10B5     		push	{r4, lr}
 120              		.cfi_def_cfa_offset 8
 121              		.cfi_offset 4, -8
 122              		.cfi_offset 14, -4
  60:main.c        ****     LED_DAC_Write(0); 
 123              		.loc 1 60 0
 124 0002 0020     		movs	r0, #0
 125 0004 FFF7FEFF 		bl	LED_DAC_Write
 126              	.LVL9:
  61:main.c        ****     LED_ADC_Write(1);
 127              		.loc 1 61 0
 128 0008 0120     		movs	r0, #1
 129 000a FFF7FEFF 		bl	LED_ADC_Write
 130              	.LVL10:
  62:main.c        ****     
  63:main.c        ****     //ADC_SigDel_Start();
  64:main.c        ****     //ADC_SigDel_StartConvert();
  65:main.c        ****     
  66:main.c        ****     int16 measure = ADC_SigDel_GetResult16(); 
 131              		.loc 1 66 0
 132 000e FFF7FEFF 		bl	ADC_SigDel_GetResult16
 133              	.LVL11:
  67:main.c        ****     
  68:main.c        ****     uint8_t LSB_data = measure & 0xFF;
 134              		.loc 1 68 0
 135 0012 C4B2     		uxtb	r4, r0
 136              	.LVL12:
  69:main.c        ****     uint8_t MSB_data = measure >> 8;
 137              		.loc 1 69 0
 138 0014 C0F30720 		ubfx	r0, r0, #8, #8
 139              	.LVL13:
  70:main.c        ****     data_long[2*lut_index] = MSB_data;
 140              		.loc 1 70 0
 141 0018 044B     		ldr	r3, .L8
 142 001a 1988     		ldrh	r1, [r3]
 143 001c 4B00     		lsls	r3, r1, #1
 144 001e 044A     		ldr	r2, .L8+4
 145 0020 02F81100 		strb	r0, [r2, r1, lsl #1]
  71:main.c        ****     data_long[2*lut_index+1] = LSB_data;
 146              		.loc 1 71 0
 147 0024 0133     		adds	r3, r3, #1
 148 0026 D454     		strb	r4, [r2, r3]
 149 0028 10BD     		pop	{r4, pc}
 150              	.LVL14:
 151              	.L9:
 152 002a 00BF     		.align	2
 153              	.L8:
 154 002c 00000000 		.word	lut_index
 155 0030 00000000 		.word	data_long
 156              		.cfi_endproc
 157              	.LFE65:
ARM GAS  C:\Users\ANNASP~1\AppData\Local\Temp\ccoGs3tP.s 			page 5


 158              		.size	adcInterrupt, .-adcInterrupt
 159              		.section	.text.Custom_UART_BT_RX_Interrupt,"ax",%progbits
 160              		.align	2
 161              		.global	Custom_UART_BT_RX_Interrupt
 162              		.thumb
 163              		.thumb_func
 164              		.type	Custom_UART_BT_RX_Interrupt, %function
 165              	Custom_UART_BT_RX_Interrupt:
 166              	.LFB66:
  72:main.c        **** }
  73:main.c        **** 
  74:main.c        **** CY_ISR(Custom_UART_BT_RX_Interrupt){ // called when incoming data is available on the RX of the UAR
 167              		.loc 1 74 0
 168              		.cfi_startproc
 169              		@ args = 0, pretend = 0, frame = 0
 170              		@ frame_needed = 0, uses_anonymous_args = 0
 171 0000 38B5     		push	{r3, r4, r5, lr}
 172              		.cfi_def_cfa_offset 16
 173              		.cfi_offset 3, -16
 174              		.cfi_offset 4, -12
 175              		.cfi_offset 5, -8
 176              		.cfi_offset 14, -4
  75:main.c        ****     //WARNING: this function is called each time a new byte arrive, so if we receive the byte array
  76:main.c        ****     // to change it, we must change "Interrupt Source" parameter on the TopDesign
  77:main.c        ****     LED_DAC_Write(1);
 177              		.loc 1 77 0
 178 0002 0120     		movs	r0, #1
 179 0004 FFF7FEFF 		bl	LED_DAC_Write
 180              	.LVL15:
  78:main.c        ****     temp[buffer_index] = UART_BT_GetByte();   
 181              		.loc 1 78 0
 182 0008 154D     		ldr	r5, .L17
 183 000a 2C78     		ldrb	r4, [r5]	@ zero_extendqisi2
 184 000c E4B2     		uxtb	r4, r4
 185 000e FFF7FEFF 		bl	UART_BT_GetByte
 186              	.LVL16:
 187 0012 C0B2     		uxtb	r0, r0
 188 0014 134A     		ldr	r2, .L17+4
 189 0016 1055     		strb	r0, [r2, r4]
  79:main.c        ****     
  80:main.c        ****     if(temp[buffer_index] == 'Z'){
 190              		.loc 1 80 0
 191 0018 2B78     		ldrb	r3, [r5]	@ zero_extendqisi2
 192 001a DBB2     		uxtb	r3, r3
 193 001c D35C     		ldrb	r3, [r2, r3]	@ zero_extendqisi2
 194 001e DBB2     		uxtb	r3, r3
 195 0020 5A2B     		cmp	r3, #90
 196 0022 0ED1     		bne	.L11
  81:main.c        ****         input_flag = 1; // raises input flag, so that te main calls the BT reading at the next whil
 197              		.loc 1 81 0
 198 0024 0122     		movs	r2, #1
 199 0026 6A70     		strb	r2, [r5, #1]
 200              	.LVL17:
 201              	.LBB2:
  82:main.c        ****         
  83:main.c        ****         
  84:main.c        ****         for(uint16_t i=0; i<DATA_MAX_READING_SIZE ; i++){
ARM GAS  C:\Users\ANNASP~1\AppData\Local\Temp\ccoGs3tP.s 			page 6


 202              		.loc 1 84 0
 203 0028 0023     		movs	r3, #0
 204 002a 08E0     		b	.L12
 205              	.LVL18:
 206              	.L13:
  85:main.c        ****             data_buffer[i] = temp[i];
 207              		.loc 1 85 0 discriminator 3
 208 002c 0D49     		ldr	r1, .L17+4
 209 002e CA5C     		ldrb	r2, [r1, r3]	@ zero_extendqisi2
 210 0030 D2B2     		uxtb	r2, r2
 211 0032 0D48     		ldr	r0, .L17+8
 212 0034 C254     		strb	r2, [r0, r3]
  86:main.c        ****             temp[i] =0; //clearing data buffer
 213              		.loc 1 86 0 discriminator 3
 214 0036 0022     		movs	r2, #0
 215 0038 CA54     		strb	r2, [r1, r3]
  84:main.c        ****             data_buffer[i] = temp[i];
 216              		.loc 1 84 0 discriminator 3
 217 003a 0133     		adds	r3, r3, #1
 218              	.LVL19:
 219 003c 9BB2     		uxth	r3, r3
 220              	.LVL20:
 221              	.L12:
  84:main.c        ****             data_buffer[i] = temp[i];
 222              		.loc 1 84 0 is_stmt 0 discriminator 1
 223 003e 132B     		cmp	r3, #19
 224 0040 F4D9     		bls	.L13
 225              	.LVL21:
 226              	.L11:
 227              	.LBE2:
  87:main.c        ****         }   
  88:main.c        ****     }
  89:main.c        ****     
  90:main.c        ****     if(input_flag){
 228              		.loc 1 90 0 is_stmt 1
 229 0042 074B     		ldr	r3, .L17
 230 0044 5B78     		ldrb	r3, [r3, #1]	@ zero_extendqisi2
 231 0046 13F0FF0F 		tst	r3, #255
 232 004a 03D0     		beq	.L14
  91:main.c        ****         buffer_index = 0;
 233              		.loc 1 91 0
 234 004c 0022     		movs	r2, #0
 235 004e 044B     		ldr	r3, .L17
 236 0050 1A70     		strb	r2, [r3]
 237 0052 38BD     		pop	{r3, r4, r5, pc}
 238              	.L14:
  92:main.c        ****     } else {
  93:main.c        ****         buffer_index++;
 239              		.loc 1 93 0
 240 0054 024A     		ldr	r2, .L17
 241 0056 1378     		ldrb	r3, [r2]	@ zero_extendqisi2
 242 0058 0133     		adds	r3, r3, #1
 243 005a DBB2     		uxtb	r3, r3
 244 005c 1370     		strb	r3, [r2]
 245 005e 38BD     		pop	{r3, r4, r5, pc}
 246              	.L18:
 247              		.align	2
ARM GAS  C:\Users\ANNASP~1\AppData\Local\Temp\ccoGs3tP.s 			page 7


 248              	.L17:
 249 0060 00000000 		.word	.LANCHOR0
 250 0064 00000000 		.word	temp
 251 0068 00000000 		.word	data_buffer
 252              		.cfi_endproc
 253              	.LFE66:
 254              		.size	Custom_UART_BT_RX_Interrupt, .-Custom_UART_BT_RX_Interrupt
 255              		.section	.text.main,"ax",%progbits
 256              		.align	2
 257              		.global	main
 258              		.thumb
 259              		.thumb_func
 260              		.type	main, %function
 261              	main:
 262              	.LFB67:
  94:main.c        ****     }
  95:main.c        **** }
  96:main.c        **** 
  97:main.c        **** int main(void){
 263              		.loc 1 97 0
 264              		.cfi_startproc
 265              		@ args = 0, pretend = 0, frame = 0
 266              		@ frame_needed = 0, uses_anonymous_args = 0
 267 0000 10B5     		push	{r4, lr}
 268              		.cfi_def_cfa_offset 8
 269              		.cfi_offset 4, -8
 270              		.cfi_offset 14, -4
  98:main.c        ****     
  99:main.c        ****     CyGlobalIntEnable; // Enable global interrupts
 271              		.loc 1 99 0
 272              		.syntax unified
 273              	@ 99 "main.c" 1
 274 0002 62B6     		CPSIE   i
 275              	@ 0 "" 2
 100:main.c        ****     
 101:main.c        ****     input_flag = 0; 
 276              		.loc 1 101 0
 277              		.thumb
 278              		.syntax unified
 279 0004 794B     		ldr	r3, .L46
 280 0006 0024     		movs	r4, #0
 281 0008 5C70     		strb	r4, [r3, #1]
 102:main.c        ****     connection_state = 0;
 282              		.loc 1 102 0
 283 000a 9C70     		strb	r4, [r3, #2]
 103:main.c        ****     buffer_index = 0;
 284              		.loc 1 103 0
 285 000c 1C70     		strb	r4, [r3]
 104:main.c        ****     lut_index=0; 
 286              		.loc 1 104 0
 287 000e 784B     		ldr	r3, .L46+4
 288 0010 1C80     		strh	r4, [r3]	@ movhi
 105:main.c        ****     finished_procedure_flag=0; // DEBUG CHANGE -- delete later 
 289              		.loc 1 105 0
 290 0012 784B     		ldr	r3, .L46+8
 291 0014 1C70     		strb	r4, [r3]
 106:main.c        **** 
ARM GAS  C:\Users\ANNASP~1\AppData\Local\Temp\ccoGs3tP.s 			page 8


 107:main.c        ****     /* *********************************
 108:main.c        ****        ******* INITIALIZATION CODE *****
 109:main.c        ****        *********************************
 110:main.c        ****        all the steps to perform when the device is switched on 
 111:main.c        ****        1. hardware wakeup (bluetooth and all the other hw) 
 112:main.c        ****        2. enable of interrupts
 113:main.c        ****        3. calibration of the TIA with default value of R */
 114:main.c        ****     
 115:main.c        ****     helper_HardwareSetup(); /* from hardware_management.c 
 292              		.loc 1 115 0
 293 0016 FFF7FEFF 		bl	helper_HardwareSetup
 294              	.LVL22:
 116:main.c        ****                                1. calls Init() API functions of all AMUX
 117:main.c        ****                                2. calls Start() from DAC_management.c, which starts the DAC selecte
 118:main.c        ****                                 -> in the beginning no DAC is selected - we can change this 
 119:main.c        ****                                3. selects 3 electrodes configuration
 120:main.c        ****                                4. connects the TIA to the working electrode */
 121:main.c        ****     
 122:main.c        ****     ADC_SigDel_SelectConfiguration(2, DO_NOT_RESTART_ADC); /* selects configuration of the ADC 
 295              		.loc 1 122 0
 296 001a 2146     		mov	r1, r4
 297 001c 0220     		movs	r0, #2
 298 001e FFF7FEFF 		bl	ADC_SigDel_SelectConfiguration
 299              	.LVL23:
 123:main.c        ****                                                               config2 has +- 1.024 V of input range
 124:main.c        ****     
 125:main.c        ****     /* Start end then disable the CV and CA ISR */
 126:main.c        ****     isr_dac_StartEx(dacInterrupt);
 300              		.loc 1 126 0
 301 0022 7548     		ldr	r0, .L46+12
 302 0024 FFF7FEFF 		bl	isr_dac_StartEx
 303              	.LVL24:
 127:main.c        ****     isr_dac_Disable();  // disable interrupt until a voltage signal needs to be given
 304              		.loc 1 127 0
 305 0028 FFF7FEFF 		bl	isr_dac_Disable
 306              	.LVL25:
 128:main.c        ****     isr_adc_StartEx(adcInterrupt);
 307              		.loc 1 128 0
 308 002c 7348     		ldr	r0, .L46+16
 309 002e FFF7FEFF 		bl	isr_adc_StartEx
 310              	.LVL26:
 129:main.c        ****     isr_adc_Disable();
 311              		.loc 1 129 0
 312 0032 FFF7FEFF 		bl	isr_adc_Disable
 313              	.LVL27:
 130:main.c        ****     isr_UART_BT_RX_StartEx(Custom_UART_BT_RX_Interrupt); 
 314              		.loc 1 130 0
 315 0036 7248     		ldr	r0, .L46+20
 316 0038 FFF7FEFF 		bl	isr_UART_BT_RX_StartEx
 317              	.LVL28:
 131:main.c        ****    
 132:main.c        ****     
 133:main.c        ****     UART_BT_Start(); // switch on the communication with the Bluetooth 
 318              		.loc 1 133 0
 319 003c FFF7FEFF 		bl	UART_BT_Start
 320              	.LVL29:
 134:main.c        ****     CyDelay(100); // give a little time to the BT module to tune and set
ARM GAS  C:\Users\ANNASP~1\AppData\Local\Temp\ccoGs3tP.s 			page 9


 321              		.loc 1 134 0
 322 0040 6420     		movs	r0, #100
 323 0042 FFF7FEFF 		bl	CyDelay
 324              	.LVL30:
 325              	.LBB3:
 135:main.c        ****     
 136:main.c        ****     //Clear the data_buffer and the data_to_send arrays
 137:main.c        ****     for(uint16_t i=0; i<DATA_MAX_SENDING_SIZE ; i++){
 326              		.loc 1 137 0
 327 0046 06E0     		b	.L20
 328              	.LVL31:
 329              	.L21:
 138:main.c        ****         data_buffer[i] = 0;
 330              		.loc 1 138 0 discriminator 3
 331 0048 0023     		movs	r3, #0
 332 004a 6E4A     		ldr	r2, .L46+24
 333 004c 1355     		strb	r3, [r2, r4]
 139:main.c        ****         data_to_send[i] = 0;
 334              		.loc 1 139 0 discriminator 3
 335 004e 6E4A     		ldr	r2, .L46+28
 336 0050 1355     		strb	r3, [r2, r4]
 137:main.c        ****         data_buffer[i] = 0;
 337              		.loc 1 137 0 discriminator 3
 338 0052 0134     		adds	r4, r4, #1
 339              	.LVL32:
 340 0054 A4B2     		uxth	r4, r4
 341              	.LVL33:
 342              	.L20:
 137:main.c        ****         data_buffer[i] = 0;
 343              		.loc 1 137 0 is_stmt 0 discriminator 1
 344 0056 772C     		cmp	r4, #119
 345 0058 F6D9     		bls	.L21
 346 005a 0023     		movs	r3, #0
 347 005c 04E0     		b	.L22
 348              	.LVL34:
 349              	.L23:
 350              	.LBE3:
 351              	.LBB4:
 140:main.c        ****     }
 141:main.c        ****     
 142:main.c        ****     for(uint16_t i=0; i<DATA_LONG_SIZE ; i++){
 143:main.c        ****         data_long[i] = 0;
 352              		.loc 1 143 0 is_stmt 1 discriminator 3
 353 005e 0021     		movs	r1, #0
 354 0060 6A4A     		ldr	r2, .L46+32
 355 0062 D154     		strb	r1, [r2, r3]
 142:main.c        ****         data_long[i] = 0;
 356              		.loc 1 142 0 discriminator 3
 357 0064 0133     		adds	r3, r3, #1
 358              	.LVL35:
 359 0066 9BB2     		uxth	r3, r3
 360              	.LVL36:
 361              	.L22:
 142:main.c        ****         data_long[i] = 0;
 362              		.loc 1 142 0 is_stmt 0 discriminator 1
 363 0068 41F28732 		movw	r2, #4999
 364 006c 9342     		cmp	r3, r2
ARM GAS  C:\Users\ANNASP~1\AppData\Local\Temp\ccoGs3tP.s 			page 10


 365 006e F6D9     		bls	.L23
 366              	.LBE4:
 144:main.c        ****     }
 145:main.c        ****     
 146:main.c        ****     // TIA INITIALIZATION
 147:main.c        ****     TIA_SetResFB(TIA_RESISTOR_DEFAULT_VALUE_INDEX); 
 367              		.loc 1 147 0 is_stmt 1
 368 0070 0020     		movs	r0, #0
 369 0072 FFF7FEFF 		bl	TIA_SetResFB
 370              	.LVL37:
 148:main.c        ****     calibrate_TIA(TIA_RESISTOR_DEFAULT_VALUE_INDEX); // calibration of the TIA with default R = 20 
 371              		.loc 1 148 0
 372 0076 0020     		movs	r0, #0
 373 0078 FFF7FEFF 		bl	calibrate_TIA
 374              	.LVL38:
 149:main.c        ****     
 150:main.c        ****     // EEPROM INITIALIZATION
 151:main.c        ****     EEPROM_Start();
 375              		.loc 1 151 0
 376 007c FFF7FEFF 		bl	EEPROM_Start
 377              	.LVL39:
 152:main.c        ****     if(EEPROM_ReadByte(EEPROM_FLAG_ADD)!=1){
 378              		.loc 1 152 0
 379 0080 FF20     		movs	r0, #255
 380 0082 FFF7FEFF 		bl	EEPROM_ReadByte
 381              	.LVL40:
 382 0086 0128     		cmp	r0, #1
 383 0088 03D0     		beq	.L24
 153:main.c        ****         EEPROM_WriteByte(EEPROM_FLAG, EEPROM_FLAG_ADD);
 384              		.loc 1 153 0
 385 008a FF21     		movs	r1, #255
 386 008c 0020     		movs	r0, #0
 387 008e FFF7FEFF 		bl	EEPROM_WriteByte
 388              	.LVL41:
 389              	.L24:
 154:main.c        ****     }
 155:main.c        ****     
 156:main.c        ****     if(EEPROM_ReadByte(EEPROM_FLAG_ADD) == 0){
 390              		.loc 1 156 0
 391 0092 FF20     		movs	r0, #255
 392 0094 FFF7FEFF 		bl	EEPROM_ReadByte
 393              	.LVL42:
 394 0098 08B9     		cbnz	r0, .L41
 157:main.c        ****        initialize_default_values(); // the default values in the EEPROM are initialized
 395              		.loc 1 157 0
 396 009a FFF7FEFF 		bl	initialize_default_values
 397              	.LVL43:
 398              	.L41:
 158:main.c        ****     }
 159:main.c        ****     
 160:main.c        ****     //CyWdtStart(CYWDT_1024_TICKS, CYWDT_LPMODE_NOCHANGE); -- si può toglierlo
 161:main.c        ****     
 162:main.c        ****     
 163:main.c        ****     
 164:main.c        ****     for(;;) {
 165:main.c        ****         
 166:main.c        ****         //input_flag = 1; //DEBUG CHANGE -- delete later
ARM GAS  C:\Users\ANNASP~1\AppData\Local\Temp\ccoGs3tP.s 			page 11


 167:main.c        ****         
 168:main.c        ****         CyDelay(100);
 399              		.loc 1 168 0
 400 009e 6420     		movs	r0, #100
 401 00a0 FFF7FEFF 		bl	CyDelay
 402              	.LVL44:
 169:main.c        ****         
 170:main.c        ****     
 171:main.c        ****         //CyWdtClear(); // clears the watchdog timer -> stops here
 172:main.c        ****         
 173:main.c        ****         /* ************************
 174:main.c        ****            ******* CASES CODE *****
 175:main.c        ****            ************************ 
 176:main.c        ****            during the while(1) - normal functioning - of the device, the state of the device is set
 177:main.c        ****            switch(cases) structure which depends on the input coming from the Bluetooth UART 
 178:main.c        ****            - the Bluetooth packets are defined in such a way [header][data][tail] that the header i
 179:main.c        ****              identifier for the information the data is carrying and can be used to enter the corre
 180:main.c        ****              >> [headers] need to be declared and defined in globals.h for accessing the cases
 181:main.c        ****            - for the timing, at each while(1) iteration the input is checked, and if a new input is
 182:main.c        ****              state is changed 
 183:main.c        ****              >> for this reason when before exiting a state and repeating the while(1) all the opea
 184:main.c        ****                 state need to be concluded 
 185:main.c        ****              >> in the GUI the user should not be able to send data on the BT while the device is p
 186:main.c        ****                 processes of a specific case 
 187:main.c        ****         */ 
 188:main.c        ****         if(input_flag==1){ // we have a new  iput -> go to the related state (case) 
 403              		.loc 1 188 0
 404 00a4 514B     		ldr	r3, .L46
 405 00a6 5B78     		ldrb	r3, [r3, #1]	@ zero_extendqisi2
 406 00a8 DBB2     		uxtb	r3, r3
 407 00aa 012B     		cmp	r3, #1
 408 00ac 7BD1     		bne	.L26
 189:main.c        ****             
 190:main.c        ****             input_flag=0;
 409              		.loc 1 190 0
 410 00ae 0022     		movs	r2, #0
 411 00b0 4E4B     		ldr	r3, .L46
 412 00b2 5A70     		strb	r2, [r3, #1]
 191:main.c        ****             
 192:main.c        ****             
 193:main.c        ****             
 194:main.c        ****             // DEBUG CHANGE -- hard coding of data buffer 
 195:main.c        ****             //data_buffer[0]='D'; // CV change parameters
 196:main.c        ****             //data_buffer[1]= 10; // scan rate
 197:main.c        ****             //data_buffer[2]= 20; // start value 
 198:main.c        ****             //data_buffer[3]= 150; // end value
 199:main.c        ****             //data_buffer[4]= 0; // cv type = linear
 200:main.c        **** 
 201:main.c        ****             switch (data_buffer[0]) { //switch based on the header of the incoming packet  
 413              		.loc 1 201 0
 414 00b4 534B     		ldr	r3, .L46+24
 415 00b6 1B78     		ldrb	r3, [r3]	@ zero_extendqisi2
 416 00b8 413B     		subs	r3, r3, #65
 417 00ba 122B     		cmp	r3, #18
 418 00bc 73D8     		bhi	.L26
 419 00be DFE803F0 		tbb	[pc, r3]
 420              	.L28:
ARM GAS  C:\Users\ANNASP~1\AppData\Local\Temp\ccoGs3tP.s 			page 12


 421 00c2 24       		.byte	(.L27-.L28)/2
 422 00c3 40       		.byte	(.L29-.L28)/2
 423 00c4 53       		.byte	(.L30-.L28)/2
 424 00c5 5F       		.byte	(.L31-.L28)/2
 425 00c6 62       		.byte	(.L32-.L28)/2
 426 00c7 0A       		.byte	(.L33-.L28)/2
 427 00c8 72       		.byte	(.L26-.L28)/2
 428 00c9 72       		.byte	(.L26-.L28)/2
 429 00ca 14       		.byte	(.L34-.L28)/2
 430 00cb 72       		.byte	(.L26-.L28)/2
 431 00cc 72       		.byte	(.L26-.L28)/2
 432 00cd 72       		.byte	(.L26-.L28)/2
 433 00ce 72       		.byte	(.L26-.L28)/2
 434 00cf 72       		.byte	(.L26-.L28)/2
 435 00d0 72       		.byte	(.L26-.L28)/2
 436 00d1 72       		.byte	(.L26-.L28)/2
 437 00d2 72       		.byte	(.L26-.L28)/2
 438 00d3 65       		.byte	(.L35-.L28)/2
 439 00d4 6F       		.byte	(.L36-.L28)/2
 440 00d5 00       		.p2align 1
 441              	.L33:
 202:main.c        ****                
 203:main.c        ****             case CONNECT_BT:;
 204:main.c        ****                     
 205:main.c        ****                     data_to_send[0]=BT_SET; // send back to Py the 0xFF flag, so that Py can open t
 442              		.loc 1 205 0
 443 00d6 4622     		movs	r2, #70
 444 00d8 4B4B     		ldr	r3, .L46+28
 445 00da 1A70     		strb	r2, [r3]
 206:main.c        ****                     writeBT(1); 
 446              		.loc 1 206 0
 447 00dc 0120     		movs	r0, #1
 448 00de FFF7FEFF 		bl	writeBT
 449              	.LVL45:
 207:main.c        ****                     CyDelay(100);
 450              		.loc 1 207 0
 451 00e2 6420     		movs	r0, #100
 452 00e4 FFF7FEFF 		bl	CyDelay
 453              	.LVL46:
 208:main.c        ****             break;
 454              		.loc 1 208 0
 455 00e8 5DE0     		b	.L26
 456              	.L34:
 209:main.c        ****                     
 210:main.c        ****             case TIA_INITIALIZATION:;
 211:main.c        ****                     connection_state=1;
 457              		.loc 1 211 0
 458 00ea 0122     		movs	r2, #1
 459 00ec 3F4B     		ldr	r3, .L46
 460 00ee 9A70     		strb	r2, [r3, #2]
 461              	.LVL47:
 462              	.LBB5:
 212:main.c        ****                     for(int i=0; i<(Number_calibration_points*4)+1; i++){
 463              		.loc 1 212 0
 464 00f0 0023     		movs	r3, #0
 465 00f2 04E0     		b	.L37
 466              	.LVL48:
ARM GAS  C:\Users\ANNASP~1\AppData\Local\Temp\ccoGs3tP.s 			page 13


 467              	.L38:
 213:main.c        ****                         data_to_send[i] = tia_calibration_values[i];
 468              		.loc 1 213 0 discriminator 3
 469 00f4 464A     		ldr	r2, .L46+36
 470 00f6 D15C     		ldrb	r1, [r2, r3]	@ zero_extendqisi2
 471 00f8 434A     		ldr	r2, .L46+28
 472 00fa D154     		strb	r1, [r2, r3]
 212:main.c        ****                     for(int i=0; i<(Number_calibration_points*4)+1; i++){
 473              		.loc 1 212 0 discriminator 3
 474 00fc 0133     		adds	r3, r3, #1
 475              	.LVL49:
 476              	.L37:
 212:main.c        ****                     for(int i=0; i<(Number_calibration_points*4)+1; i++){
 477              		.loc 1 212 0 is_stmt 0 discriminator 1
 478 00fe 142B     		cmp	r3, #20
 479 0100 F8DD     		ble	.L38
 480              	.LBE5:
 214:main.c        ****                     }
 215:main.c        ****                     writeBT((Number_calibration_points*4)+1);               
 481              		.loc 1 215 0 is_stmt 1
 482 0102 1520     		movs	r0, #21
 483 0104 FFF7FEFF 		bl	writeBT
 484              	.LVL50:
 216:main.c        ****             break;    
 485              		.loc 1 216 0
 486 0108 4DE0     		b	.L26
 487              	.L27:
 217:main.c        ****                     
 218:main.c        ****             case TIA_CALIBRATE: ; // user has changed some parameters regarding the TIA (impedance,
 219:main.c        ****                                   // the TIA is calibrated again
 220:main.c        ****                 if(data_buffer[1] == 0x00){
 488              		.loc 1 220 0
 489 010a 3E4B     		ldr	r3, .L46+24
 490 010c 5B78     		ldrb	r3, [r3, #1]	@ zero_extendqisi2
 491 010e 13F0FF0F 		tst	r3, #255
 492 0112 07D1     		bne	.L39
 221:main.c        ****                     user_setup_TIA_ADC(data_buffer);
 493              		.loc 1 221 0
 494 0114 3B4C     		ldr	r4, .L46+24
 495 0116 2046     		mov	r0, r4
 496 0118 FFF7FEFF 		bl	user_setup_TIA_ADC
 497              	.LVL51:
 222:main.c        ****                     calibrate_TIA(data_buffer[2]); 
 498              		.loc 1 222 0
 499 011c A078     		ldrb	r0, [r4, #2]	@ zero_extendqisi2
 500 011e FFF7FEFF 		bl	calibrate_TIA
 501              	.LVL52:
 223:main.c        ****                     break;
 502              		.loc 1 223 0
 503 0122 40E0     		b	.L26
 504              	.L39:
 224:main.c        ****                 }else if(data_buffer[1] == 0x01){
 505              		.loc 1 224 0
 506 0124 374B     		ldr	r3, .L46+24
 507 0126 5B78     		ldrb	r3, [r3, #1]	@ zero_extendqisi2
 508 0128 DBB2     		uxtb	r3, r3
 509 012a 012B     		cmp	r3, #1
ARM GAS  C:\Users\ANNASP~1\AppData\Local\Temp\ccoGs3tP.s 			page 14


 510 012c 3BD1     		bne	.L26
 225:main.c        ****                     EEPROM_WriteByte(data_buffer[2], R_TIA_CALIBRATION);
 511              		.loc 1 225 0
 512 012e 354C     		ldr	r4, .L46+24
 513 0130 A078     		ldrb	r0, [r4, #2]	@ zero_extendqisi2
 514 0132 1421     		movs	r1, #20
 515 0134 FFF7FEFF 		bl	EEPROM_WriteByte
 516              	.LVL53:
 226:main.c        ****                     EEPROM_WriteByte(data_buffer[3], Q_TIA_CALIBRATION);
 517              		.loc 1 226 0
 518 0138 E078     		ldrb	r0, [r4, #3]	@ zero_extendqisi2
 519 013a 1521     		movs	r1, #21
 520 013c FFF7FEFF 		bl	EEPROM_WriteByte
 521              	.LVL54:
 227:main.c        ****                     break;
 522              		.loc 1 227 0
 523 0140 31E0     		b	.L26
 524              	.L29:
 228:main.c        ****                 }
 229:main.c        ****             break;
 230:main.c        **** 
 231:main.c        ****             
 232:main.c        ****             //****************** CHANGE VOLTAMMETRY PARMS CASE ************************************
 233:main.c        ****             case CHANGE_CV_PARAMETERS: ; /* user has changed parameters of the CV from the GUI need
 234:main.c        ****                                             (1) update the T_PWM according to the scan rate,
 235:main.c        ****                                             (2) create the LUT according to start and end values */
 236:main.c        ****                 user_set_isr_timer(data_buffer); /*give the scan rate in ms (from UART)*/
 525              		.loc 1 236 0
 526 0142 304C     		ldr	r4, .L46+24
 527 0144 2046     		mov	r0, r4
 528 0146 FFF7FEFF 		bl	user_set_isr_timer
 529              	.LVL55:
 237:main.c        ****                 lut_length = LUT_MakeTriangle_Wave(data_buffer);
 530              		.loc 1 237 0
 531 014a 2046     		mov	r0, r4
 532 014c FFF7FEFF 		bl	LUT_MakeTriangle_Wave
 533              	.LVL56:
 534 0150 304B     		ldr	r3, .L46+40
 535 0152 1880     		strh	r0, [r3]	@ movhi
 238:main.c        ****                     /*start and end values in bits (mv->bit processing in Py) from UART
 239:main.c        ****                                         and which type of cv to perform*/
 240:main.c        ****                                       // for now, pulse height and increment of SWV are hard coded 
 241:main.c        ****                                       // can add later option to change them 
 242:main.c        ****                                       // to keep the same function, can pass 0 and 0 in case of sim
 243:main.c        ****                 
 244:main.c        ****                 
 245:main.c        ****                 // send confirmation that parameters have been set to Python 
 246:main.c        ****                 data_to_send[0] = CV_PARAMS_SET; 
 536              		.loc 1 246 0
 537 0154 4222     		movs	r2, #66
 538 0156 2C4B     		ldr	r3, .L46+28
 539 0158 1A70     		strb	r2, [r3]
 247:main.c        ****                 writeBT(1);   
 540              		.loc 1 247 0
 541 015a 0120     		movs	r0, #1
 542 015c FFF7FEFF 		bl	writeBT
 543              	.LVL57:
ARM GAS  C:\Users\ANNASP~1\AppData\Local\Temp\ccoGs3tP.s 			page 15


 248:main.c        ****                 CyDelay(100);
 544              		.loc 1 248 0
 545 0160 6420     		movs	r0, #100
 546 0162 FFF7FEFF 		bl	CyDelay
 547              	.LVL58:
 249:main.c        ****      
 250:main.c        ****             break; 
 548              		.loc 1 250 0
 549 0166 1EE0     		b	.L26
 550              	.L30:
 251:main.c        ****            
 252:main.c        ****             //****************** CHANGE CHRONOAMPEROMETRY PARMS CASE ******************************
 253:main.c        ****             case CHANGE_CA_PARAMETERS: ; /* can set 
 254:main.c        ****                                             - which CA to make (1) with parameters (2) measure with
 255:main.c        ****                                             - if parameters: Voltage and duration of stimulation*/
 256:main.c        ****                 lut_length = user_chrono_lut_maker(data_buffer);
 551              		.loc 1 256 0
 552 0168 2648     		ldr	r0, .L46+24
 553 016a FFF7FEFF 		bl	user_chrono_lut_maker
 554              	.LVL59:
 555 016e 294B     		ldr	r3, .L46+40
 556 0170 1880     		strh	r0, [r3]	@ movhi
 257:main.c        ****                                        /*type of CV, voltage and duration
 258:main.c        ****                                         if measure -> duration = 0 (not used by user_chrono_lut_mak
 259:main.c        ****                                                        >> this in Py! 
 260:main.c        ****                                         if not CA  -> duration and V chosen by the user */
 261:main.c        **** 
 262:main.c        ****                 //send confirmation that parameters have been set to Python 
 263:main.c        ****                 data_to_send[0] = CA_PARAMS_SET; 
 557              		.loc 1 263 0
 558 0172 4322     		movs	r2, #67
 559 0174 244B     		ldr	r3, .L46+28
 560 0176 1A70     		strb	r2, [r3]
 264:main.c        ****                 writeBT(1); 
 561              		.loc 1 264 0
 562 0178 0120     		movs	r0, #1
 563 017a FFF7FEFF 		bl	writeBT
 564              	.LVL60:
 265:main.c        ****                 
 266:main.c        ****                 //if (data_buffer[1]==1) goto case E; // go directly to running the CA if measuring
 267:main.c        ****                                                       // look up  the correct syntax for this!
 268:main.c        ****             break; 
 565              		.loc 1 268 0
 566 017e 12E0     		b	.L26
 567              	.L31:
 269:main.c        ****                 
 270:main.c        ****             case RUN_CV : ; // user has pressed "start" on the CV (available after setting paramete
 271:main.c        ****                 //user_set_isr_timer(data_buffer); // DEBUG CHANGE -- remove later
 272:main.c        ****                 //lut_length = LUT_MakeTriangle_Wave(data_buffer); // DEBUG CHANGE -- remove later 
 273:main.c        ****                 
 274:main.c        ****                 user_run_procedure(); 
 568              		.loc 1 274 0
 569 0180 FFF7FEFF 		bl	user_run_procedure
 570              	.LVL61:
 275:main.c        ****                 
 276:main.c        ****             break; 
 571              		.loc 1 276 0
ARM GAS  C:\Users\ANNASP~1\AppData\Local\Temp\ccoGs3tP.s 			page 16


 572 0184 0FE0     		b	.L26
 573              	.L32:
 277:main.c        ****                 
 278:main.c        ****             case RUN_CA : ; // user has pressed "start" on the CA interface (or coming from MEASURE
 279:main.c        ****                 //lut_length = user_chrono_lut_maker(data_buffer);
 280:main.c        ****                 user_run_procedure(); 
 574              		.loc 1 280 0
 575 0186 FFF7FEFF 		bl	user_run_procedure
 576              	.LVL62:
 281:main.c        ****                 /* using the same function for CV and CA, since a differentiated look up table has 
 282:main.c        ****             break;
 577              		.loc 1 282 0
 578 018a 0CE0     		b	.L26
 579              	.L35:
 283:main.c        ****             
 284:main.c        ****             case EEPROM_MANAGEMENT: ;             
 285:main.c        ****                 user_EEPROM_management(data_buffer);
 580              		.loc 1 285 0
 581 018c 1D48     		ldr	r0, .L46+24
 582 018e FFF7FEFF 		bl	user_EEPROM_management
 583              	.LVL63:
 286:main.c        ****                 data_to_send[0]=EEPROM_SET; 
 584              		.loc 1 286 0
 585 0192 5222     		movs	r2, #82
 586 0194 1C4B     		ldr	r3, .L46+28
 587 0196 1A70     		strb	r2, [r3]
 287:main.c        ****                 writeBT(PARAMS_SENDING_SIZE); 
 588              		.loc 1 287 0
 589 0198 0220     		movs	r0, #2
 590 019a FFF7FEFF 		bl	writeBT
 591              	.LVL64:
 288:main.c        ****             break;
 592              		.loc 1 288 0
 593 019e 02E0     		b	.L26
 594              	.L36:
 289:main.c        ****                 
 290:main.c        ****             case DAC_MANAGEMENT:;
 291:main.c        ****                 user_voltage_source_funcs(data_buffer); 
 595              		.loc 1 291 0
 596 01a0 1848     		ldr	r0, .L46+24
 597 01a2 FFF7FEFF 		bl	user_voltage_source_funcs
 598              	.LVL65:
 599              	.L26:
 292:main.c        ****             break; 
 293:main.c        ****         } 
 294:main.c        ****     }
 295:main.c        ****         if(finished_procedure_flag){ // DEBUG CHANGE -- delete later the if case
 600              		.loc 1 295 0
 601 01a6 134B     		ldr	r3, .L46+8
 602 01a8 1B78     		ldrb	r3, [r3]	@ zero_extendqisi2
 603 01aa 002B     		cmp	r3, #0
 604 01ac 3FF477AF 		beq	.L41
 605 01b0 15E0     		b	.L44
 606              	.LVL66:
 607              	.L42:
 608              	.LBB6:
 296:main.c        ****             
ARM GAS  C:\Users\ANNASP~1\AppData\Local\Temp\ccoGs3tP.s 			page 17


 297:main.c        ****             for (int i = 0; i<5 ; i++){
 298:main.c        ****                 LED_ADC_Write(1); 
 609              		.loc 1 298 0 discriminator 3
 610 01b2 0120     		movs	r0, #1
 611 01b4 FFF7FEFF 		bl	LED_ADC_Write
 612              	.LVL67:
 299:main.c        ****                 LED_DAC_Write(1); 
 613              		.loc 1 299 0 discriminator 3
 614 01b8 0120     		movs	r0, #1
 615 01ba FFF7FEFF 		bl	LED_DAC_Write
 616              	.LVL68:
 300:main.c        ****                 CyDelay(500);
 617              		.loc 1 300 0 discriminator 3
 618 01be 4FF4FA70 		mov	r0, #500
 619 01c2 FFF7FEFF 		bl	CyDelay
 620              	.LVL69:
 301:main.c        ****                 LED_ADC_Write(0); 
 621              		.loc 1 301 0 discriminator 3
 622 01c6 0020     		movs	r0, #0
 623 01c8 FFF7FEFF 		bl	LED_ADC_Write
 624              	.LVL70:
 302:main.c        ****                 LED_DAC_Write(0); 
 625              		.loc 1 302 0 discriminator 3
 626 01cc 0020     		movs	r0, #0
 627 01ce FFF7FEFF 		bl	LED_DAC_Write
 628              	.LVL71:
 303:main.c        ****                 CyDelay(500); 
 629              		.loc 1 303 0 discriminator 3
 630 01d2 4FF4FA70 		mov	r0, #500
 631 01d6 FFF7FEFF 		bl	CyDelay
 632              	.LVL72:
 297:main.c        ****                 LED_ADC_Write(1); 
 633              		.loc 1 297 0 discriminator 3
 634 01da 0134     		adds	r4, r4, #1
 635              	.LVL73:
 636 01dc 00E0     		b	.L40
 637              	.LVL74:
 638              	.L44:
 639              	.LBE6:
 640 01de 0024     		movs	r4, #0
 641              	.L40:
 642              	.LVL75:
 643              	.LBB7:
 297:main.c        ****                 LED_ADC_Write(1); 
 644              		.loc 1 297 0 is_stmt 0 discriminator 1
 645 01e0 042C     		cmp	r4, #4
 646 01e2 E6DD     		ble	.L42
 647              	.LBE7:
 304:main.c        ****             }  
 305:main.c        ****             finished_procedure_flag=0; 
 648              		.loc 1 305 0 is_stmt 1
 649 01e4 0022     		movs	r2, #0
 650 01e6 034B     		ldr	r3, .L46+8
 651 01e8 1A70     		strb	r2, [r3]
 652 01ea 58E7     		b	.L41
 653              	.L47:
 654              		.align	2
ARM GAS  C:\Users\ANNASP~1\AppData\Local\Temp\ccoGs3tP.s 			page 18


 655              	.L46:
 656 01ec 00000000 		.word	.LANCHOR0
 657 01f0 00000000 		.word	lut_index
 658 01f4 00000000 		.word	finished_procedure_flag
 659 01f8 00000000 		.word	dacInterrupt
 660 01fc 00000000 		.word	adcInterrupt
 661 0200 00000000 		.word	Custom_UART_BT_RX_Interrupt
 662 0204 00000000 		.word	data_buffer
 663 0208 00000000 		.word	data_to_send
 664 020c 00000000 		.word	data_long
 665 0210 00000000 		.word	tia_calibration_values
 666 0214 00000000 		.word	lut_length
 667              		.cfi_endproc
 668              	.LFE67:
 669              		.size	main, .-main
 670              		.comm	TIA_resistor_value_index,1,1
 671              		.comm	calibrate_array,20,4
 672              		.comm	finished_procedure_flag,1,1
 673              		.comm	data_long,5000,4
 674              		.comm	data_to_send,120,4
 675              		.comm	temp,20,4
 676              		.comm	data_buffer,20,4
 677              		.comm	selected_voltage_source,1,1
 678              		.comm	tia_calibration_values,21,4
 679              		.comm	lut_length,2,2
 680              		.comm	lut_index,2,2
 681              		.comm	waveform_lut,10010,4
 682              		.comm	lut_value,2,2
 683              		.comm	return_value,4,4
 684              		.comm	dac_ground_value,2,2
 685              		.bss
 686              		.set	.LANCHOR0,. + 0
 687              		.type	buffer_index, %object
 688              		.size	buffer_index, 1
 689              	buffer_index:
 690 0000 00       		.space	1
 691              		.type	input_flag, %object
 692              		.size	input_flag, 1
 693              	input_flag:
 694 0001 00       		.space	1
 695              		.type	connection_state, %object
 696              		.size	connection_state, 1
 697              	connection_state:
 698 0002 00       		.space	1
 699              		.text
 700              	.Letext0:
 701              		.file 2 "c:\\program files (x86)\\cypress\\psoc creator\\4.4\\psoc creator\\import\\gnu\\arm\\5.4.
 702              		.file 3 "c:\\program files (x86)\\cypress\\psoc creator\\4.4\\psoc creator\\import\\gnu\\arm\\5.4.
 703              		.file 4 "Generated_Source\\PSoC5/cytypes.h"
 704              		.file 5 "globals.h"
 705              		.file 6 "Generated_Source\\PSoC5/core_cm3.h"
 706              		.file 7 "parametric_lut.h"
 707              		.file 8 "BT_protocols.h"
 708              		.file 9 "TIA_calibrate.h"
 709              		.file 10 "user_inputs.h"
 710              		.file 11 "Generated_Source\\PSoC5/Opamp_Aux.h"
 711              		.file 12 "DAC_management.h"
ARM GAS  C:\Users\ANNASP~1\AppData\Local\Temp\ccoGs3tP.s 			page 19


 712              		.file 13 "Generated_Source\\PSoC5/LED_DAC.h"
 713              		.file 14 "Generated_Source\\PSoC5/LED_ADC.h"
 714              		.file 15 "Generated_Source\\PSoC5/isr_adc.h"
 715              		.file 16 "Generated_Source\\PSoC5/isr_dac.h"
 716              		.file 17 "Generated_Source\\PSoC5/UART_BT.h"
 717              		.file 18 "hardware_management.h"
 718              		.file 19 "Generated_Source\\PSoC5/ADC_SigDel.h"
 719              		.file 20 "Generated_Source\\PSoC5/CyLib.h"
 720              		.file 21 "Generated_Source\\PSoC5/isr_UART_BT_RX.h"
 721              		.file 22 "Generated_Source\\PSoC5/TIA.h"
 722              		.file 23 "Generated_Source\\PSoC5/EEPROM.h"