ARM GAS  C:\Users\ANNASP~1\AppData\Local\Temp\ccEhRN8j.s 			page 1


   1              		.syntax unified
   2              		.cpu cortex-m3
   3              		.fpu softvfp
   4              		.eabi_attribute 20, 1
   5              		.eabi_attribute 21, 1
   6              		.eabi_attribute 23, 3
   7              		.eabi_attribute 24, 1
   8              		.eabi_attribute 25, 1
   9              		.eabi_attribute 26, 1
  10              		.eabi_attribute 30, 1
  11              		.eabi_attribute 34, 1
  12              		.eabi_attribute 18, 4
  13              		.thumb
  14              		.syntax unified
  15              		.file	"parametric_lut.c"
  16              		.text
  17              	.Ltext0:
  18              		.cfi_sections	.debug_frame
  19              		.section	.text.LUT_make_line,"ax",%progbits
  20              		.align	2
  21              		.global	LUT_make_line
  22              		.thumb
  23              		.thumb_func
  24              		.type	LUT_make_line, %function
  25              	LUT_make_line:
  26              	.LFB2:
  27              		.file 1 "parametric_lut.c"
   1:parametric_lut.c **** /*******************************************************************************
   2:parametric_lut.c **** * File Name: lut_protocols.c
   3:parametric_lut.c **** *
   4:parametric_lut.c **** * Description:
   5:parametric_lut.c **** *  This file contains the protocols to create look up tables
   6:parametric_lut.c **** *
   7:parametric_lut.c **** **********************************************************************************
   8:parametric_lut.c ****  * Copyright Kyle Vitautas Lopin, Naresuan University, Phitsanulok Thailand
   9:parametric_lut.c ****  * Released under Creative Commons Attribution-ShareAlike  3.0 (CC BY-SA 3.0 US)
  10:parametric_lut.c **** *********************************************************************************/
  11:parametric_lut.c **** 
  12:parametric_lut.c **** #include "parametric_lut.h"
  13:parametric_lut.c **** 
  14:parametric_lut.c **** /******************************************************************************
  15:parametric_lut.c **** * Function Name: LUT_MakeTriangleWave
  16:parametric_lut.c **** *******************************************************************************
  17:parametric_lut.c **** *
  18:parametric_lut.c **** * Summary:
  19:parametric_lut.c **** *  Fill in the look up table (waveform_lut) for the DACs to perform a cyclic voltammetry experiment
  20:parametric_lut.c **** *  Start the CV protocol at the user defined start value
  21:parametric_lut.c **** *
  22:parametric_lut.c **** * Parameters:
  23:parametric_lut.c **** *  uint16_t start_value: first value to put in the dac
  24:parametric_lut.c **** *  uint16_t end_value: to peak dac value
  25:parametric_lut.c **** *
  26:parametric_lut.c **** * Return:
  27:parametric_lut.c **** *  uint16_t: how long the look up table is
  28:parametric_lut.c **** *
  29:parametric_lut.c **** * Global variables:
  30:parametric_lut.c **** *  waveform_lut: Array the look up table is stored in
ARM GAS  C:\Users\ANNASP~1\AppData\Local\Temp\ccEhRN8j.s 			page 2


  31:parametric_lut.c **** *
  32:parametric_lut.c **** *******************************************************************************/
  33:parametric_lut.c **** 
  34:parametric_lut.c **** uint16_t LUT_MakeTriangle_Wave(volatile uint8_t * data_buffer) {
  35:parametric_lut.c ****     uint8_t start_value  = data_buffer[2];
  36:parametric_lut.c ****     uint8_t end_value    = data_buffer[3];
  37:parametric_lut.c ****     uint8_t cv_type      = data_buffer[4];
  38:parametric_lut.c ****     
  39:parametric_lut.c ****     uint16_t _lut_index = 0;  // start at the beginning of the lut
  40:parametric_lut.c ****     
  41:parametric_lut.c ****     if(!cv_type) { //cv_type == 0 perform linear CV
  42:parametric_lut.c ****          _lut_index = LUT_make_line(start_value, end_value, 0); //retta da start a end salvata nell
  43:parametric_lut.c ****          _lut_index = LUT_make_line(end_value, start_value, _lut_index-1); //retta da end a start s
  44:parametric_lut.c ****     
  45:parametric_lut.c ****     } else{ // cv_type == 1 perform sqw  
  46:parametric_lut.c ****         uint8_t pulse_inc    = data_buffer[5];
  47:parametric_lut.c ****         uint8_t pulse_height = data_buffer[6];
  48:parametric_lut.c ****         _lut_index = LUT_make_swv_line(start_value, end_value, pulse_inc, pulse_height, 0); 
  49:parametric_lut.c ****         _lut_index = LUT_make_swv_line(end_value, start_value, pulse_inc, pulse_height, _lut_index-
  50:parametric_lut.c ****     }
  51:parametric_lut.c ****     waveform_lut[_lut_index] = start_value;  // the DAC is changed before the value is checked in t
  52:parametric_lut.c ****                                             // 1 over so make it stay at last voltage
  53:parametric_lut.c ****     _lut_index++;
  54:parametric_lut.c **** 
  55:parametric_lut.c ****     return _lut_index;  
  56:parametric_lut.c **** }
  57:parametric_lut.c **** 
  58:parametric_lut.c **** /******************************************************************************
  59:parametric_lut.c **** * Function Name: LUT_make_line
  60:parametric_lut.c **** *******************************************************************************
  61:parametric_lut.c **** *
  62:parametric_lut.c **** * Summary:
  63:parametric_lut.c **** *  Make a ramp from start to end in waveform_lut starting at index
  64:parametric_lut.c **** *  Does not matter if start or end is higher
  65:parametric_lut.c **** *
  66:parametric_lut.c **** * Parameters:
  67:parametric_lut.c **** *  uint16_t start: first value to put in the look up table
  68:parametric_lut.c **** *  uint16_t end: end value to put in the look up table
  69:parametric_lut.c **** *  uint16_t index: the place to start putting in numbers in the look up table
  70:parametric_lut.c **** *
  71:parametric_lut.c **** * Return:
  72:parametric_lut.c **** *  uint16_t: first place after the filled in area of the look up table
  73:parametric_lut.c **** *
  74:parametric_lut.c **** * Global variables:
  75:parametric_lut.c **** *  waveform_lut: Array the look up table is stored in
  76:parametric_lut.c **** *
  77:parametric_lut.c **** *******************************************************************************/
  78:parametric_lut.c **** 
  79:parametric_lut.c **** uint16_t LUT_make_line(uint16_t start, uint16_t end, uint16_t index) {
  28              		.loc 1 79 0
  29              		.cfi_startproc
  30              		@ args = 0, pretend = 0, frame = 0
  31              		@ frame_needed = 0, uses_anonymous_args = 0
  32              		@ link register save eliminated.
  33              	.LVL0:
  80:parametric_lut.c ****     //printf("start: %i, end: %i\n", start, end);
  81:parametric_lut.c ****     if (start < end) {
ARM GAS  C:\Users\ANNASP~1\AppData\Local\Temp\ccEhRN8j.s 			page 3


  34              		.loc 1 81 0
  35 0000 8842     		cmp	r0, r1
  36 0002 10D2     		bcs	.L2
  37              	.LBB2:
  82:parametric_lut.c ****         for (int16_t value = start; value <= end; value++) {
  38              		.loc 1 82 0
  39 0004 03B2     		sxth	r3, r0
  40              	.LVL1:
  41 0006 0BE0     		b	.L3
  42              	.LVL2:
  43              	.L5:
  83:parametric_lut.c ****             waveform_lut[index] = value;
  44              		.loc 1 83 0
  45 0008 9BB2     		uxth	r3, r3
  46 000a 1048     		ldr	r0, .L8
  47 000c 20F81230 		strh	r3, [r0, r2, lsl #1]	@ movhi
  84:parametric_lut.c ****             index ++;
  48              		.loc 1 84 0
  49 0010 0132     		adds	r2, r2, #1
  50              	.LVL3:
  51 0012 92B2     		uxth	r2, r2
  52              	.LVL4:
  85:parametric_lut.c ****             //printf("l: %i, %i\n", index, value);
  86:parametric_lut.c ****             if (index >= MAX_LUT_SIZE) { //questo sarebbe un errore da gestire, per ora non viene c
  53              		.loc 1 86 0
  54 0014 41F28730 		movw	r0, #4999
  55 0018 8242     		cmp	r2, r0
  56 001a 14D8     		bhi	.L4
  82:parametric_lut.c ****             waveform_lut[index] = value;
  57              		.loc 1 82 0 discriminator 2
  58 001c 0133     		adds	r3, r3, #1
  59              	.LVL5:
  60 001e 1BB2     		sxth	r3, r3
  61              	.LVL6:
  62              	.L3:
  82:parametric_lut.c ****             waveform_lut[index] = value;
  63              		.loc 1 82 0 is_stmt 0 discriminator 1
  64 0020 8B42     		cmp	r3, r1
  65 0022 F1DD     		ble	.L5
  66 0024 0FE0     		b	.L4
  67              	.LVL7:
  68              	.L2:
  69              	.LBE2:
  70              	.LBB3:
  87:parametric_lut.c ****                 return index;
  88:parametric_lut.c ****             }
  89:parametric_lut.c ****         }
  90:parametric_lut.c ****     }
  91:parametric_lut.c ****     else {
  92:parametric_lut.c ****         for (int16_t value = start; value >= end; value--) {
  71              		.loc 1 92 0 is_stmt 1
  72 0026 03B2     		sxth	r3, r0
  73              	.LVL8:
  74 0028 0BE0     		b	.L6
  75              	.LVL9:
  76              	.L7:
  93:parametric_lut.c ****             waveform_lut[index] = value;
ARM GAS  C:\Users\ANNASP~1\AppData\Local\Temp\ccEhRN8j.s 			page 4


  77              		.loc 1 93 0
  78 002a 9BB2     		uxth	r3, r3
  79 002c 0748     		ldr	r0, .L8
  80 002e 20F81230 		strh	r3, [r0, r2, lsl #1]	@ movhi
  94:parametric_lut.c ****             index ++;
  81              		.loc 1 94 0
  82 0032 0132     		adds	r2, r2, #1
  83              	.LVL10:
  84 0034 92B2     		uxth	r2, r2
  85              	.LVL11:
  95:parametric_lut.c ****             //printf("b: %i, %i\n", index, value);
  96:parametric_lut.c ****             if (index >= MAX_LUT_SIZE) {
  86              		.loc 1 96 0
  87 0036 41F28730 		movw	r0, #4999
  88 003a 8242     		cmp	r2, r0
  89 003c 03D8     		bhi	.L4
  92:parametric_lut.c ****             waveform_lut[index] = value;
  90              		.loc 1 92 0 discriminator 2
  91 003e 013B     		subs	r3, r3, #1
  92              	.LVL12:
  93 0040 1BB2     		sxth	r3, r3
  94              	.LVL13:
  95              	.L6:
  92:parametric_lut.c ****             waveform_lut[index] = value;
  96              		.loc 1 92 0 is_stmt 0 discriminator 1
  97 0042 8B42     		cmp	r3, r1
  98 0044 F1DA     		bge	.L7
  99              	.LVL14:
 100              	.L4:
 101              	.LBE3:
  97:parametric_lut.c ****                 return index;
  98:parametric_lut.c ****             }
  99:parametric_lut.c ****         }
 100:parametric_lut.c ****     }
 101:parametric_lut.c ****     //printf("m: %i\n", index);
 102:parametric_lut.c ****     return index;
 103:parametric_lut.c **** }
 102              		.loc 1 103 0 is_stmt 1
 103 0046 1046     		mov	r0, r2
 104 0048 7047     		bx	lr
 105              	.L9:
 106 004a 00BF     		.align	2
 107              	.L8:
 108 004c 00000000 		.word	waveform_lut
 109              		.cfi_endproc
 110              	.LFE2:
 111              		.size	LUT_make_line, .-LUT_make_line
 112              		.section	.text.LUT_make_swv_line,"ax",%progbits
 113              		.align	2
 114              		.global	LUT_make_swv_line
 115              		.thumb
 116              		.thumb_func
 117              		.type	LUT_make_swv_line, %function
 118              	LUT_make_swv_line:
 119              	.LFB3:
 104:parametric_lut.c **** 
 105:parametric_lut.c **** /******************************************************************************
ARM GAS  C:\Users\ANNASP~1\AppData\Local\Temp\ccEhRN8j.s 			page 5


 106:parametric_lut.c **** * Function Name: LUT_make_swv_side
 107:parametric_lut.c **** *******************************************************************************
 108:parametric_lut.c **** *
 109:parametric_lut.c **** * Summary:
 110:parametric_lut.c **** *  Make a ramp with a square wave super imposed, from start to end in waveform_lut
 111:parametric_lut.c **** *  starting at index
 112:parametric_lut.c **** *  Does not matter if start or end is higher
 113:parametric_lut.c **** *
 114:parametric_lut.c **** * Parameters:
 115:parametric_lut.c **** *  uint16_t start: first value to put in the look up table
 116:parametric_lut.c **** *  uint16_t end: end value to put in the look up table
 117:parametric_lut.c **** *  uint16_t pulse_inc: increment between the square pulse steps
 118:parametric_lut.c **** *  uint16_t pulse_height: height of each square wave pulse
 119:parametric_lut.c **** *  uint16_t index: the place to start putting in numbers in the look up table
 120:parametric_lut.c **** *
 121:parametric_lut.c **** * Return:
 122:parametric_lut.c **** *  uint16: first place after the filled in area of the look up table
 123:parametric_lut.c **** *
 124:parametric_lut.c **** * Global variables:
 125:parametric_lut.c **** *  waveform_lut: Array the look up table is stored in
 126:parametric_lut.c **** *
 127:parametric_lut.c **** *******************************************************************************/
 128:parametric_lut.c **** 
 129:parametric_lut.c **** uint16_t LUT_make_swv_line(uint16_t start, uint16_t end, uint16_t pulse_inc, uint16_t pulse_height,
 120              		.loc 1 129 0
 121              		.cfi_startproc
 122              		@ args = 4, pretend = 0, frame = 0
 123              		@ frame_needed = 0, uses_anonymous_args = 0
 124              	.LVL15:
 125 0000 2DE9F041 		push	{r4, r5, r6, r7, r8, lr}
 126              		.cfi_def_cfa_offset 24
 127              		.cfi_offset 4, -24
 128              		.cfi_offset 5, -20
 129              		.cfi_offset 6, -16
 130              		.cfi_offset 7, -12
 131              		.cfi_offset 8, -8
 132              		.cfi_offset 14, -4
 133 0004 BDF81840 		ldrh	r4, [sp, #24]
 130:parametric_lut.c ****     
 131:parametric_lut.c ****     if (index > MAX_LUT_SIZE) {
 134              		.loc 1 131 0
 135 0008 41F28836 		movw	r6, #5000
 136 000c B442     		cmp	r4, r6
 137 000e 3AD8     		bhi	.L11
 132:parametric_lut.c ****         return index;
 133:parametric_lut.c ****     }
 134:parametric_lut.c ****     uint16_t half_pulse = pulse_height / 2;
 138              		.loc 1 134 0
 139 0010 5D08     		lsrs	r5, r3, #1
 140              	.LVL16:
 135:parametric_lut.c ****     if (start < end) {
 141              		.loc 1 135 0
 142 0012 8842     		cmp	r0, r1
 143 0014 18D2     		bcs	.L12
 144              	.LBB4:
 136:parametric_lut.c ****         for (int16_t value = start; value <= end; value+=pulse_inc) {
 145              		.loc 1 136 0
ARM GAS  C:\Users\ANNASP~1\AppData\Local\Temp\ccEhRN8j.s 			page 6


 146 0016 00B2     		sxth	r0, r0
 147              	.LVL17:
 148 0018 13E0     		b	.L13
 149              	.LVL18:
 150              	.L14:
 137:parametric_lut.c ****             waveform_lut[index] = value + half_pulse;
 151              		.loc 1 137 0
 152 001a 80B2     		uxth	r0, r0
 153 001c 2B18     		adds	r3, r5, r0
 154 001e 9BB2     		uxth	r3, r3
 155 0020 1A4F     		ldr	r7, .L18
 156 0022 27F81430 		strh	r3, [r7, r4, lsl #1]	@ movhi
 138:parametric_lut.c ****             index ++;
 157              		.loc 1 138 0
 158 0026 631C     		adds	r3, r4, #1
 159 0028 9BB2     		uxth	r3, r3
 160              	.LVL19:
 139:parametric_lut.c ****             waveform_lut[index] = value - half_pulse;
 161              		.loc 1 139 0
 162 002a 461B     		subs	r6, r0, r5
 163 002c B6B2     		uxth	r6, r6
 164 002e 27F81360 		strh	r6, [r7, r3, lsl #1]	@ movhi
 140:parametric_lut.c ****             index ++;
 165              		.loc 1 140 0
 166 0032 0234     		adds	r4, r4, #2
 167 0034 A4B2     		uxth	r4, r4
 168              	.LVL20:
 141:parametric_lut.c ****             if (index > MAX_LUT_SIZE) {
 169              		.loc 1 141 0
 170 0036 41F28833 		movw	r3, #5000
 171 003a 9C42     		cmp	r4, r3
 172 003c 23D8     		bhi	.L11
 136:parametric_lut.c ****             waveform_lut[index] = value + half_pulse;
 173              		.loc 1 136 0 discriminator 2
 174 003e 1044     		add	r0, r0, r2
 175              	.LVL21:
 176 0040 00B2     		sxth	r0, r0
 177              	.LVL22:
 178              	.L13:
 136:parametric_lut.c ****             waveform_lut[index] = value + half_pulse;
 179              		.loc 1 136 0 is_stmt 0 discriminator 1
 180 0042 8842     		cmp	r0, r1
 181 0044 E9DD     		ble	.L14
 182 0046 1EE0     		b	.L11
 183              	.LVL23:
 184              	.L12:
 185 0048 9046     		mov	r8, r2
 186 004a 0F46     		mov	r7, r1
 187              	.LBE4:
 188              	.LBB5:
 142:parametric_lut.c ****                 break;
 143:parametric_lut.c ****             }
 144:parametric_lut.c ****         }
 145:parametric_lut.c ****     }
 146:parametric_lut.c ****     else {
 147:parametric_lut.c ****         for (int16_t value = start; value >= end; value-=pulse_inc) {
 189              		.loc 1 147 0 is_stmt 1
ARM GAS  C:\Users\ANNASP~1\AppData\Local\Temp\ccEhRN8j.s 			page 7


 190 004c 02B2     		sxth	r2, r0
 191              	.LVL24:
 192 004e 18E0     		b	.L15
 193              	.LVL25:
 194              	.L16:
 148:parametric_lut.c ****             waveform_lut[index] = value + half_pulse;
 195              		.loc 1 148 0
 196 0050 96B2     		uxth	r6, r2
 197 0052 AB19     		adds	r3, r5, r6
 198 0054 9BB2     		uxth	r3, r3
 199 0056 0D48     		ldr	r0, .L18
 200 0058 20F81430 		strh	r3, [r0, r4, lsl #1]	@ movhi
 149:parametric_lut.c ****             index ++;
 201              		.loc 1 149 0
 202 005c 631C     		adds	r3, r4, #1
 203 005e 9BB2     		uxth	r3, r3
 204              	.LVL26:
 150:parametric_lut.c ****             waveform_lut[index] = value - half_pulse;
 205              		.loc 1 150 0
 206 0060 711B     		subs	r1, r6, r5
 207 0062 89B2     		uxth	r1, r1
 208 0064 20F81310 		strh	r1, [r0, r3, lsl #1]	@ movhi
 151:parametric_lut.c ****             index ++;
 209              		.loc 1 151 0
 210 0068 0234     		adds	r4, r4, #2
 211 006a A4B2     		uxth	r4, r4
 212              	.LVL27:
 152:parametric_lut.c ****             printf("b: %i, %i\n", index, value);
 213              		.loc 1 152 0
 214 006c 2146     		mov	r1, r4
 215 006e 0848     		ldr	r0, .L18+4
 216 0070 FFF7FEFF 		bl	printf
 217              	.LVL28:
 153:parametric_lut.c ****             if (index > MAX_LUT_SIZE) {
 218              		.loc 1 153 0
 219 0074 41F28833 		movw	r3, #5000
 220 0078 9C42     		cmp	r4, r3
 221 007a 04D8     		bhi	.L11
 147:parametric_lut.c ****             waveform_lut[index] = value + half_pulse;
 222              		.loc 1 147 0 discriminator 2
 223 007c C8EB0602 		rsb	r2, r8, r6
 224 0080 12B2     		sxth	r2, r2
 225              	.LVL29:
 226              	.L15:
 147:parametric_lut.c ****             waveform_lut[index] = value + half_pulse;
 227              		.loc 1 147 0 is_stmt 0 discriminator 1
 228 0082 BA42     		cmp	r2, r7
 229 0084 E4DA     		bge	.L16
 230              	.LVL30:
 231              	.L11:
 232              	.LBE5:
 154:parametric_lut.c ****                 break;
 155:parametric_lut.c ****             }
 156:parametric_lut.c ****         }
 157:parametric_lut.c ****     }
 158:parametric_lut.c ****     return index;
 159:parametric_lut.c **** }
ARM GAS  C:\Users\ANNASP~1\AppData\Local\Temp\ccEhRN8j.s 			page 8


 233              		.loc 1 159 0 is_stmt 1
 234 0086 2046     		mov	r0, r4
 235 0088 BDE8F081 		pop	{r4, r5, r6, r7, r8, pc}
 236              	.L19:
 237              		.align	2
 238              	.L18:
 239 008c 00000000 		.word	waveform_lut
 240 0090 00000000 		.word	.LC0
 241              		.cfi_endproc
 242              	.LFE3:
 243              		.size	LUT_make_swv_line, .-LUT_make_swv_line
 244              		.section	.text.LUT_MakeTriangle_Wave,"ax",%progbits
 245              		.align	2
 246              		.global	LUT_MakeTriangle_Wave
 247              		.thumb
 248              		.thumb_func
 249              		.type	LUT_MakeTriangle_Wave, %function
 250              	LUT_MakeTriangle_Wave:
 251              	.LFB1:
  34:parametric_lut.c ****     uint8_t start_value  = data_buffer[2];
 252              		.loc 1 34 0
 253              		.cfi_startproc
 254              		@ args = 0, pretend = 0, frame = 0
 255              		@ frame_needed = 0, uses_anonymous_args = 0
 256              	.LVL31:
 257 0000 2DE9F041 		push	{r4, r5, r6, r7, r8, lr}
 258              		.cfi_def_cfa_offset 24
 259              		.cfi_offset 4, -24
 260              		.cfi_offset 5, -20
 261              		.cfi_offset 6, -16
 262              		.cfi_offset 7, -12
 263              		.cfi_offset 8, -8
 264              		.cfi_offset 14, -4
 265 0004 82B0     		sub	sp, sp, #8
 266              		.cfi_def_cfa_offset 32
  35:parametric_lut.c ****     uint8_t end_value    = data_buffer[3];
 267              		.loc 1 35 0
 268 0006 8478     		ldrb	r4, [r0, #2]	@ zero_extendqisi2
 269 0008 E4B2     		uxtb	r4, r4
 270              	.LVL32:
  36:parametric_lut.c ****     uint8_t cv_type      = data_buffer[4];
 271              		.loc 1 36 0
 272 000a C578     		ldrb	r5, [r0, #3]	@ zero_extendqisi2
 273 000c EDB2     		uxtb	r5, r5
 274              	.LVL33:
  37:parametric_lut.c ****     
 275              		.loc 1 37 0
 276 000e 0379     		ldrb	r3, [r0, #4]	@ zero_extendqisi2
 277              	.LVL34:
  41:parametric_lut.c ****          _lut_index = LUT_make_line(start_value, end_value, 0); //retta da start a end salvata nell
 278              		.loc 1 41 0
 279 0010 13F0FF0F 		tst	r3, #255
 280 0014 0DD1     		bne	.L21
  42:parametric_lut.c ****          _lut_index = LUT_make_line(end_value, start_value, _lut_index-1); //retta da end a start s
 281              		.loc 1 42 0
 282 0016 A6B2     		uxth	r6, r4
 283 0018 ADB2     		uxth	r5, r5
ARM GAS  C:\Users\ANNASP~1\AppData\Local\Temp\ccEhRN8j.s 			page 9


 284              	.LVL35:
 285 001a 0022     		movs	r2, #0
 286 001c 2946     		mov	r1, r5
 287 001e 3046     		mov	r0, r6
 288              	.LVL36:
 289 0020 FFF7FEFF 		bl	LUT_make_line
 290              	.LVL37:
  43:parametric_lut.c ****     
 291              		.loc 1 43 0
 292 0024 421E     		subs	r2, r0, #1
 293 0026 92B2     		uxth	r2, r2
 294 0028 3146     		mov	r1, r6
 295 002a 2846     		mov	r0, r5
 296              	.LVL38:
 297 002c FFF7FEFF 		bl	LUT_make_line
 298              	.LVL39:
 299 0030 15E0     		b	.L22
 300              	.LVL40:
 301              	.L21:
 302              	.LBB6:
  46:parametric_lut.c ****         uint8_t pulse_height = data_buffer[6];
 303              		.loc 1 46 0
 304 0032 4779     		ldrb	r7, [r0, #5]	@ zero_extendqisi2
 305              	.LVL41:
  47:parametric_lut.c ****         _lut_index = LUT_make_swv_line(start_value, end_value, pulse_inc, pulse_height, 0); 
 306              		.loc 1 47 0
 307 0034 90F80680 		ldrb	r8, [r0, #6]	@ zero_extendqisi2
 308              	.LVL42:
  48:parametric_lut.c ****         _lut_index = LUT_make_swv_line(end_value, start_value, pulse_inc, pulse_height, _lut_index-
 309              		.loc 1 48 0
 310 0038 A6B2     		uxth	r6, r4
 311 003a ADB2     		uxth	r5, r5
 312              	.LVL43:
 313 003c 0023     		movs	r3, #0
 314              	.LVL44:
 315 003e 0093     		str	r3, [sp]
 316 0040 4346     		mov	r3, r8
 317 0042 3A46     		mov	r2, r7
 318 0044 2946     		mov	r1, r5
 319 0046 3046     		mov	r0, r6
 320              	.LVL45:
 321 0048 FFF7FEFF 		bl	LUT_make_swv_line
 322              	.LVL46:
  49:parametric_lut.c ****     }
 323              		.loc 1 49 0
 324 004c 0138     		subs	r0, r0, #1
 325              	.LVL47:
 326 004e 80B2     		uxth	r0, r0
 327 0050 0090     		str	r0, [sp]
 328 0052 4346     		mov	r3, r8
 329 0054 3A46     		mov	r2, r7
 330 0056 3146     		mov	r1, r6
 331 0058 2846     		mov	r0, r5
 332 005a FFF7FEFF 		bl	LUT_make_swv_line
 333              	.LVL48:
 334              	.L22:
 335              	.LBE6:
ARM GAS  C:\Users\ANNASP~1\AppData\Local\Temp\ccEhRN8j.s 			page 10


  51:parametric_lut.c ****                                             // 1 over so make it stay at last voltage
 336              		.loc 1 51 0
 337 005e A4B2     		uxth	r4, r4
 338              	.LVL49:
 339 0060 034B     		ldr	r3, .L24
 340 0062 23F81040 		strh	r4, [r3, r0, lsl #1]	@ movhi
  53:parametric_lut.c **** 
 341              		.loc 1 53 0
 342 0066 0130     		adds	r0, r0, #1
 343              	.LVL50:
  56:parametric_lut.c **** 
 344              		.loc 1 56 0
 345 0068 80B2     		uxth	r0, r0
 346 006a 02B0     		add	sp, sp, #8
 347              		.cfi_def_cfa_offset 24
 348              		@ sp needed
 349 006c BDE8F081 		pop	{r4, r5, r6, r7, r8, pc}
 350              	.L25:
 351              		.align	2
 352              	.L24:
 353 0070 00000000 		.word	waveform_lut
 354              		.cfi_endproc
 355              	.LFE1:
 356              		.size	LUT_MakeTriangle_Wave, .-LUT_MakeTriangle_Wave
 357              		.section	.text.LUT_MakePulse,"ax",%progbits
 358              		.align	2
 359              		.global	LUT_MakePulse
 360              		.thumb
 361              		.thumb_func
 362              		.type	LUT_MakePulse, %function
 363              	LUT_MakePulse:
 364              	.LFB4:
 160:parametric_lut.c **** 
 161:parametric_lut.c **** /******************************************************************************
 162:parametric_lut.c **** * Function Name: LUT_MakePulse
 163:parametric_lut.c **** *******************************************************************************
 164:parametric_lut.c **** *
 165:parametric_lut.c **** * Summary:
 166:parametric_lut.c **** *  Make a look up table that stores a square pulse sequence
 167:parametric_lut.c **** *  Quick hack for chronoamperomerty
 168:parametric_lut.c **** *  TODO: THIS SHOULD BE REPLACED
 169:parametric_lut.c **** *
 170:parametric_lut.c **** * Parameters:
 171:parametric_lut.c **** *  uint16_t base: value to be placed in the DAC to maintain the baseline potential
 172:parametric_lut.c **** *  uint16_t pulse: value to put in the DAC for the voltage pulse
 173:parametric_lut.c **** *
 174:parametric_lut.c **** * Global variables:
 175:parametric_lut.c **** *  waveform_lut: Array the look up table is stored in
 176:parametric_lut.c **** *
 177:parametric_lut.c **** *******************************************************************************/
 178:parametric_lut.c **** 
 179:parametric_lut.c **** uint16_t LUT_MakePulse(uint16_t base, uint16_t pulse, uint16_t ca_period_ms) {
 365              		.loc 1 179 0
 366              		.cfi_startproc
 367              		@ args = 0, pretend = 0, frame = 0
 368              		@ frame_needed = 0, uses_anonymous_args = 0
 369              		@ link register save eliminated.
ARM GAS  C:\Users\ANNASP~1\AppData\Local\Temp\ccEhRN8j.s 			page 11


 370              	.LVL51:
 371 0000 10B4     		push	{r4}
 372              		.cfi_def_cfa_offset 4
 373              		.cfi_offset 4, -4
 374              	.LVL52:
 180:parametric_lut.c ****     int _lut_index = 0;
 181:parametric_lut.c ****     int counter_ca = ca_period_ms/(T_PWM_STD_CA/FREQ_CLOCK_PWM);
 375              		.loc 1 181 0
 376 0002 104B     		ldr	r3, .L34
 377 0004 A3FB0232 		umull	r3, r2, r3, r2
 378              	.LVL53:
 379 0008 D208     		lsrs	r2, r2, #3
 380              	.LVL54:
 180:parametric_lut.c ****     int _lut_index = 0;
 381              		.loc 1 180 0
 382 000a 0023     		movs	r3, #0
 182:parametric_lut.c ****     while (_lut_index < 20) { 
 383              		.loc 1 182 0
 384 000c 03E0     		b	.L27
 385              	.LVL55:
 386              	.L28:
 183:parametric_lut.c ****         waveform_lut[_lut_index] = base;
 387              		.loc 1 183 0
 388 000e 0E4C     		ldr	r4, .L34+4
 389 0010 24F81300 		strh	r0, [r4, r3, lsl #1]	@ movhi
 184:parametric_lut.c ****         _lut_index++;
 390              		.loc 1 184 0
 391 0014 0133     		adds	r3, r3, #1
 392              	.LVL56:
 393              	.L27:
 182:parametric_lut.c ****     while (_lut_index < 20) { 
 394              		.loc 1 182 0
 395 0016 132B     		cmp	r3, #19
 396 0018 F9DD     		ble	.L28
 397 001a 03E0     		b	.L29
 398              	.L30:
 185:parametric_lut.c ****     }
 186:parametric_lut.c ****     while (_lut_index < 20+counter_ca) {
 187:parametric_lut.c ****         waveform_lut[_lut_index] = pulse;
 399              		.loc 1 187 0
 400 001c 0A4C     		ldr	r4, .L34+4
 401 001e 24F81310 		strh	r1, [r4, r3, lsl #1]	@ movhi
 188:parametric_lut.c ****         _lut_index++;
 402              		.loc 1 188 0
 403 0022 0133     		adds	r3, r3, #1
 404              	.LVL57:
 405              	.L29:
 186:parametric_lut.c ****         waveform_lut[_lut_index] = pulse;
 406              		.loc 1 186 0
 407 0024 02F11404 		add	r4, r2, #20
 408 0028 A342     		cmp	r3, r4
 409 002a F7DB     		blt	.L30
 410 002c 03E0     		b	.L31
 411              	.LVL58:
 412              	.L32:
 189:parametric_lut.c ****     }
 190:parametric_lut.c ****     while (_lut_index < 40+counter_ca) { 
ARM GAS  C:\Users\ANNASP~1\AppData\Local\Temp\ccEhRN8j.s 			page 12


 191:parametric_lut.c ****         waveform_lut[_lut_index] = base;
 413              		.loc 1 191 0
 414 002e 0649     		ldr	r1, .L34+4
 415 0030 21F81300 		strh	r0, [r1, r3, lsl #1]	@ movhi
 192:parametric_lut.c ****         _lut_index++;
 416              		.loc 1 192 0
 417 0034 0133     		adds	r3, r3, #1
 418              	.LVL59:
 419              	.L31:
 190:parametric_lut.c ****         waveform_lut[_lut_index] = base;
 420              		.loc 1 190 0
 421 0036 02F12801 		add	r1, r2, #40
 422 003a 8B42     		cmp	r3, r1
 423 003c F7DB     		blt	.L32
 193:parametric_lut.c ****     }
 194:parametric_lut.c ****     return _lut_index;
 195:parametric_lut.c **** }
 424              		.loc 1 195 0
 425 003e 98B2     		uxth	r0, r3
 426              	.LVL60:
 427 0040 10BC     		pop	{r4}
 428              		.cfi_restore 4
 429              		.cfi_def_cfa_offset 0
 430 0042 7047     		bx	lr
 431              	.L35:
 432              		.align	2
 433              	.L34:
 434 0044 CDCCCCCC 		.word	-858993459
 435 0048 00000000 		.word	waveform_lut
 436              		.cfi_endproc
 437              	.LFE4:
 438              		.size	LUT_MakePulse, .-LUT_MakePulse
 439              		.comm	finished_procedure_flag,1,1
 440              		.comm	data_long,5000,4
 441              		.comm	data_to_send,120,4
 442              		.comm	temp,20,4
 443              		.comm	data_buffer,20,4
 444              		.comm	selected_voltage_source,1,1
 445              		.comm	tia_calibration_values,21,4
 446              		.comm	lut_length,2,2
 447              		.comm	lut_index,2,2
 448              		.comm	waveform_lut,10010,4
 449              		.comm	lut_value,2,2
 450              		.comm	return_value,4,4
 451              		.comm	dac_ground_value,2,2
 452              		.section	.rodata.str1.4,"aMS",%progbits,1
 453              		.align	2
 454              	.LC0:
 455 0000 623A2025 		.ascii	"b: %i, %i\012\000"
 455      692C2025 
 455      690A00
 456              		.bss
 457              		.type	input_flag, %object
 458              		.size	input_flag, 1
 459              	input_flag:
 460 0000 00       		.space	1
 461              		.type	connection_state, %object
ARM GAS  C:\Users\ANNASP~1\AppData\Local\Temp\ccEhRN8j.s 			page 13


 462              		.size	connection_state, 1
 463              	connection_state:
 464 0001 00       		.space	1
 465              		.type	buffer_index, %object
 466              		.size	buffer_index, 1
 467              	buffer_index:
 468 0002 00       		.space	1
 469              		.text
 470              	.Letext0:
 471              		.file 2 "c:\\program files (x86)\\cypress\\psoc creator\\4.4\\psoc creator\\import\\gnu\\arm\\5.4.
 472              		.file 3 "c:\\program files (x86)\\cypress\\psoc creator\\4.4\\psoc creator\\import\\gnu\\arm\\5.4.
 473              		.file 4 "Generated_Source\\PSoC5/cytypes.h"
 474              		.file 5 "globals.h"
 475              		.file 6 "parametric_lut.h"
 476              		.file 7 "c:\\program files (x86)\\cypress\\psoc creator\\4.4\\psoc creator\\import\\gnu\\arm\\5.4.