Archive member included to satisfy reference by file (symbol)

.\CortexM3\ARM_GCC_541\Debug\PSoC_Project.a(EEPROM.o)
                              .\CortexM3\ARM_GCC_541\Debug\main.o (EEPROM_Start)
.\CortexM3\ARM_GCC_541\Debug\PSoC_Project.a(isr_dac.o)
                              .\CortexM3\ARM_GCC_541\Debug\user_inputs.o (isr_dac_Enable)
.\CortexM3\ARM_GCC_541\Debug\PSoC_Project.a(isr_adc.o)
                              .\CortexM3\ARM_GCC_541\Debug\user_inputs.o (isr_adc_Enable)
.\CortexM3\ARM_GCC_541\Debug\PSoC_Project.a(isr_adcAmp.o)
                              .\CortexM3\ARM_GCC_541\Debug\user_inputs.o (isr_adcAmp_GetState)
.\CortexM3\ARM_GCC_541\Debug\PSoC_Project.a(AMux_TIA_resistor_bypass.o)
                              .\CortexM3\ARM_GCC_541\Debug\hardware_management.o (AMux_TIA_resistor_bypass_Start)
.\CortexM3\ARM_GCC_541\Debug\PSoC_Project.a(IDAC_calibrate.o)
                              .\CortexM3\ARM_GCC_541\Debug\TIA_calibrate.o (IDAC_calibrate_Stop)
.\CortexM3\ARM_GCC_541\Debug\PSoC_Project.a(AMux_TIA_input.o)
                              .\CortexM3\ARM_GCC_541\Debug\hardware_management.o (AMux_TIA_input_Start)
.\CortexM3\ARM_GCC_541\Debug\PSoC_Project.a(VDAC_TIA.o)
                              .\CortexM3\ARM_GCC_541\Debug\hardware_management.o (VDAC_TIA_Start)
.\CortexM3\ARM_GCC_541\Debug\PSoC_Project.a(VDAC_TIA_PM.o)
                              .\CortexM3\ARM_GCC_541\Debug\TIA_calibrate.o (VDAC_TIA_Sleep)
.\CortexM3\ARM_GCC_541\Debug\PSoC_Project.a(TIA.o)
                              .\CortexM3\ARM_GCC_541\Debug\main.o (TIA_SetResFB)
.\CortexM3\ARM_GCC_541\Debug\PSoC_Project.a(TIA_PM.o)
                              .\CortexM3\ARM_GCC_541\Debug\TIA_calibrate.o (TIA_Sleep)
.\CortexM3\ARM_GCC_541\Debug\PSoC_Project.a(UART_BT.o)
                              .\CortexM3\ARM_GCC_541\Debug\main.o (UART_BT_Start)
.\CortexM3\ARM_GCC_541\Debug\PSoC_Project.a(Opamp_Aux.o)
                              .\CortexM3\ARM_GCC_541\Debug\main.o (Opamp_Aux_Start)
.\CortexM3\ARM_GCC_541\Debug\PSoC_Project.a(Opamp_Aux_PM.o)
                              .\CortexM3\ARM_GCC_541\Debug\hardware_management.o (Opamp_Aux_Sleep)
.\CortexM3\ARM_GCC_541\Debug\PSoC_Project.a(AMux_electrode.o)
                              .\CortexM3\ARM_GCC_541\Debug\hardware_management.o (AMux_electrode_Start)
.\CortexM3\ARM_GCC_541\Debug\PSoC_Project.a(AMux_V_source.o)
                              .\CortexM3\ARM_GCC_541\Debug\hardware_management.o (AMux_V_source_Start)
.\CortexM3\ARM_GCC_541\Debug\PSoC_Project.a(DVDAC.o)
                              .\CortexM3\ARM_GCC_541\Debug\DAC_management.o (DVDAC_Start)
.\CortexM3\ARM_GCC_541\Debug\PSoC_Project.a(DVDAC_PM.o)
                              .\CortexM3\ARM_GCC_541\Debug\DAC_management.o (DVDAC_Sleep)
.\CortexM3\ARM_GCC_541\Debug\PSoC_Project.a(VDAC_source.o)
                              .\CortexM3\ARM_GCC_541\Debug\hardware_management.o (VDAC_source_Stop)
.\CortexM3\ARM_GCC_541\Debug\PSoC_Project.a(VDAC_source_PM.o)
                              .\CortexM3\ARM_GCC_541\Debug\DAC_management.o (VDAC_source_Sleep)
.\CortexM3\ARM_GCC_541\Debug\PSoC_Project.a(PWM_isr.o)
                              .\CortexM3\ARM_GCC_541\Debug\user_inputs.o (PWM_isr_WritePeriod)
.\CortexM3\ARM_GCC_541\Debug\PSoC_Project.a(PWM_isr_PM.o)
                              .\CortexM3\ARM_GCC_541\Debug\user_inputs.o (PWM_isr_Sleep)
.\CortexM3\ARM_GCC_541\Debug\PSoC_Project.a(UART_BT_IntClock.o)
                              .\CortexM3\ARM_GCC_541\Debug\PSoC_Project.a(UART_BT.o) (UART_BT_IntClock_Start)
.\CortexM3\ARM_GCC_541\Debug\PSoC_Project.a(DVDAC_DMA_dma.o)
                              .\CortexM3\ARM_GCC_541\Debug\PSoC_Project.a(DVDAC.o) (DVDAC_DMA_DmaInitialize)
.\CortexM3\ARM_GCC_541\Debug\PSoC_Project.a(DVDAC_VDAC8.o)
                              .\CortexM3\ARM_GCC_541\Debug\PSoC_Project.a(DVDAC.o) (DVDAC_VDAC8_Enable)
.\CortexM3\ARM_GCC_541\Debug\PSoC_Project.a(DVDAC_VDAC8_PM.o)
                              .\CortexM3\ARM_GCC_541\Debug\PSoC_Project.a(DVDAC_PM.o) (DVDAC_VDAC8_SaveConfig)
.\CortexM3\ARM_GCC_541\Debug\PSoC_Project.a(DVDAC_IntClock.o)
                              .\CortexM3\ARM_GCC_541\Debug\PSoC_Project.a(DVDAC.o) (DVDAC_IntClock_Start)
.\CortexM3\ARM_GCC_541\Debug\PSoC_Project.a(CyDmac.o)
                              .\CortexM3\ARM_GCC_541\Debug\Cm3Start.o (CyDmacConfigure)
.\CortexM3\ARM_GCC_541\Debug\PSoC_Project.a(CyFlash.o)
                              .\CortexM3\ARM_GCC_541\Debug\PSoC_Project.a(EEPROM.o) (dieTemperature)
.\CortexM3\ARM_GCC_541\Debug\PSoC_Project.a(CyLib.o)
                              .\CortexM3\ARM_GCC_541\Debug\Cm3Start.o (CyHalt)
.\CortexM3\ARM_GCC_541\Debug\PSoC_Project.a(cyPm.o)
                              .\CortexM3\ARM_GCC_541\Debug\PSoC_Project.a(CyLib.o) (CyPmReadStatus)
.\CortexM3\ARM_GCC_541\Debug\PSoC_Project.a(CySpc.o)
                              .\CortexM3\ARM_GCC_541\Debug\PSoC_Project.a(EEPROM.o) (CySpcStart)
.\CortexM3\ARM_GCC_541\Debug\PSoC_Project.a(ADC_SigDel.o)
                              .\CortexM3\ARM_GCC_541\Debug\user_inputs.o (ADC_SigDel_Start)
.\CortexM3\ARM_GCC_541\Debug\PSoC_Project.a(ADC_SigDel_PM.o)
                              .\CortexM3\ARM_GCC_541\Debug\TIA_calibrate.o (ADC_SigDel_Sleep)
.\CortexM3\ARM_GCC_541\Debug\PSoC_Project.a(ADC_SigDel_INT.o)
                              .\CortexM3\ARM_GCC_541\Debug\PSoC_Project.a(ADC_SigDel.o) (ADC_SigDel_ISR1)
.\CortexM3\ARM_GCC_541\Debug\PSoC_Project.a(ADC_SigDel_Ext_CP_Clk.o)
                              .\CortexM3\ARM_GCC_541\Debug\PSoC_Project.a(ADC_SigDel.o) (ADC_SigDel_Ext_CP_Clk_SetModeRegister)
.\CortexM3\ARM_GCC_541\Debug\PSoC_Project.a(ADC_SigDel_theACLK.o)
                              .\CortexM3\ARM_GCC_541\Debug\PSoC_Project.a(ADC_SigDel.o) (ADC_SigDel_theACLK_SetModeRegister)
.\CortexM3\ARM_GCC_541\Debug\PSoC_Project.a(isr_UART_BT_RX.o)
                              .\CortexM3\ARM_GCC_541\Debug\main.o (isr_UART_BT_RX_StartEx)
.\CortexM3\ARM_GCC_541\Debug\PSoC_Project.a(LED_DAC.o)
                              .\CortexM3\ARM_GCC_541\Debug\main.o (LED_DAC_Write)
.\CortexM3\ARM_GCC_541\Debug\PSoC_Project.a(LED_ADC.o)
                              .\CortexM3\ARM_GCC_541\Debug\main.o (LED_ADC_Write)
.\CortexM3\ARM_GCC_541\Debug\PSoC_Project.a(CyBootAsmGnu.o)
                              .\CortexM3\ARM_GCC_541\Debug\cyfitter_cfg.o (CyDelayCycles)
c:/program files (x86)/cypress/psoc creator/4.4/psoc creator/import/gnu/arm/5.4.1/bin/../lib/gcc/arm-none-eabi/5.4.1/armv7-m\libgcc.a(_arm_addsubdf3.o)
                              .\CortexM3\ARM_GCC_541\Debug\TIA_calibrate.o (__aeabi_i2d)
c:/program files (x86)/cypress/psoc creator/4.4/psoc creator/import/gnu/arm/5.4.1/bin/../lib/gcc/arm-none-eabi/5.4.1/armv7-m\libgcc.a(_arm_muldivdf3.o)
                              .\CortexM3\ARM_GCC_541\Debug\TIA_calibrate.o (__aeabi_ddiv)
c:/program files (x86)/cypress/psoc creator/4.4/psoc creator/import/gnu/arm/5.4.1/bin/../lib/gcc/arm-none-eabi/5.4.1/armv7-m\libgcc.a(_arm_cmpdf2.o)
                              .\CortexM3\ARM_GCC_541\Debug\PSoC_Project.a(ADC_SigDel.o) (__aeabi_dcmpgt)
c:/program files (x86)/cypress/psoc creator/4.4/psoc creator/import/gnu/arm/5.4.1/bin/../lib/gcc/arm-none-eabi/5.4.1/armv7-m\libgcc.a(_arm_truncdfsf2.o)
                              .\CortexM3\ARM_GCC_541\Debug\TIA_calibrate.o (__aeabi_d2f)
c:/program files (x86)/cypress/psoc creator/4.4/psoc creator/import/gnu/arm/5.4.1/bin/../lib/gcc/arm-none-eabi/5.4.1/armv7-m\libgcc.a(_arm_addsubsf3.o)
                              .\CortexM3\ARM_GCC_541\Debug\PSoC_Project.a(ADC_SigDel.o) (__aeabi_ui2f)
c:/program files (x86)/cypress/psoc creator/4.4/psoc creator/import/gnu/arm/5.4.1/bin/../lib/gcc/arm-none-eabi/5.4.1/armv7-m\libgcc.a(_arm_muldivsf3.o)
                              .\CortexM3\ARM_GCC_541\Debug\PSoC_Project.a(ADC_SigDel.o) (__aeabi_fmul)
c:/program files (x86)/cypress/psoc creator/4.4/psoc creator/import/gnu/arm/5.4.1/bin/../lib/gcc/arm-none-eabi/5.4.1/armv7-m\libgcc.a(_arm_fixsfsi.o)
                              .\CortexM3\ARM_GCC_541\Debug\TIA_calibrate.o (__aeabi_f2iz)
c:/program files (x86)/cypress/psoc creator/4.4/psoc creator/import/gnu/arm/5.4.1/bin/../lib/gcc/arm-none-eabi/5.4.1/armv7-m\libgcc.a(_arm_fixunssfsi.o)
                              .\CortexM3\ARM_GCC_541\Debug\PSoC_Project.a(ADC_SigDel.o) (__aeabi_f2uiz)
c:/program files (x86)/cypress/psoc creator/4.4/psoc creator/import/gnu/arm/5.4.1/bin/../lib/gcc/arm-none-eabi/5.4.1/../../../../arm-none-eabi/lib/armv7-m\libg_nano.a(lib_a-errno.o)
                              .\CortexM3\ARM_GCC_541\Debug\Cm3Start.o (__errno)
c:/program files (x86)/cypress/psoc creator/4.4/psoc creator/import/gnu/arm/5.4.1/bin/../lib/gcc/arm-none-eabi/5.4.1/../../../../arm-none-eabi/lib/armv7-m\libg_nano.a(lib_a-exit.o)
                              c:/program files (x86)/cypress/psoc creator/4.4/psoc creator/import/gnu/arm/5.4.1/bin/../lib/gcc/arm-none-eabi/5.4.1/../../../../arm-none-eabi/lib/armv7-m/crt0.o (exit)
c:/program files (x86)/cypress/psoc creator/4.4/psoc creator/import/gnu/arm/5.4.1/bin/../lib/gcc/arm-none-eabi/5.4.1/../../../../arm-none-eabi/lib/armv7-m\libg_nano.a(lib_a-impure.o)
                              c:/program files (x86)/cypress/psoc creator/4.4/psoc creator/import/gnu/arm/5.4.1/bin/../lib/gcc/arm-none-eabi/5.4.1/../../../../arm-none-eabi/lib/armv7-m\libg_nano.a(lib_a-exit.o) (_global_impure_ptr)
c:/program files (x86)/cypress/psoc creator/4.4/psoc creator/import/gnu/arm/5.4.1/bin/../lib/gcc/arm-none-eabi/5.4.1/../../../../arm-none-eabi/lib/armv7-m\libg_nano.a(lib_a-init.o)
                              c:/program files (x86)/cypress/psoc creator/4.4/psoc creator/import/gnu/arm/5.4.1/bin/../lib/gcc/arm-none-eabi/5.4.1/../../../../arm-none-eabi/lib/armv7-m/crt0.o (__libc_init_array)
c:/program files (x86)/cypress/psoc creator/4.4/psoc creator/import/gnu/arm/5.4.1/bin/../lib/gcc/arm-none-eabi/5.4.1/../../../../arm-none-eabi/lib/armv7-m\libg_nano.a(lib_a-memcpy-stub.o)
                              .\CortexM3\ARM_GCC_541\Debug\cyfitter_cfg.o (memcpy)
c:/program files (x86)/cypress/psoc creator/4.4/psoc creator/import/gnu/arm/5.4.1/bin/../lib/gcc/arm-none-eabi/5.4.1/../../../../arm-none-eabi/lib/armv7-m\libg_nano.a(lib_a-memset.o)
                              c:/program files (x86)/cypress/psoc creator/4.4/psoc creator/import/gnu/arm/5.4.1/bin/../lib/gcc/arm-none-eabi/5.4.1/../../../../arm-none-eabi/lib/armv7-m/crt0.o (memset)
c:/program files (x86)/cypress/psoc creator/4.4/psoc creator/import/gnu/arm/5.4.1/bin/../lib/gcc/arm-none-eabi/5.4.1/../../../../arm-none-eabi/lib/armv7-m\libg_nano.a(lib_a-printf.o)
                              .\CortexM3\ARM_GCC_541\Debug\parametric_lut.o (printf)
c:/program files (x86)/cypress/psoc creator/4.4/psoc creator/import/gnu/arm/5.4.1/bin/../lib/gcc/arm-none-eabi/5.4.1/../../../../arm-none-eabi/lib/armv7-m\libg_nano.a(lib_a-findfp.o)
                              c:/program files (x86)/cypress/psoc creator/4.4/psoc creator/import/gnu/arm/5.4.1/bin/../lib/gcc/arm-none-eabi/5.4.1/../../../../arm-none-eabi/lib/armv7-m\libg_nano.a(lib_a-printf.o) (__sinit)
c:/program files (x86)/cypress/psoc creator/4.4/psoc creator/import/gnu/arm/5.4.1/bin/../lib/gcc/arm-none-eabi/5.4.1/../../../../arm-none-eabi/lib/armv7-m\libg_nano.a(lib_a-fwalk.o)
                              c:/program files (x86)/cypress/psoc creator/4.4/psoc creator/import/gnu/arm/5.4.1/bin/../lib/gcc/arm-none-eabi/5.4.1/../../../../arm-none-eabi/lib/armv7-m\libg_nano.a(lib_a-findfp.o) (_fwalk)
c:/program files (x86)/cypress/psoc creator/4.4/psoc creator/import/gnu/arm/5.4.1/bin/../lib/gcc/arm-none-eabi/5.4.1/../../../../arm-none-eabi/lib/armv7-m\libg_nano.a(lib_a-nano-mallocr.o)
                              c:/program files (x86)/cypress/psoc creator/4.4/psoc creator/import/gnu/arm/5.4.1/bin/../lib/gcc/arm-none-eabi/5.4.1/../../../../arm-none-eabi/lib/armv7-m\libg_nano.a(lib_a-findfp.o) (_malloc_r)
c:/program files (x86)/cypress/psoc creator/4.4/psoc creator/import/gnu/arm/5.4.1/bin/../lib/gcc/arm-none-eabi/5.4.1/../../../../arm-none-eabi/lib/armv7-m\libg_nano.a(lib_a-nano-vfprintf.o)
                              c:/program files (x86)/cypress/psoc creator/4.4/psoc creator/import/gnu/arm/5.4.1/bin/../lib/gcc/arm-none-eabi/5.4.1/../../../../arm-none-eabi/lib/armv7-m\libg_nano.a(lib_a-printf.o) (_vfprintf_r)
c:/program files (x86)/cypress/psoc creator/4.4/psoc creator/import/gnu/arm/5.4.1/bin/../lib/gcc/arm-none-eabi/5.4.1/../../../../arm-none-eabi/lib/armv7-m\libg_nano.a(lib_a-nano-vfprintf_i.o)
                              c:/program files (x86)/cypress/psoc creator/4.4/psoc creator/import/gnu/arm/5.4.1/bin/../lib/gcc/arm-none-eabi/5.4.1/../../../../arm-none-eabi/lib/armv7-m\libg_nano.a(lib_a-nano-vfprintf.o) (_printf_i)
c:/program files (x86)/cypress/psoc creator/4.4/psoc creator/import/gnu/arm/5.4.1/bin/../lib/gcc/arm-none-eabi/5.4.1/../../../../arm-none-eabi/lib/armv7-m\libg_nano.a(lib_a-sbrkr.o)
                              c:/program files (x86)/cypress/psoc creator/4.4/psoc creator/import/gnu/arm/5.4.1/bin/../lib/gcc/arm-none-eabi/5.4.1/../../../../arm-none-eabi/lib/armv7-m\libg_nano.a(lib_a-nano-mallocr.o) (_sbrk_r)
c:/program files (x86)/cypress/psoc creator/4.4/psoc creator/import/gnu/arm/5.4.1/bin/../lib/gcc/arm-none-eabi/5.4.1/../../../../arm-none-eabi/lib/armv7-m\libg_nano.a(lib_a-stdio.o)
                              c:/program files (x86)/cypress/psoc creator/4.4/psoc creator/import/gnu/arm/5.4.1/bin/../lib/gcc/arm-none-eabi/5.4.1/../../../../arm-none-eabi/lib/armv7-m\libg_nano.a(lib_a-findfp.o) (__sread)
c:/program files (x86)/cypress/psoc creator/4.4/psoc creator/import/gnu/arm/5.4.1/bin/../lib/gcc/arm-none-eabi/5.4.1/../../../../arm-none-eabi/lib/armv7-m\libg_nano.a(lib_a-wbuf.o)
                              c:/program files (x86)/cypress/psoc creator/4.4/psoc creator/import/gnu/arm/5.4.1/bin/../lib/gcc/arm-none-eabi/5.4.1/../../../../arm-none-eabi/lib/armv7-m\libg_nano.a(lib_a-nano-vfprintf.o) (__swbuf_r)
c:/program files (x86)/cypress/psoc creator/4.4/psoc creator/import/gnu/arm/5.4.1/bin/../lib/gcc/arm-none-eabi/5.4.1/../../../../arm-none-eabi/lib/armv7-m\libg_nano.a(lib_a-writer.o)
                              c:/program files (x86)/cypress/psoc creator/4.4/psoc creator/import/gnu/arm/5.4.1/bin/../lib/gcc/arm-none-eabi/5.4.1/../../../../arm-none-eabi/lib/armv7-m\libg_nano.a(lib_a-stdio.o) (_write_r)
c:/program files (x86)/cypress/psoc creator/4.4/psoc creator/import/gnu/arm/5.4.1/bin/../lib/gcc/arm-none-eabi/5.4.1/../../../../arm-none-eabi/lib/armv7-m\libg_nano.a(lib_a-wsetup.o)
                              c:/program files (x86)/cypress/psoc creator/4.4/psoc creator/import/gnu/arm/5.4.1/bin/../lib/gcc/arm-none-eabi/5.4.1/../../../../arm-none-eabi/lib/armv7-m\libg_nano.a(lib_a-nano-vfprintf.o) (__swsetup_r)
c:/program files (x86)/cypress/psoc creator/4.4/psoc creator/import/gnu/arm/5.4.1/bin/../lib/gcc/arm-none-eabi/5.4.1/../../../../arm-none-eabi/lib/armv7-m\libg_nano.a(lib_a-closer.o)
                              c:/program files (x86)/cypress/psoc creator/4.4/psoc creator/import/gnu/arm/5.4.1/bin/../lib/gcc/arm-none-eabi/5.4.1/../../../../arm-none-eabi/lib/armv7-m\libg_nano.a(lib_a-stdio.o) (_close_r)
c:/program files (x86)/cypress/psoc creator/4.4/psoc creator/import/gnu/arm/5.4.1/bin/../lib/gcc/arm-none-eabi/5.4.1/../../../../arm-none-eabi/lib/armv7-m\libg_nano.a(lib_a-fflush.o)
                              c:/program files (x86)/cypress/psoc creator/4.4/psoc creator/import/gnu/arm/5.4.1/bin/../lib/gcc/arm-none-eabi/5.4.1/../../../../arm-none-eabi/lib/armv7-m\libg_nano.a(lib_a-findfp.o) (_fflush_r)
c:/program files (x86)/cypress/psoc creator/4.4/psoc creator/import/gnu/arm/5.4.1/bin/../lib/gcc/arm-none-eabi/5.4.1/../../../../arm-none-eabi/lib/armv7-m\libg_nano.a(lib_a-fvwrite.o)
                              c:/program files (x86)/cypress/psoc creator/4.4/psoc creator/import/gnu/arm/5.4.1/bin/../lib/gcc/arm-none-eabi/5.4.1/../../../../arm-none-eabi/lib/armv7-m\libg_nano.a(lib_a-nano-vfprintf.o) (__sfvwrite_r)
c:/program files (x86)/cypress/psoc creator/4.4/psoc creator/import/gnu/arm/5.4.1/bin/../lib/gcc/arm-none-eabi/5.4.1/../../../../arm-none-eabi/lib/armv7-m\libg_nano.a(lib_a-lseekr.o)
                              c:/program files (x86)/cypress/psoc creator/4.4/psoc creator/import/gnu/arm/5.4.1/bin/../lib/gcc/arm-none-eabi/5.4.1/../../../../arm-none-eabi/lib/armv7-m\libg_nano.a(lib_a-stdio.o) (_lseek_r)
c:/program files (x86)/cypress/psoc creator/4.4/psoc creator/import/gnu/arm/5.4.1/bin/../lib/gcc/arm-none-eabi/5.4.1/../../../../arm-none-eabi/lib/armv7-m\libg_nano.a(lib_a-makebuf.o)
                              c:/program files (x86)/cypress/psoc creator/4.4/psoc creator/import/gnu/arm/5.4.1/bin/../lib/gcc/arm-none-eabi/5.4.1/../../../../arm-none-eabi/lib/armv7-m\libg_nano.a(lib_a-wsetup.o) (__smakebuf_r)
c:/program files (x86)/cypress/psoc creator/4.4/psoc creator/import/gnu/arm/5.4.1/bin/../lib/gcc/arm-none-eabi/5.4.1/../../../../arm-none-eabi/lib/armv7-m\libg_nano.a(lib_a-memchr-stub.o)
                              c:/program files (x86)/cypress/psoc creator/4.4/psoc creator/import/gnu/arm/5.4.1/bin/../lib/gcc/arm-none-eabi/5.4.1/../../../../arm-none-eabi/lib/armv7-m\libg_nano.a(lib_a-nano-vfprintf.o) (memchr)
c:/program files (x86)/cypress/psoc creator/4.4/psoc creator/import/gnu/arm/5.4.1/bin/../lib/gcc/arm-none-eabi/5.4.1/../../../../arm-none-eabi/lib/armv7-m\libg_nano.a(lib_a-memmove.o)
                              c:/program files (x86)/cypress/psoc creator/4.4/psoc creator/import/gnu/arm/5.4.1/bin/../lib/gcc/arm-none-eabi/5.4.1/../../../../arm-none-eabi/lib/armv7-m\libg_nano.a(lib_a-fvwrite.o) (memmove)
c:/program files (x86)/cypress/psoc creator/4.4/psoc creator/import/gnu/arm/5.4.1/bin/../lib/gcc/arm-none-eabi/5.4.1/../../../../arm-none-eabi/lib/armv7-m\libg_nano.a(lib_a-mlock.o)
                              c:/program files (x86)/cypress/psoc creator/4.4/psoc creator/import/gnu/arm/5.4.1/bin/../lib/gcc/arm-none-eabi/5.4.1/../../../../arm-none-eabi/lib/armv7-m\libg_nano.a(lib_a-nano-mallocr.o) (__malloc_lock)
c:/program files (x86)/cypress/psoc creator/4.4/psoc creator/import/gnu/arm/5.4.1/bin/../lib/gcc/arm-none-eabi/5.4.1/../../../../arm-none-eabi/lib/armv7-m\libg_nano.a(lib_a-nano-freer.o)
                              c:/program files (x86)/cypress/psoc creator/4.4/psoc creator/import/gnu/arm/5.4.1/bin/../lib/gcc/arm-none-eabi/5.4.1/../../../../arm-none-eabi/lib/armv7-m\libg_nano.a(lib_a-wsetup.o) (_free_r)
c:/program files (x86)/cypress/psoc creator/4.4/psoc creator/import/gnu/arm/5.4.1/bin/../lib/gcc/arm-none-eabi/5.4.1/../../../../arm-none-eabi/lib/armv7-m\libg_nano.a(lib_a-nano-reallocr.o)
                              c:/program files (x86)/cypress/psoc creator/4.4/psoc creator/import/gnu/arm/5.4.1/bin/../lib/gcc/arm-none-eabi/5.4.1/../../../../arm-none-eabi/lib/armv7-m\libg_nano.a(lib_a-fvwrite.o) (_realloc_r)
c:/program files (x86)/cypress/psoc creator/4.4/psoc creator/import/gnu/arm/5.4.1/bin/../lib/gcc/arm-none-eabi/5.4.1/../../../../arm-none-eabi/lib/armv7-m\libg_nano.a(lib_a-readr.o)
                              c:/program files (x86)/cypress/psoc creator/4.4/psoc creator/import/gnu/arm/5.4.1/bin/../lib/gcc/arm-none-eabi/5.4.1/../../../../arm-none-eabi/lib/armv7-m\libg_nano.a(lib_a-stdio.o) (_read_r)
c:/program files (x86)/cypress/psoc creator/4.4/psoc creator/import/gnu/arm/5.4.1/bin/../lib/gcc/arm-none-eabi/5.4.1/../../../../arm-none-eabi/lib/armv7-m\libg_nano.a(lib_a-reent.o)
                              c:/program files (x86)/cypress/psoc creator/4.4/psoc creator/import/gnu/arm/5.4.1/bin/../lib/gcc/arm-none-eabi/5.4.1/../../../../arm-none-eabi/lib/armv7-m\libg_nano.a(lib_a-sbrkr.o) (errno)
c:/program files (x86)/cypress/psoc creator/4.4/psoc creator/import/gnu/arm/5.4.1/bin/../lib/gcc/arm-none-eabi/5.4.1/../../../../arm-none-eabi/lib/armv7-m\libg_nano.a(lib_a-fstatr.o)
                              c:/program files (x86)/cypress/psoc creator/4.4/psoc creator/import/gnu/arm/5.4.1/bin/../lib/gcc/arm-none-eabi/5.4.1/../../../../arm-none-eabi/lib/armv7-m\libg_nano.a(lib_a-makebuf.o) (_fstat_r)
c:/program files (x86)/cypress/psoc creator/4.4/psoc creator/import/gnu/arm/5.4.1/bin/../lib/gcc/arm-none-eabi/5.4.1/../../../../arm-none-eabi/lib/armv7-m\libg_nano.a(lib_a-isattyr.o)
                              c:/program files (x86)/cypress/psoc creator/4.4/psoc creator/import/gnu/arm/5.4.1/bin/../lib/gcc/arm-none-eabi/5.4.1/../../../../arm-none-eabi/lib/armv7-m\libg_nano.a(lib_a-makebuf.o) (_isatty_r)
c:/program files (x86)/cypress/psoc creator/4.4/psoc creator/import/gnu/arm/5.4.1/bin/../lib/gcc/arm-none-eabi/5.4.1/../../../../arm-none-eabi/lib/armv7-m\libg_nano.a(lib_a-nano-msizer.o)
                              c:/program files (x86)/cypress/psoc creator/4.4/psoc creator/import/gnu/arm/5.4.1/bin/../lib/gcc/arm-none-eabi/5.4.1/../../../../arm-none-eabi/lib/armv7-m\libg_nano.a(lib_a-nano-reallocr.o) (_malloc_usable_size_r)
c:/program files (x86)/cypress/psoc creator/4.4/psoc creator/import/gnu/arm/5.4.1/bin/../lib/gcc/arm-none-eabi/5.4.1/../../../../arm-none-eabi/lib/armv7-m\libnosys.a(close.o)
                              c:/program files (x86)/cypress/psoc creator/4.4/psoc creator/import/gnu/arm/5.4.1/bin/../lib/gcc/arm-none-eabi/5.4.1/../../../../arm-none-eabi/lib/armv7-m\libg_nano.a(lib_a-closer.o) (_close)
c:/program files (x86)/cypress/psoc creator/4.4/psoc creator/import/gnu/arm/5.4.1/bin/../lib/gcc/arm-none-eabi/5.4.1/../../../../arm-none-eabi/lib/armv7-m\libnosys.a(fstat.o)
                              c:/program files (x86)/cypress/psoc creator/4.4/psoc creator/import/gnu/arm/5.4.1/bin/../lib/gcc/arm-none-eabi/5.4.1/../../../../arm-none-eabi/lib/armv7-m\libg_nano.a(lib_a-fstatr.o) (_fstat)
c:/program files (x86)/cypress/psoc creator/4.4/psoc creator/import/gnu/arm/5.4.1/bin/../lib/gcc/arm-none-eabi/5.4.1/../../../../arm-none-eabi/lib/armv7-m\libnosys.a(isatty.o)
                              c:/program files (x86)/cypress/psoc creator/4.4/psoc creator/import/gnu/arm/5.4.1/bin/../lib/gcc/arm-none-eabi/5.4.1/../../../../arm-none-eabi/lib/armv7-m\libg_nano.a(lib_a-isattyr.o) (_isatty)
c:/program files (x86)/cypress/psoc creator/4.4/psoc creator/import/gnu/arm/5.4.1/bin/../lib/gcc/arm-none-eabi/5.4.1/../../../../arm-none-eabi/lib/armv7-m\libnosys.a(lseek.o)
                              c:/program files (x86)/cypress/psoc creator/4.4/psoc creator/import/gnu/arm/5.4.1/bin/../lib/gcc/arm-none-eabi/5.4.1/../../../../arm-none-eabi/lib/armv7-m\libg_nano.a(lib_a-lseekr.o) (_lseek)
c:/program files (x86)/cypress/psoc creator/4.4/psoc creator/import/gnu/arm/5.4.1/bin/../lib/gcc/arm-none-eabi/5.4.1/../../../../arm-none-eabi/lib/armv7-m\libnosys.a(read.o)
                              c:/program files (x86)/cypress/psoc creator/4.4/psoc creator/import/gnu/arm/5.4.1/bin/../lib/gcc/arm-none-eabi/5.4.1/../../../../arm-none-eabi/lib/armv7-m\libg_nano.a(lib_a-readr.o) (_read)
c:/program files (x86)/cypress/psoc creator/4.4/psoc creator/import/gnu/arm/5.4.1/bin/../lib/gcc/arm-none-eabi/5.4.1/../../../../arm-none-eabi/lib/armv7-m\libnosys.a(write.o)
                              c:/program files (x86)/cypress/psoc creator/4.4/psoc creator/import/gnu/arm/5.4.1/bin/../lib/gcc/arm-none-eabi/5.4.1/../../../../arm-none-eabi/lib/armv7-m\libg_nano.a(lib_a-writer.o) (_write)

Allocating common symbols
Common symbol       size              file

valore_s            0x2               .\CortexM3\ARM_GCC_541\Debug\TIA_calibrate.o
waveform_lut        0x271a            .\CortexM3\ARM_GCC_541\Debug\main.o
data_to_send        0x78              .\CortexM3\ARM_GCC_541\Debug\main.o
errno               0x4               c:/program files (x86)/cypress/psoc creator/4.4/psoc creator/import/gnu/arm/5.4.1/bin/../lib/gcc/arm-none-eabi/5.4.1/../../../../arm-none-eabi/lib/armv7-m\libg_nano.a(lib_a-reent.o)
finished_procedure_flag
                    0x1               .\CortexM3\ARM_GCC_541\Debug\main.o
data_long           0x1388            .\CortexM3\ARM_GCC_541\Debug\main.o
lut_value           0x2               .\CortexM3\ARM_GCC_541\Debug\main.o
temp                0x14              .\CortexM3\ARM_GCC_541\Debug\main.o
TIA_resistor_value_index
                    0x1               .\CortexM3\ARM_GCC_541\Debug\main.o
dac_ground_value    0x2               .\CortexM3\ARM_GCC_541\Debug\main.o
tia_calibration_values
                    0x15              .\CortexM3\ARM_GCC_541\Debug\main.o
return_value        0x4               .\CortexM3\ARM_GCC_541\Debug\main.o
valore              0x2               .\CortexM3\ARM_GCC_541\Debug\TIA_calibrate.o
calibrate_array     0x14              .\CortexM3\ARM_GCC_541\Debug\main.o
lut_length          0x2               .\CortexM3\ARM_GCC_541\Debug\main.o
ADC_SigDel_CountsPerVolt
                    0x4               .\CortexM3\ARM_GCC_541\Debug\PSoC_Project.a(ADC_SigDel.o)
selected_voltage_source
                    0x1               .\CortexM3\ARM_GCC_541\Debug\main.o
dieTemperature      0x2               .\CortexM3\ARM_GCC_541\Debug\PSoC_Project.a(CyFlash.o)
lut_index           0x2               .\CortexM3\ARM_GCC_541\Debug\main.o
data_buffer         0x14              .\CortexM3\ARM_GCC_541\Debug\main.o

Discarded input sections

 .text          0x00000000        0x0 c:/program files (x86)/cypress/psoc creator/4.4/psoc creator/import/gnu/arm/5.4.1/bin/../lib/gcc/arm-none-eabi/5.4.1/armv7-m/crti.o
 .data          0x00000000        0x0 c:/program files (x86)/cypress/psoc creator/4.4/psoc creator/import/gnu/arm/5.4.1/bin/../lib/gcc/arm-none-eabi/5.4.1/armv7-m/crti.o
 .bss           0x00000000        0x0 c:/program files (x86)/cypress/psoc creator/4.4/psoc creator/import/gnu/arm/5.4.1/bin/../lib/gcc/arm-none-eabi/5.4.1/armv7-m/crti.o
 .data          0x00000000        0x4 c:/program files (x86)/cypress/psoc creator/4.4/psoc creator/import/gnu/arm/5.4.1/bin/../lib/gcc/arm-none-eabi/5.4.1/armv7-m/crtbegin.o
 .text          0x00000000       0x74 c:/program files (x86)/cypress/psoc creator/4.4/psoc creator/import/gnu/arm/5.4.1/bin/../lib/gcc/arm-none-eabi/5.4.1/../../../../arm-none-eabi/lib/armv7-m/crt0.o
 .data          0x00000000        0x0 c:/program files (x86)/cypress/psoc creator/4.4/psoc creator/import/gnu/arm/5.4.1/bin/../lib/gcc/arm-none-eabi/5.4.1/../../../../arm-none-eabi/lib/armv7-m/crt0.o
 .bss           0x00000000        0x0 c:/program files (x86)/cypress/psoc creator/4.4/psoc creator/import/gnu/arm/5.4.1/bin/../lib/gcc/arm-none-eabi/5.4.1/../../../../arm-none-eabi/lib/armv7-m/crt0.o
 .ARM.extab     0x00000000        0x0 c:/program files (x86)/cypress/psoc creator/4.4/psoc creator/import/gnu/arm/5.4.1/bin/../lib/gcc/arm-none-eabi/5.4.1/../../../../arm-none-eabi/lib/armv7-m/crt0.o
 .ARM.exidx     0x00000000        0x8 c:/program files (x86)/cypress/psoc creator/4.4/psoc creator/import/gnu/arm/5.4.1/bin/../lib/gcc/arm-none-eabi/5.4.1/../../../../arm-none-eabi/lib/armv7-m/crt0.o
 .text          0x00000000        0x0 .\CortexM3\ARM_GCC_541\Debug\main.o
 .data          0x00000000        0x0 .\CortexM3\ARM_GCC_541\Debug\main.o
 .text          0x00000000        0x0 .\CortexM3\ARM_GCC_541\Debug\TIA_calibrate.o
 .data          0x00000000        0x0 .\CortexM3\ARM_GCC_541\Debug\TIA_calibrate.o
 .text          0x00000000        0x0 .\CortexM3\ARM_GCC_541\Debug\user_inputs.o
 .data          0x00000000        0x0 .\CortexM3\ARM_GCC_541\Debug\user_inputs.o
 .bss           0x00000000        0x3 .\CortexM3\ARM_GCC_541\Debug\user_inputs.o
 .text.user_reset_device
                0x00000000       0x20 .\CortexM3\ARM_GCC_541\Debug\user_inputs.o
 .text          0x00000000        0x0 .\CortexM3\ARM_GCC_541\Debug\hardware_management.o
 .data          0x00000000        0x0 .\CortexM3\ARM_GCC_541\Debug\hardware_management.o
 .bss           0x00000000        0x3 .\CortexM3\ARM_GCC_541\Debug\hardware_management.o
 .text.helper_Convert2Dec
                0x00000000       0x24 .\CortexM3\ARM_GCC_541\Debug\hardware_management.o
 .text          0x00000000        0x0 .\CortexM3\ARM_GCC_541\Debug\parametric_lut.o
 .data          0x00000000        0x0 .\CortexM3\ARM_GCC_541\Debug\parametric_lut.o
 .bss           0x00000000        0x3 .\CortexM3\ARM_GCC_541\Debug\parametric_lut.o
 .text          0x00000000        0x0 .\CortexM3\ARM_GCC_541\Debug\DAC_management.o
 .data          0x00000000        0x0 .\CortexM3\ARM_GCC_541\Debug\DAC_management.o
 .bss           0x00000000        0x3 .\CortexM3\ARM_GCC_541\Debug\DAC_management.o
 .text          0x00000000        0x0 .\CortexM3\ARM_GCC_541\Debug\BT_protocols.o
 .data          0x00000000        0x0 .\CortexM3\ARM_GCC_541\Debug\BT_protocols.o
 .bss           0x00000000        0x3 .\CortexM3\ARM_GCC_541\Debug\BT_protocols.o
 .text          0x00000000        0x0 .\CortexM3\ARM_GCC_541\Debug\cyfitter_cfg.o
 .data          0x00000000        0x0 .\CortexM3\ARM_GCC_541\Debug\cyfitter_cfg.o
 .bss           0x00000000        0x0 .\CortexM3\ARM_GCC_541\Debug\cyfitter_cfg.o
 .text.SetAnalogRoutingPumps
                0x00000000       0x1c .\CortexM3\ARM_GCC_541\Debug\cyfitter_cfg.o
 .text          0x00000000        0x0 .\CortexM3\ARM_GCC_541\Debug\cymetadata.o
 .data          0x00000000        0x0 .\CortexM3\ARM_GCC_541\Debug\cymetadata.o
 .bss           0x00000000        0x0 .\CortexM3\ARM_GCC_541\Debug\cymetadata.o
 .text          0x00000000        0x0 .\CortexM3\ARM_GCC_541\Debug\Cm3Start.o
 .bss           0x00000000        0x0 .\CortexM3\ARM_GCC_541\Debug\Cm3Start.o
 .text._exit    0x00000000        0xc .\CortexM3\ARM_GCC_541\Debug\Cm3Start.o
 .text          0x00000000        0x0 .\CortexM3\ARM_GCC_541\Debug\PSoC_Project.a(EEPROM.o)
 .data          0x00000000        0x0 .\CortexM3\ARM_GCC_541\Debug\PSoC_Project.a(EEPROM.o)
 .bss           0x00000000        0x0 .\CortexM3\ARM_GCC_541\Debug\PSoC_Project.a(EEPROM.o)
 .text.EEPROM_EraseSector
                0x00000000       0x64 .\CortexM3\ARM_GCC_541\Debug\PSoC_Project.a(EEPROM.o)
 .text.EEPROM_Write
                0x00000000       0xb4 .\CortexM3\ARM_GCC_541\Debug\PSoC_Project.a(EEPROM.o)
 .text.EEPROM_StartWrite
                0x00000000       0x88 .\CortexM3\ARM_GCC_541\Debug\PSoC_Project.a(EEPROM.o)
 .text.EEPROM_StartErase
                0x00000000       0x30 .\CortexM3\ARM_GCC_541\Debug\PSoC_Project.a(EEPROM.o)
 .text.EEPROM_Query
                0x00000000       0x40 .\CortexM3\ARM_GCC_541\Debug\PSoC_Project.a(EEPROM.o)
 .text.EEPROM_ByteWritePos
                0x00000000       0xc8 .\CortexM3\ARM_GCC_541\Debug\PSoC_Project.a(EEPROM.o)
 .text          0x00000000        0x0 .\CortexM3\ARM_GCC_541\Debug\PSoC_Project.a(isr_dac.o)
 .data          0x00000000        0x0 .\CortexM3\ARM_GCC_541\Debug\PSoC_Project.a(isr_dac.o)
 .bss           0x00000000        0x0 .\CortexM3\ARM_GCC_541\Debug\PSoC_Project.a(isr_dac.o)
 .text.isr_dac_Interrupt
                0x00000000        0x4 .\CortexM3\ARM_GCC_541\Debug\PSoC_Project.a(isr_dac.o)
 .text.isr_dac_GetVector
                0x00000000        0xc .\CortexM3\ARM_GCC_541\Debug\PSoC_Project.a(isr_dac.o)
 .text.isr_dac_GetPriority
                0x00000000        0xc .\CortexM3\ARM_GCC_541\Debug\PSoC_Project.a(isr_dac.o)
 .text.isr_dac_Start
                0x00000000       0x1c .\CortexM3\ARM_GCC_541\Debug\PSoC_Project.a(isr_dac.o)
 .text.isr_dac_Stop
                0x00000000       0x14 .\CortexM3\ARM_GCC_541\Debug\PSoC_Project.a(isr_dac.o)
 .text.isr_dac_SetPending
                0x00000000        0xc .\CortexM3\ARM_GCC_541\Debug\PSoC_Project.a(isr_dac.o)
 .text.isr_dac_ClearPending
                0x00000000        0xc .\CortexM3\ARM_GCC_541\Debug\PSoC_Project.a(isr_dac.o)
 .text          0x00000000        0x0 .\CortexM3\ARM_GCC_541\Debug\PSoC_Project.a(isr_adc.o)
 .data          0x00000000        0x0 .\CortexM3\ARM_GCC_541\Debug\PSoC_Project.a(isr_adc.o)
 .bss           0x00000000        0x0 .\CortexM3\ARM_GCC_541\Debug\PSoC_Project.a(isr_adc.o)
 .text.isr_adc_Interrupt
                0x00000000        0x4 .\CortexM3\ARM_GCC_541\Debug\PSoC_Project.a(isr_adc.o)
 .text.isr_adc_GetVector
                0x00000000        0xc .\CortexM3\ARM_GCC_541\Debug\PSoC_Project.a(isr_adc.o)
 .text.isr_adc_GetPriority
                0x00000000        0xc .\CortexM3\ARM_GCC_541\Debug\PSoC_Project.a(isr_adc.o)
 .text.isr_adc_GetState
                0x00000000       0x18 .\CortexM3\ARM_GCC_541\Debug\PSoC_Project.a(isr_adc.o)
 .text.isr_adc_Start
                0x00000000       0x1c .\CortexM3\ARM_GCC_541\Debug\PSoC_Project.a(isr_adc.o)
 .text.isr_adc_Stop
                0x00000000       0x14 .\CortexM3\ARM_GCC_541\Debug\PSoC_Project.a(isr_adc.o)
 .text.isr_adc_SetPending
                0x00000000        0xc .\CortexM3\ARM_GCC_541\Debug\PSoC_Project.a(isr_adc.o)
 .text.isr_adc_ClearPending
                0x00000000        0xc .\CortexM3\ARM_GCC_541\Debug\PSoC_Project.a(isr_adc.o)
 .text          0x00000000        0x0 .\CortexM3\ARM_GCC_541\Debug\PSoC_Project.a(isr_adcAmp.o)
 .data          0x00000000        0x0 .\CortexM3\ARM_GCC_541\Debug\PSoC_Project.a(isr_adcAmp.o)
 .bss           0x00000000        0x0 .\CortexM3\ARM_GCC_541\Debug\PSoC_Project.a(isr_adcAmp.o)
 .text.isr_adcAmp_Interrupt
                0x00000000        0x4 .\CortexM3\ARM_GCC_541\Debug\PSoC_Project.a(isr_adcAmp.o)
 .text.isr_adcAmp_SetVector
                0x00000000        0xc .\CortexM3\ARM_GCC_541\Debug\PSoC_Project.a(isr_adcAmp.o)
 .text.isr_adcAmp_GetVector
                0x00000000        0xc .\CortexM3\ARM_GCC_541\Debug\PSoC_Project.a(isr_adcAmp.o)
 .text.isr_adcAmp_SetPriority
                0x00000000       0x10 .\CortexM3\ARM_GCC_541\Debug\PSoC_Project.a(isr_adcAmp.o)
 .text.isr_adcAmp_GetPriority
                0x00000000        0xc .\CortexM3\ARM_GCC_541\Debug\PSoC_Project.a(isr_adcAmp.o)
 .text.isr_adcAmp_Enable
                0x00000000        0xc .\CortexM3\ARM_GCC_541\Debug\PSoC_Project.a(isr_adcAmp.o)
 .text.isr_adcAmp_Start
                0x00000000       0x1c .\CortexM3\ARM_GCC_541\Debug\PSoC_Project.a(isr_adcAmp.o)
 .text.isr_adcAmp_StartEx
                0x00000000       0x1c .\CortexM3\ARM_GCC_541\Debug\PSoC_Project.a(isr_adcAmp.o)
 .text.isr_adcAmp_Stop
                0x00000000       0x14 .\CortexM3\ARM_GCC_541\Debug\PSoC_Project.a(isr_adcAmp.o)
 .text.isr_adcAmp_SetPending
                0x00000000        0xc .\CortexM3\ARM_GCC_541\Debug\PSoC_Project.a(isr_adcAmp.o)
 .text.isr_adcAmp_ClearPending
                0x00000000        0xc .\CortexM3\ARM_GCC_541\Debug\PSoC_Project.a(isr_adcAmp.o)
 .text          0x00000000        0x0 .\CortexM3\ARM_GCC_541\Debug\PSoC_Project.a(AMux_TIA_resistor_bypass.o)
 .bss           0x00000000        0x0 .\CortexM3\ARM_GCC_541\Debug\PSoC_Project.a(AMux_TIA_resistor_bypass.o)
 .text.AMux_TIA_resistor_bypass_FastSelect
                0x00000000       0x20 .\CortexM3\ARM_GCC_541\Debug\PSoC_Project.a(AMux_TIA_resistor_bypass.o)
 .text          0x00000000        0x0 .\CortexM3\ARM_GCC_541\Debug\PSoC_Project.a(IDAC_calibrate.o)
 .data          0x00000000        0x0 .\CortexM3\ARM_GCC_541\Debug\PSoC_Project.a(IDAC_calibrate.o)
 .text.IDAC_calibrate_SetRange
                0x00000000       0x20 .\CortexM3\ARM_GCC_541\Debug\PSoC_Project.a(IDAC_calibrate.o)
 .text          0x00000000        0x0 .\CortexM3\ARM_GCC_541\Debug\PSoC_Project.a(AMux_TIA_input.o)
 .bss           0x00000000        0x0 .\CortexM3\ARM_GCC_541\Debug\PSoC_Project.a(AMux_TIA_input.o)
 .text.AMux_TIA_input_FastSelect
                0x00000000       0x20 .\CortexM3\ARM_GCC_541\Debug\PSoC_Project.a(AMux_TIA_input.o)
 .text          0x00000000        0x0 .\CortexM3\ARM_GCC_541\Debug\PSoC_Project.a(VDAC_TIA.o)
 .data          0x00000000        0x0 .\CortexM3\ARM_GCC_541\Debug\PSoC_Project.a(VDAC_TIA.o)
 .text          0x00000000        0x0 .\CortexM3\ARM_GCC_541\Debug\PSoC_Project.a(VDAC_TIA_PM.o)
 .data          0x00000000        0x0 .\CortexM3\ARM_GCC_541\Debug\PSoC_Project.a(VDAC_TIA_PM.o)
 .text          0x00000000        0x0 .\CortexM3\ARM_GCC_541\Debug\PSoC_Project.a(TIA.o)
 .data          0x00000000        0x0 .\CortexM3\ARM_GCC_541\Debug\PSoC_Project.a(TIA.o)
 .text          0x00000000        0x0 .\CortexM3\ARM_GCC_541\Debug\PSoC_Project.a(TIA_PM.o)
 .data          0x00000000        0x0 .\CortexM3\ARM_GCC_541\Debug\PSoC_Project.a(TIA_PM.o)
 .text.TIA_SaveConfig
                0x00000000        0x4 .\CortexM3\ARM_GCC_541\Debug\PSoC_Project.a(TIA_PM.o)
 .text.TIA_RestoreConfig
                0x00000000        0x4 .\CortexM3\ARM_GCC_541\Debug\PSoC_Project.a(TIA_PM.o)
 .text          0x00000000        0x0 .\CortexM3\ARM_GCC_541\Debug\PSoC_Project.a(UART_BT.o)
 .data          0x00000000        0x0 .\CortexM3\ARM_GCC_541\Debug\PSoC_Project.a(UART_BT.o)
 .text.UART_BT_Stop
                0x00000000       0x3c .\CortexM3\ARM_GCC_541\Debug\PSoC_Project.a(UART_BT.o)
 .text.UART_BT_ReadControlRegister
                0x00000000        0x4 .\CortexM3\ARM_GCC_541\Debug\PSoC_Project.a(UART_BT.o)
 .text.UART_BT_WriteControlRegister
                0x00000000        0x4 .\CortexM3\ARM_GCC_541\Debug\PSoC_Project.a(UART_BT.o)
 .text.UART_BT_SetRxInterruptMode
                0x00000000        0xc .\CortexM3\ARM_GCC_541\Debug\PSoC_Project.a(UART_BT.o)
 .text.UART_BT_GetChar
                0x00000000       0x2c .\CortexM3\ARM_GCC_541\Debug\PSoC_Project.a(UART_BT.o)
 .text.UART_BT_GetRxBufferSize
                0x00000000       0x18 .\CortexM3\ARM_GCC_541\Debug\PSoC_Project.a(UART_BT.o)
 .text.UART_BT_ClearRxBuffer
                0x00000000       0x24 .\CortexM3\ARM_GCC_541\Debug\PSoC_Project.a(UART_BT.o)
 .text.UART_BT_SetRxAddressMode
                0x00000000        0x4 .\CortexM3\ARM_GCC_541\Debug\PSoC_Project.a(UART_BT.o)
 .text.UART_BT_SetRxAddress1
                0x00000000        0xc .\CortexM3\ARM_GCC_541\Debug\PSoC_Project.a(UART_BT.o)
 .text.UART_BT_SetRxAddress2
                0x00000000        0xc .\CortexM3\ARM_GCC_541\Debug\PSoC_Project.a(UART_BT.o)
 .text.UART_BT_SetTxInterruptMode
                0x00000000        0xc .\CortexM3\ARM_GCC_541\Debug\PSoC_Project.a(UART_BT.o)
 .text.UART_BT_WriteTxData
                0x00000000       0x14 .\CortexM3\ARM_GCC_541\Debug\PSoC_Project.a(UART_BT.o)
 .text.UART_BT_ReadTxStatus
                0x00000000        0xc .\CortexM3\ARM_GCC_541\Debug\PSoC_Project.a(UART_BT.o)
 .text.UART_BT_PutCRLF
                0x00000000       0x20 .\CortexM3\ARM_GCC_541\Debug\PSoC_Project.a(UART_BT.o)
 .text.UART_BT_GetTxBufferSize
                0x00000000       0x24 .\CortexM3\ARM_GCC_541\Debug\PSoC_Project.a(UART_BT.o)
 .text.UART_BT_ClearTxBuffer
                0x00000000       0x24 .\CortexM3\ARM_GCC_541\Debug\PSoC_Project.a(UART_BT.o)
 .text.UART_BT_SendBreak
                0x00000000       0x58 .\CortexM3\ARM_GCC_541\Debug\PSoC_Project.a(UART_BT.o)
 .text.UART_BT_SetTxAddressMode
                0x00000000        0x4 .\CortexM3\ARM_GCC_541\Debug\PSoC_Project.a(UART_BT.o)
 .text          0x00000000        0x0 .\CortexM3\ARM_GCC_541\Debug\PSoC_Project.a(Opamp_Aux.o)
 .data          0x00000000        0x0 .\CortexM3\ARM_GCC_541\Debug\PSoC_Project.a(Opamp_Aux.o)
 .text          0x00000000        0x0 .\CortexM3\ARM_GCC_541\Debug\PSoC_Project.a(Opamp_Aux_PM.o)
 .data          0x00000000        0x0 .\CortexM3\ARM_GCC_541\Debug\PSoC_Project.a(Opamp_Aux_PM.o)
 .text.Opamp_Aux_SaveConfig
                0x00000000        0x4 .\CortexM3\ARM_GCC_541\Debug\PSoC_Project.a(Opamp_Aux_PM.o)
 .text.Opamp_Aux_RestoreConfig
                0x00000000        0x4 .\CortexM3\ARM_GCC_541\Debug\PSoC_Project.a(Opamp_Aux_PM.o)
 .text          0x00000000        0x0 .\CortexM3\ARM_GCC_541\Debug\PSoC_Project.a(AMux_electrode.o)
 .bss           0x00000000        0x0 .\CortexM3\ARM_GCC_541\Debug\PSoC_Project.a(AMux_electrode.o)
 .text.AMux_electrode_FastSelect
                0x00000000       0x20 .\CortexM3\ARM_GCC_541\Debug\PSoC_Project.a(AMux_electrode.o)
 .text          0x00000000        0x0 .\CortexM3\ARM_GCC_541\Debug\PSoC_Project.a(AMux_V_source.o)
 .bss           0x00000000        0x0 .\CortexM3\ARM_GCC_541\Debug\PSoC_Project.a(AMux_V_source.o)
 .text.AMux_V_source_FastSelect
                0x00000000       0x20 .\CortexM3\ARM_GCC_541\Debug\PSoC_Project.a(AMux_V_source.o)
 .text          0x00000000        0x0 .\CortexM3\ARM_GCC_541\Debug\PSoC_Project.a(DVDAC.o)
 .text          0x00000000        0x0 .\CortexM3\ARM_GCC_541\Debug\PSoC_Project.a(DVDAC_PM.o)
 .data          0x00000000        0x0 .\CortexM3\ARM_GCC_541\Debug\PSoC_Project.a(DVDAC_PM.o)
 .text          0x00000000        0x0 .\CortexM3\ARM_GCC_541\Debug\PSoC_Project.a(VDAC_source.o)
 .data          0x00000000        0x0 .\CortexM3\ARM_GCC_541\Debug\PSoC_Project.a(VDAC_source.o)
 .text          0x00000000        0x0 .\CortexM3\ARM_GCC_541\Debug\PSoC_Project.a(VDAC_source_PM.o)
 .data          0x00000000        0x0 .\CortexM3\ARM_GCC_541\Debug\PSoC_Project.a(VDAC_source_PM.o)
 .text          0x00000000        0x0 .\CortexM3\ARM_GCC_541\Debug\PSoC_Project.a(PWM_isr.o)
 .data          0x00000000        0x0 .\CortexM3\ARM_GCC_541\Debug\PSoC_Project.a(PWM_isr.o)
 .text.PWM_isr_ReadCapture
                0x00000000        0xc .\CortexM3\ARM_GCC_541\Debug\PSoC_Project.a(PWM_isr.o)
 .text.PWM_isr_ReadCompare
                0x00000000        0xc .\CortexM3\ARM_GCC_541\Debug\PSoC_Project.a(PWM_isr.o)
 .text          0x00000000        0x0 .\CortexM3\ARM_GCC_541\Debug\PSoC_Project.a(PWM_isr_PM.o)
 .data          0x00000000        0x0 .\CortexM3\ARM_GCC_541\Debug\PSoC_Project.a(PWM_isr_PM.o)
 .text          0x00000000        0x0 .\CortexM3\ARM_GCC_541\Debug\PSoC_Project.a(UART_BT_IntClock.o)
 .data          0x00000000        0x0 .\CortexM3\ARM_GCC_541\Debug\PSoC_Project.a(UART_BT_IntClock.o)
 .bss           0x00000000        0x0 .\CortexM3\ARM_GCC_541\Debug\PSoC_Project.a(UART_BT_IntClock.o)
 .text.UART_BT_IntClock_Stop
                0x00000000       0x1c .\CortexM3\ARM_GCC_541\Debug\PSoC_Project.a(UART_BT_IntClock.o)
 .text.UART_BT_IntClock_StopBlock
                0x00000000       0x6c .\CortexM3\ARM_GCC_541\Debug\PSoC_Project.a(UART_BT_IntClock.o)
 .text.UART_BT_IntClock_StandbyPower
                0x00000000       0x20 .\CortexM3\ARM_GCC_541\Debug\PSoC_Project.a(UART_BT_IntClock.o)
 .text.UART_BT_IntClock_GetDividerRegister
                0x00000000        0xc .\CortexM3\ARM_GCC_541\Debug\PSoC_Project.a(UART_BT_IntClock.o)
 .text.UART_BT_IntClock_SetModeRegister
                0x00000000       0x14 .\CortexM3\ARM_GCC_541\Debug\PSoC_Project.a(UART_BT_IntClock.o)
 .text.UART_BT_IntClock_ClearModeRegister
                0x00000000       0x18 .\CortexM3\ARM_GCC_541\Debug\PSoC_Project.a(UART_BT_IntClock.o)
 .text.UART_BT_IntClock_GetModeRegister
                0x00000000       0x10 .\CortexM3\ARM_GCC_541\Debug\PSoC_Project.a(UART_BT_IntClock.o)
 .text.UART_BT_IntClock_GetSourceRegister
                0x00000000       0x10 .\CortexM3\ARM_GCC_541\Debug\PSoC_Project.a(UART_BT_IntClock.o)
 .text.UART_BT_IntClock_SetDividerRegister
                0x00000000       0xdc .\CortexM3\ARM_GCC_541\Debug\PSoC_Project.a(UART_BT_IntClock.o)
 .text.UART_BT_IntClock_SetSourceRegister
                0x00000000       0x5c .\CortexM3\ARM_GCC_541\Debug\PSoC_Project.a(UART_BT_IntClock.o)
 .text          0x00000000        0x0 .\CortexM3\ARM_GCC_541\Debug\PSoC_Project.a(DVDAC_DMA_dma.o)
 .bss           0x00000000        0x0 .\CortexM3\ARM_GCC_541\Debug\PSoC_Project.a(DVDAC_DMA_dma.o)
 .text.DVDAC_DMA_DmaRelease
                0x00000000       0x10 .\CortexM3\ARM_GCC_541\Debug\PSoC_Project.a(DVDAC_DMA_dma.o)
 .text          0x00000000        0x0 .\CortexM3\ARM_GCC_541\Debug\PSoC_Project.a(DVDAC_VDAC8.o)
 .data          0x00000000        0x0 .\CortexM3\ARM_GCC_541\Debug\PSoC_Project.a(DVDAC_VDAC8.o)
 .bss           0x00000000        0x1 .\CortexM3\ARM_GCC_541\Debug\PSoC_Project.a(DVDAC_VDAC8.o)
 .text.DVDAC_VDAC8_SetValue
                0x00000000        0xc .\CortexM3\ARM_GCC_541\Debug\PSoC_Project.a(DVDAC_VDAC8.o)
 .text.DVDAC_VDAC8_Start
                0x00000000       0x24 .\CortexM3\ARM_GCC_541\Debug\PSoC_Project.a(DVDAC_VDAC8.o)
 .text          0x00000000        0x0 .\CortexM3\ARM_GCC_541\Debug\PSoC_Project.a(DVDAC_VDAC8_PM.o)
 .data          0x00000000        0x0 .\CortexM3\ARM_GCC_541\Debug\PSoC_Project.a(DVDAC_VDAC8_PM.o)
 .text.DVDAC_VDAC8_Sleep
                0x00000000       0x2c .\CortexM3\ARM_GCC_541\Debug\PSoC_Project.a(DVDAC_VDAC8_PM.o)
 .text.DVDAC_VDAC8_Wakeup
                0x00000000       0x24 .\CortexM3\ARM_GCC_541\Debug\PSoC_Project.a(DVDAC_VDAC8_PM.o)
 .text          0x00000000        0x0 .\CortexM3\ARM_GCC_541\Debug\PSoC_Project.a(DVDAC_IntClock.o)
 .data          0x00000000        0x0 .\CortexM3\ARM_GCC_541\Debug\PSoC_Project.a(DVDAC_IntClock.o)
 .bss           0x00000000        0x0 .\CortexM3\ARM_GCC_541\Debug\PSoC_Project.a(DVDAC_IntClock.o)
 .text.DVDAC_IntClock_StopBlock
                0x00000000       0x6c .\CortexM3\ARM_GCC_541\Debug\PSoC_Project.a(DVDAC_IntClock.o)
 .text.DVDAC_IntClock_StandbyPower
                0x00000000       0x20 .\CortexM3\ARM_GCC_541\Debug\PSoC_Project.a(DVDAC_IntClock.o)
 .text.DVDAC_IntClock_GetDividerRegister
                0x00000000        0xc .\CortexM3\ARM_GCC_541\Debug\PSoC_Project.a(DVDAC_IntClock.o)
 .text.DVDAC_IntClock_SetModeRegister
                0x00000000       0x14 .\CortexM3\ARM_GCC_541\Debug\PSoC_Project.a(DVDAC_IntClock.o)
 .text.DVDAC_IntClock_ClearModeRegister
                0x00000000       0x18 .\CortexM3\ARM_GCC_541\Debug\PSoC_Project.a(DVDAC_IntClock.o)
 .text.DVDAC_IntClock_GetModeRegister
                0x00000000       0x10 .\CortexM3\ARM_GCC_541\Debug\PSoC_Project.a(DVDAC_IntClock.o)
 .text.DVDAC_IntClock_GetSourceRegister
                0x00000000       0x10 .\CortexM3\ARM_GCC_541\Debug\PSoC_Project.a(DVDAC_IntClock.o)
 .text.DVDAC_IntClock_SetDividerRegister
                0x00000000       0xdc .\CortexM3\ARM_GCC_541\Debug\PSoC_Project.a(DVDAC_IntClock.o)
 .text.DVDAC_IntClock_SetSourceRegister
                0x00000000       0x5c .\CortexM3\ARM_GCC_541\Debug\PSoC_Project.a(DVDAC_IntClock.o)
 .text          0x00000000        0x0 .\CortexM3\ARM_GCC_541\Debug\PSoC_Project.a(CyDmac.o)
 .bss           0x00000000        0x0 .\CortexM3\ARM_GCC_541\Debug\PSoC_Project.a(CyDmac.o)
 .text.CyDmacError
                0x00000000       0x10 .\CortexM3\ARM_GCC_541\Debug\PSoC_Project.a(CyDmac.o)
 .text.CyDmacClearError
                0x00000000       0x10 .\CortexM3\ARM_GCC_541\Debug\PSoC_Project.a(CyDmac.o)
 .text.CyDmacErrorAddress
                0x00000000        0xc .\CortexM3\ARM_GCC_541\Debug\PSoC_Project.a(CyDmac.o)
 .text.CyDmaChAlloc
                0x00000000       0x38 .\CortexM3\ARM_GCC_541\Debug\PSoC_Project.a(CyDmac.o)
 .text.CyDmaChFree
                0x00000000       0x2c .\CortexM3\ARM_GCC_541\Debug\PSoC_Project.a(CyDmac.o)
 .text.CyDmaClearPendingDrq
                0x00000000       0x28 .\CortexM3\ARM_GCC_541\Debug\PSoC_Project.a(CyDmac.o)
 .text.CyDmaChSetRequest
                0x00000000       0x20 .\CortexM3\ARM_GCC_541\Debug\PSoC_Project.a(CyDmac.o)
 .text.CyDmaChGetRequest
                0x00000000       0x1c .\CortexM3\ARM_GCC_541\Debug\PSoC_Project.a(CyDmac.o)
 .text.CyDmaChStatus
                0x00000000       0x30 .\CortexM3\ARM_GCC_541\Debug\PSoC_Project.a(CyDmac.o)
 .text.CyDmaTdFree
                0x00000000       0x34 .\CortexM3\ARM_GCC_541\Debug\PSoC_Project.a(CyDmac.o)
 .text.CyDmaTdFreeCount
                0x00000000       0x10 .\CortexM3\ARM_GCC_541\Debug\PSoC_Project.a(CyDmac.o)
 .text.CyDmaTdGetConfiguration
                0x00000000       0x4c .\CortexM3\ARM_GCC_541\Debug\PSoC_Project.a(CyDmac.o)
 .text.CyDmaTdGetAddress
                0x00000000       0x34 .\CortexM3\ARM_GCC_541\Debug\PSoC_Project.a(CyDmac.o)
 .text.CyDmaChRoundRobin
                0x00000000       0x30 .\CortexM3\ARM_GCC_541\Debug\PSoC_Project.a(CyDmac.o)
 .text          0x00000000        0x0 .\CortexM3\ARM_GCC_541\Debug\PSoC_Project.a(CyFlash.o)
 .data          0x00000000        0x0 .\CortexM3\ARM_GCC_541\Debug\PSoC_Project.a(CyFlash.o)
 .bss           0x00000000        0x0 .\CortexM3\ARM_GCC_541\Debug\PSoC_Project.a(CyFlash.o)
 .text.CyFlash_Start
                0x00000000       0x54 .\CortexM3\ARM_GCC_541\Debug\PSoC_Project.a(CyFlash.o)
 .text.CyFlash_Stop
                0x00000000       0x24 .\CortexM3\ARM_GCC_541\Debug\PSoC_Project.a(CyFlash.o)
 .text.CyFlash_EraseRow
                0x00000000       0x78 .\CortexM3\ARM_GCC_541\Debug\PSoC_Project.a(CyFlash.o)
 .text.CySetFlashEEBuffer
                0x00000000       0x20 .\CortexM3\ARM_GCC_541\Debug\PSoC_Project.a(CyFlash.o)
 .text.CyWriteRowFull
                0x00000000       0xf8 .\CortexM3\ARM_GCC_541\Debug\PSoC_Project.a(CyFlash.o)
 .text.CyWriteRowData
                0x00000000       0x14 .\CortexM3\ARM_GCC_541\Debug\PSoC_Project.a(CyFlash.o)
 .text.CyFlash_SetWaitCycles
                0x00000000       0x7c .\CortexM3\ARM_GCC_541\Debug\PSoC_Project.a(CyFlash.o)
 .text          0x00000000        0x0 .\CortexM3\ARM_GCC_541\Debug\PSoC_Project.a(CyLib.o)
 .bss           0x00000000       0x1c .\CortexM3\ARM_GCC_541\Debug\PSoC_Project.a(CyLib.o)
 .text.CyUSB_PowerOnCheck
                0x00000000       0x48 .\CortexM3\ARM_GCC_541\Debug\PSoC_Project.a(CyLib.o)
 .text.CyBusClk_Internal_SetDivider
                0x00000000       0x48 .\CortexM3\ARM_GCC_541\Debug\PSoC_Project.a(CyLib.o)
 .text.CyPLL_OUT_Stop
                0x00000000       0x10 .\CortexM3\ARM_GCC_541\Debug\PSoC_Project.a(CyLib.o)
 .text.CyIMO_Stop
                0x00000000       0x1c .\CortexM3\ARM_GCC_541\Debug\PSoC_Project.a(CyLib.o)
 .text.CyIMO_EnableDoubler
                0x00000000       0x10 .\CortexM3\ARM_GCC_541\Debug\PSoC_Project.a(CyLib.o)
 .text.CyIMO_DisableDoubler
                0x00000000       0x10 .\CortexM3\ARM_GCC_541\Debug\PSoC_Project.a(CyLib.o)
 .text.CyMasterClk_SetSource
                0x00000000       0x18 .\CortexM3\ARM_GCC_541\Debug\PSoC_Project.a(CyLib.o)
 .text.CyMasterClk_SetDivider
                0x00000000        0xc .\CortexM3\ARM_GCC_541\Debug\PSoC_Project.a(CyLib.o)
 .text.CyBusClk_SetDivider
                0x00000000       0x70 .\CortexM3\ARM_GCC_541\Debug\PSoC_Project.a(CyLib.o)
 .text.CyUsbClk_SetSource
                0x00000000       0x18 .\CortexM3\ARM_GCC_541\Debug\PSoC_Project.a(CyLib.o)
 .text.CyILO_Start1K
                0x00000000       0x10 .\CortexM3\ARM_GCC_541\Debug\PSoC_Project.a(CyLib.o)
 .text.CyILO_Stop1K
                0x00000000       0x10 .\CortexM3\ARM_GCC_541\Debug\PSoC_Project.a(CyLib.o)
 .text.CyILO_Start100K
                0x00000000       0x10 .\CortexM3\ARM_GCC_541\Debug\PSoC_Project.a(CyLib.o)
 .text.CyILO_Stop100K
                0x00000000       0x10 .\CortexM3\ARM_GCC_541\Debug\PSoC_Project.a(CyLib.o)
 .text.CyPLL_OUT_Start
                0x00000000       0x78 .\CortexM3\ARM_GCC_541\Debug\PSoC_Project.a(CyLib.o)
 .text.CyIMO_Start
                0x00000000       0x60 .\CortexM3\ARM_GCC_541\Debug\PSoC_Project.a(CyLib.o)
 .text.CyILO_Enable33K
                0x00000000       0x10 .\CortexM3\ARM_GCC_541\Debug\PSoC_Project.a(CyLib.o)
 .text.CyILO_Disable33K
                0x00000000       0x10 .\CortexM3\ARM_GCC_541\Debug\PSoC_Project.a(CyLib.o)
 .text.CyILO_SetSource
                0x00000000       0x18 .\CortexM3\ARM_GCC_541\Debug\PSoC_Project.a(CyLib.o)
 .text.CyILO_SetPowerMode
                0x00000000       0x24 .\CortexM3\ARM_GCC_541\Debug\PSoC_Project.a(CyLib.o)
 .text.CyXTAL_32KHZ_Stop
                0x00000000       0x30 .\CortexM3\ARM_GCC_541\Debug\PSoC_Project.a(CyLib.o)
 .text.CyXTAL_32KHZ_ReadStatus
                0x00000000       0x10 .\CortexM3\ARM_GCC_541\Debug\PSoC_Project.a(CyLib.o)
 .text.CyXTAL_Start
                0x00000000       0xac .\CortexM3\ARM_GCC_541\Debug\PSoC_Project.a(CyLib.o)
 .text.CyXTAL_Stop
                0x00000000       0x10 .\CortexM3\ARM_GCC_541\Debug\PSoC_Project.a(CyLib.o)
 .text.CyXTAL_EnableErrStatus
                0x00000000       0x10 .\CortexM3\ARM_GCC_541\Debug\PSoC_Project.a(CyLib.o)
 .text.CyXTAL_DisableErrStatus
                0x00000000       0x10 .\CortexM3\ARM_GCC_541\Debug\PSoC_Project.a(CyLib.o)
 .text.CyXTAL_ReadStatus
                0x00000000       0x18 .\CortexM3\ARM_GCC_541\Debug\PSoC_Project.a(CyLib.o)
 .text.CyXTAL_EnableFaultRecovery
                0x00000000       0x10 .\CortexM3\ARM_GCC_541\Debug\PSoC_Project.a(CyLib.o)
 .text.CyXTAL_DisableFaultRecovery
                0x00000000       0x10 .\CortexM3\ARM_GCC_541\Debug\PSoC_Project.a(CyLib.o)
 .text.CyXTAL_SetStartup
                0x00000000       0x18 .\CortexM3\ARM_GCC_541\Debug\PSoC_Project.a(CyLib.o)
 .text.CyXTAL_SetFbVoltage
                0x00000000       0x18 .\CortexM3\ARM_GCC_541\Debug\PSoC_Project.a(CyLib.o)
 .text.CyXTAL_SetWdVoltage
                0x00000000       0x18 .\CortexM3\ARM_GCC_541\Debug\PSoC_Project.a(CyLib.o)
 .text.CyPLL_OUT_SetPQ
                0x00000000       0x60 .\CortexM3\ARM_GCC_541\Debug\PSoC_Project.a(CyLib.o)
 .text.CyPLL_OUT_SetSource
                0x00000000       0x34 .\CortexM3\ARM_GCC_541\Debug\PSoC_Project.a(CyLib.o)
 .text.CyIMO_SetTrimValue
                0x00000000       0xcc .\CortexM3\ARM_GCC_541\Debug\PSoC_Project.a(CyLib.o)
 .text.CyIMO_SetFreq
                0x00000000       0xf4 .\CortexM3\ARM_GCC_541\Debug\PSoC_Project.a(CyLib.o)
 .text.CyIMO_SetSource
                0x00000000       0x58 .\CortexM3\ARM_GCC_541\Debug\PSoC_Project.a(CyLib.o)
 .text.CySoftwareReset
                0x00000000       0x10 .\CortexM3\ARM_GCC_541\Debug\PSoC_Project.a(CyLib.o)
 .text.CyXTAL_32KHZ_SetPowerMode
                0x00000000       0x84 .\CortexM3\ARM_GCC_541\Debug\PSoC_Project.a(CyLib.o)
 .text.CyXTAL_32KHZ_Start
                0x00000000       0x74 .\CortexM3\ARM_GCC_541\Debug\PSoC_Project.a(CyLib.o)
 .text.CyDelayFreq
                0x00000000       0x4c .\CortexM3\ARM_GCC_541\Debug\PSoC_Project.a(CyLib.o)
 .text.CyWdtStart
                0x00000000       0x40 .\CortexM3\ARM_GCC_541\Debug\PSoC_Project.a(CyLib.o)
 .text.CyWdtClear
                0x00000000        0xc .\CortexM3\ARM_GCC_541\Debug\PSoC_Project.a(CyLib.o)
 .text.CyVdStickyStatus
                0x00000000       0x2c .\CortexM3\ARM_GCC_541\Debug\PSoC_Project.a(CyLib.o)
 .text.CyVdLvDigitEnable
                0x00000000       0x84 .\CortexM3\ARM_GCC_541\Debug\PSoC_Project.a(CyLib.o)
 .text.CyVdLvAnalogEnable
                0x00000000       0x80 .\CortexM3\ARM_GCC_541\Debug\PSoC_Project.a(CyLib.o)
 .text.CyVdLvDigitDisable
                0x00000000       0x30 .\CortexM3\ARM_GCC_541\Debug\PSoC_Project.a(CyLib.o)
 .text.CyVdLvAnalogDisable
                0x00000000       0x28 .\CortexM3\ARM_GCC_541\Debug\PSoC_Project.a(CyLib.o)
 .text.CyVdHvAnalogEnable
                0x00000000       0x54 .\CortexM3\ARM_GCC_541\Debug\PSoC_Project.a(CyLib.o)
 .text.CyVdHvAnalogDisable
                0x00000000       0x20 .\CortexM3\ARM_GCC_541\Debug\PSoC_Project.a(CyLib.o)
 .text.CyVdRealTimeStatus
                0x00000000       0x1c .\CortexM3\ARM_GCC_541\Debug\PSoC_Project.a(CyLib.o)
 .text.CyDisableInts
                0x00000000       0x1c .\CortexM3\ARM_GCC_541\Debug\PSoC_Project.a(CyLib.o)
 .text.CyEnableInts
                0x00000000       0x18 .\CortexM3\ARM_GCC_541\Debug\PSoC_Project.a(CyLib.o)
 .text.CyFlushCache
                0x00000000       0x44 .\CortexM3\ARM_GCC_541\Debug\PSoC_Project.a(CyLib.o)
 .text.CyIntSetSysVector
                0x00000000       0x28 .\CortexM3\ARM_GCC_541\Debug\PSoC_Project.a(CyLib.o)
 .text.CyIntGetSysVector
                0x00000000       0x20 .\CortexM3\ARM_GCC_541\Debug\PSoC_Project.a(CyLib.o)
 .text.CyIntGetVector
                0x00000000       0x24 .\CortexM3\ARM_GCC_541\Debug\PSoC_Project.a(CyLib.o)
 .text.CyIntGetPriority
                0x00000000       0x20 .\CortexM3\ARM_GCC_541\Debug\PSoC_Project.a(CyLib.o)
 .text.CyIntGetState
                0x00000000       0x24 .\CortexM3\ARM_GCC_541\Debug\PSoC_Project.a(CyLib.o)
 .text.CySysTickStop
                0x00000000       0x10 .\CortexM3\ARM_GCC_541\Debug\PSoC_Project.a(CyLib.o)
 .text.CySysTickEnableInterrupt
                0x00000000       0x10 .\CortexM3\ARM_GCC_541\Debug\PSoC_Project.a(CyLib.o)
 .text.CySysTickEnable
                0x00000000       0x18 .\CortexM3\ARM_GCC_541\Debug\PSoC_Project.a(CyLib.o)
 .text.CySysTickDisableInterrupt
                0x00000000       0x10 .\CortexM3\ARM_GCC_541\Debug\PSoC_Project.a(CyLib.o)
 .text.CySysTickSetReload
                0x00000000       0x10 .\CortexM3\ARM_GCC_541\Debug\PSoC_Project.a(CyLib.o)
 .text.CySysTickGetReload
                0x00000000       0x10 .\CortexM3\ARM_GCC_541\Debug\PSoC_Project.a(CyLib.o)
 .text.CySysTickGetValue
                0x00000000       0x10 .\CortexM3\ARM_GCC_541\Debug\PSoC_Project.a(CyLib.o)
 .text.CySysTickSetClockSource
                0x00000000       0x20 .\CortexM3\ARM_GCC_541\Debug\PSoC_Project.a(CyLib.o)
 .text.CySysTickGetClockSource
                0x00000000       0x10 .\CortexM3\ARM_GCC_541\Debug\PSoC_Project.a(CyLib.o)
 .text.CySysTickGetCountFlag
                0x00000000       0x10 .\CortexM3\ARM_GCC_541\Debug\PSoC_Project.a(CyLib.o)
 .text.CySysTickServiceCallbacks
                0x00000000       0x28 .\CortexM3\ARM_GCC_541\Debug\PSoC_Project.a(CyLib.o)
 .text.CySysTickClear
                0x00000000        0xc .\CortexM3\ARM_GCC_541\Debug\PSoC_Project.a(CyLib.o)
 .text.CySysTickInit
                0x00000000       0x58 .\CortexM3\ARM_GCC_541\Debug\PSoC_Project.a(CyLib.o)
 .text.CySysTickStart
                0x00000000       0x1c .\CortexM3\ARM_GCC_541\Debug\PSoC_Project.a(CyLib.o)
 .text.CySysTickSetCallback
                0x00000000       0x10 .\CortexM3\ARM_GCC_541\Debug\PSoC_Project.a(CyLib.o)
 .text.CySysTickGetCallback
                0x00000000       0x10 .\CortexM3\ARM_GCC_541\Debug\PSoC_Project.a(CyLib.o)
 .text.CyGetUniqueId
                0x00000000       0x70 .\CortexM3\ARM_GCC_541\Debug\PSoC_Project.a(CyLib.o)
 .text          0x00000000        0x0 .\CortexM3\ARM_GCC_541\Debug\PSoC_Project.a(cyPm.o)
 .data          0x00000000        0x0 .\CortexM3\ARM_GCC_541\Debug\PSoC_Project.a(cyPm.o)
 .bss           0x00000000       0x43 .\CortexM3\ARM_GCC_541\Debug\PSoC_Project.a(cyPm.o)
 .text.CyPmHibSlpSaveSet
                0x00000000      0x1dc .\CortexM3\ARM_GCC_541\Debug\PSoC_Project.a(cyPm.o)
 .text.CyPmHibSlpRestore
                0x00000000       0xd8 .\CortexM3\ARM_GCC_541\Debug\PSoC_Project.a(cyPm.o)
 .text.CyPmHviLviSaveDisable
                0x00000000       0xa0 .\CortexM3\ARM_GCC_541\Debug\PSoC_Project.a(cyPm.o)
 .text.CyPmHibSaveSet
                0x00000000       0x98 .\CortexM3\ARM_GCC_541\Debug\PSoC_Project.a(cyPm.o)
 .text.CyPmHviLviRestore
                0x00000000       0x48 .\CortexM3\ARM_GCC_541\Debug\PSoC_Project.a(cyPm.o)
 .text.CyPmHibRestore
                0x00000000       0x60 .\CortexM3\ARM_GCC_541\Debug\PSoC_Project.a(cyPm.o)
 .text.CyPmSaveClocks
                0x00000000      0x218 .\CortexM3\ARM_GCC_541\Debug\PSoC_Project.a(cyPm.o)
 .text.CyPmRestoreClocks
                0x00000000      0x24c .\CortexM3\ARM_GCC_541\Debug\PSoC_Project.a(cyPm.o)
 .text.CyPmAltAct
                0x00000000       0x6c .\CortexM3\ARM_GCC_541\Debug\PSoC_Project.a(cyPm.o)
 .text.CyPmSleep
                0x00000000       0xf4 .\CortexM3\ARM_GCC_541\Debug\PSoC_Project.a(cyPm.o)
 .text.CyPmHibernateEx
                0x00000000       0xf4 .\CortexM3\ARM_GCC_541\Debug\PSoC_Project.a(cyPm.o)
 .text.CyPmHibernate
                0x00000000        0xc .\CortexM3\ARM_GCC_541\Debug\PSoC_Project.a(cyPm.o)
 .text.CyPmReadStatus
                0x00000000       0x30 .\CortexM3\ARM_GCC_541\Debug\PSoC_Project.a(cyPm.o)
 .text.CyPmCtwSetInterval
                0x00000000       0x5c .\CortexM3\ARM_GCC_541\Debug\PSoC_Project.a(cyPm.o)
 .text.CyPmOppsSet
                0x00000000       0x2c .\CortexM3\ARM_GCC_541\Debug\PSoC_Project.a(cyPm.o)
 .text.CyPmFtwSetInterval
                0x00000000       0x5c .\CortexM3\ARM_GCC_541\Debug\PSoC_Project.a(cyPm.o)
 .rodata        0x00000000        0xf .\CortexM3\ARM_GCC_541\Debug\PSoC_Project.a(cyPm.o)
 .text          0x00000000        0x0 .\CortexM3\ARM_GCC_541\Debug\PSoC_Project.a(CySpc.o)
 .data          0x00000000        0x0 .\CortexM3\ARM_GCC_541\Debug\PSoC_Project.a(CySpc.o)
 .text.CySpcStop
                0x00000000       0x24 .\CortexM3\ARM_GCC_541\Debug\PSoC_Project.a(CySpc.o)
 .text.CySpcLoadRow
                0x00000000       0x50 .\CortexM3\ARM_GCC_541\Debug\PSoC_Project.a(CySpc.o)
 .text.CySpcLoadRowFull
                0x00000000       0x80 .\CortexM3\ARM_GCC_541\Debug\PSoC_Project.a(CySpc.o)
 .text.CySpcEraseSector
                0x00000000       0x3c .\CortexM3\ARM_GCC_541\Debug\PSoC_Project.a(CySpc.o)
 .text.CySpcEraseRow
                0x00000000       0x4c .\CortexM3\ARM_GCC_541\Debug\PSoC_Project.a(CySpc.o)
 .text          0x00000000        0x0 .\CortexM3\ARM_GCC_541\Debug\PSoC_Project.a(ADC_SigDel.o)
 .text.ADC_SigDel_SetBufferGain
                0x00000000       0x18 .\CortexM3\ARM_GCC_541\Debug\PSoC_Project.a(ADC_SigDel.o)
 .text.ADC_SigDel_SetCoherency
                0x00000000       0x18 .\CortexM3\ARM_GCC_541\Debug\PSoC_Project.a(ADC_SigDel.o)
 .text.ADC_SigDel_SetGCOR
                0x00000000       0x74 .\CortexM3\ARM_GCC_541\Debug\PSoC_Project.a(ADC_SigDel.o)
 .text.ADC_SigDel_ReadGCOR
                0x00000000       0x24 .\CortexM3\ARM_GCC_541\Debug\PSoC_Project.a(ADC_SigDel.o)
 .text.ADC_SigDel_StopConvert
                0x00000000       0x10 .\CortexM3\ARM_GCC_541\Debug\PSoC_Project.a(ADC_SigDel.o)
 .text.ADC_SigDel_IsEndConversion
                0x00000000       0x30 .\CortexM3\ARM_GCC_541\Debug\PSoC_Project.a(ADC_SigDel.o)
 .text.ADC_SigDel_GetResult8
                0x00000000       0x48 .\CortexM3\ARM_GCC_541\Debug\PSoC_Project.a(ADC_SigDel.o)
 .text.ADC_SigDel_GetResult32
                0x00000000       0x6c .\CortexM3\ARM_GCC_541\Debug\PSoC_Project.a(ADC_SigDel.o)
 .text.ADC_SigDel_SetOffset
                0x00000000        0xc .\CortexM3\ARM_GCC_541\Debug\PSoC_Project.a(ADC_SigDel.o)
 .text.ADC_SigDel_SetGain
                0x00000000        0xc .\CortexM3\ARM_GCC_541\Debug\PSoC_Project.a(ADC_SigDel.o)
 .text.ADC_SigDel_CountsTo_mVolts
                0x00000000       0x24 .\CortexM3\ARM_GCC_541\Debug\PSoC_Project.a(ADC_SigDel.o)
 .text.ADC_SigDel_CountsTo_Volts
                0x00000000       0x28 .\CortexM3\ARM_GCC_541\Debug\PSoC_Project.a(ADC_SigDel.o)
 .text.ADC_SigDel_CountsTo_uVolts
                0x00000000       0x78 .\CortexM3\ARM_GCC_541\Debug\PSoC_Project.a(ADC_SigDel.o)
 .text.ADC_SigDel_Read8
                0x00000000       0x28 .\CortexM3\ARM_GCC_541\Debug\PSoC_Project.a(ADC_SigDel.o)
 .text.ADC_SigDel_Read16
                0x00000000       0x28 .\CortexM3\ARM_GCC_541\Debug\PSoC_Project.a(ADC_SigDel.o)
 .text.ADC_SigDel_Read32
                0x00000000       0x28 .\CortexM3\ARM_GCC_541\Debug\PSoC_Project.a(ADC_SigDel.o)
 .text          0x00000000        0x0 .\CortexM3\ARM_GCC_541\Debug\PSoC_Project.a(ADC_SigDel_PM.o)
 .bss           0x00000000        0x0 .\CortexM3\ARM_GCC_541\Debug\PSoC_Project.a(ADC_SigDel_PM.o)
 .text          0x00000000        0x0 .\CortexM3\ARM_GCC_541\Debug\PSoC_Project.a(ADC_SigDel_INT.o)
 .data          0x00000000        0x0 .\CortexM3\ARM_GCC_541\Debug\PSoC_Project.a(ADC_SigDel_INT.o)
 .bss           0x00000000        0x0 .\CortexM3\ARM_GCC_541\Debug\PSoC_Project.a(ADC_SigDel_INT.o)
 .text.ADC_SigDel_ISR3
                0x00000000        0x4 .\CortexM3\ARM_GCC_541\Debug\PSoC_Project.a(ADC_SigDel_INT.o)
 .text.ADC_SigDel_ISR4
                0x00000000        0x4 .\CortexM3\ARM_GCC_541\Debug\PSoC_Project.a(ADC_SigDel_INT.o)
 .text          0x00000000        0x0 .\CortexM3\ARM_GCC_541\Debug\PSoC_Project.a(ADC_SigDel_Ext_CP_Clk.o)
 .data          0x00000000        0x0 .\CortexM3\ARM_GCC_541\Debug\PSoC_Project.a(ADC_SigDel_Ext_CP_Clk.o)
 .bss           0x00000000        0x0 .\CortexM3\ARM_GCC_541\Debug\PSoC_Project.a(ADC_SigDel_Ext_CP_Clk.o)
 .text.ADC_SigDel_Ext_CP_Clk_Start
                0x00000000       0x1c .\CortexM3\ARM_GCC_541\Debug\PSoC_Project.a(ADC_SigDel_Ext_CP_Clk.o)
 .text.ADC_SigDel_Ext_CP_Clk_Stop
                0x00000000       0x1c .\CortexM3\ARM_GCC_541\Debug\PSoC_Project.a(ADC_SigDel_Ext_CP_Clk.o)
 .text.ADC_SigDel_Ext_CP_Clk_StopBlock
                0x00000000       0x6c .\CortexM3\ARM_GCC_541\Debug\PSoC_Project.a(ADC_SigDel_Ext_CP_Clk.o)
 .text.ADC_SigDel_Ext_CP_Clk_StandbyPower
                0x00000000       0x20 .\CortexM3\ARM_GCC_541\Debug\PSoC_Project.a(ADC_SigDel_Ext_CP_Clk.o)
 .text.ADC_SigDel_Ext_CP_Clk_ClearModeRegister
                0x00000000       0x18 .\CortexM3\ARM_GCC_541\Debug\PSoC_Project.a(ADC_SigDel_Ext_CP_Clk.o)
 .text.ADC_SigDel_Ext_CP_Clk_GetModeRegister
                0x00000000       0x10 .\CortexM3\ARM_GCC_541\Debug\PSoC_Project.a(ADC_SigDel_Ext_CP_Clk.o)
 .text.ADC_SigDel_Ext_CP_Clk_SetSourceRegister
                0x00000000       0x5c .\CortexM3\ARM_GCC_541\Debug\PSoC_Project.a(ADC_SigDel_Ext_CP_Clk.o)
 .text          0x00000000        0x0 .\CortexM3\ARM_GCC_541\Debug\PSoC_Project.a(ADC_SigDel_theACLK.o)
 .data          0x00000000        0x0 .\CortexM3\ARM_GCC_541\Debug\PSoC_Project.a(ADC_SigDel_theACLK.o)
 .bss           0x00000000        0x0 .\CortexM3\ARM_GCC_541\Debug\PSoC_Project.a(ADC_SigDel_theACLK.o)
 .text.ADC_SigDel_theACLK_Start
                0x00000000       0x1c .\CortexM3\ARM_GCC_541\Debug\PSoC_Project.a(ADC_SigDel_theACLK.o)
 .text.ADC_SigDel_theACLK_Stop
                0x00000000       0x1c .\CortexM3\ARM_GCC_541\Debug\PSoC_Project.a(ADC_SigDel_theACLK.o)
 .text.ADC_SigDel_theACLK_StopBlock
                0x00000000       0x6c .\CortexM3\ARM_GCC_541\Debug\PSoC_Project.a(ADC_SigDel_theACLK.o)
 .text.ADC_SigDel_theACLK_StandbyPower
                0x00000000       0x20 .\CortexM3\ARM_GCC_541\Debug\PSoC_Project.a(ADC_SigDel_theACLK.o)
 .text.ADC_SigDel_theACLK_ClearModeRegister
                0x00000000       0x18 .\CortexM3\ARM_GCC_541\Debug\PSoC_Project.a(ADC_SigDel_theACLK.o)
 .text.ADC_SigDel_theACLK_GetModeRegister
                0x00000000       0x10 .\CortexM3\ARM_GCC_541\Debug\PSoC_Project.a(ADC_SigDel_theACLK.o)
 .text.ADC_SigDel_theACLK_SetSourceRegister
                0x00000000       0x5c .\CortexM3\ARM_GCC_541\Debug\PSoC_Project.a(ADC_SigDel_theACLK.o)
 .text.ADC_SigDel_theACLK_SetPhaseRegister
                0x00000000       0x10 .\CortexM3\ARM_GCC_541\Debug\PSoC_Project.a(ADC_SigDel_theACLK.o)
 .text.ADC_SigDel_theACLK_GetPhaseRegister
                0x00000000       0x10 .\CortexM3\ARM_GCC_541\Debug\PSoC_Project.a(ADC_SigDel_theACLK.o)
 .text          0x00000000        0x0 .\CortexM3\ARM_GCC_541\Debug\PSoC_Project.a(isr_UART_BT_RX.o)
 .data          0x00000000        0x0 .\CortexM3\ARM_GCC_541\Debug\PSoC_Project.a(isr_UART_BT_RX.o)
 .bss           0x00000000        0x0 .\CortexM3\ARM_GCC_541\Debug\PSoC_Project.a(isr_UART_BT_RX.o)
 .text.isr_UART_BT_RX_Interrupt
                0x00000000        0x4 .\CortexM3\ARM_GCC_541\Debug\PSoC_Project.a(isr_UART_BT_RX.o)
 .text.isr_UART_BT_RX_GetVector
                0x00000000        0xc .\CortexM3\ARM_GCC_541\Debug\PSoC_Project.a(isr_UART_BT_RX.o)
 .text.isr_UART_BT_RX_GetPriority
                0x00000000        0xc .\CortexM3\ARM_GCC_541\Debug\PSoC_Project.a(isr_UART_BT_RX.o)
 .text.isr_UART_BT_RX_GetState
                0x00000000       0x10 .\CortexM3\ARM_GCC_541\Debug\PSoC_Project.a(isr_UART_BT_RX.o)
 .text.isr_UART_BT_RX_Start
                0x00000000       0x1c .\CortexM3\ARM_GCC_541\Debug\PSoC_Project.a(isr_UART_BT_RX.o)
 .text.isr_UART_BT_RX_Stop
                0x00000000       0x14 .\CortexM3\ARM_GCC_541\Debug\PSoC_Project.a(isr_UART_BT_RX.o)
 .text.isr_UART_BT_RX_SetPending
                0x00000000        0xc .\CortexM3\ARM_GCC_541\Debug\PSoC_Project.a(isr_UART_BT_RX.o)
 .text.isr_UART_BT_RX_ClearPending
                0x00000000        0xc .\CortexM3\ARM_GCC_541\Debug\PSoC_Project.a(isr_UART_BT_RX.o)
 .text          0x00000000        0x0 .\CortexM3\ARM_GCC_541\Debug\PSoC_Project.a(LED_DAC.o)
 .data          0x00000000        0x0 .\CortexM3\ARM_GCC_541\Debug\PSoC_Project.a(LED_DAC.o)
 .bss           0x00000000        0x0 .\CortexM3\ARM_GCC_541\Debug\PSoC_Project.a(LED_DAC.o)
 .text.LED_DAC_SetDriveMode
                0x00000000       0x18 .\CortexM3\ARM_GCC_541\Debug\PSoC_Project.a(LED_DAC.o)
 .text.LED_DAC_Read
                0x00000000       0x10 .\CortexM3\ARM_GCC_541\Debug\PSoC_Project.a(LED_DAC.o)
 .text.LED_DAC_ReadDataReg
                0x00000000       0x10 .\CortexM3\ARM_GCC_541\Debug\PSoC_Project.a(LED_DAC.o)
 .text          0x00000000        0x0 .\CortexM3\ARM_GCC_541\Debug\PSoC_Project.a(LED_ADC.o)
 .data          0x00000000        0x0 .\CortexM3\ARM_GCC_541\Debug\PSoC_Project.a(LED_ADC.o)
 .bss           0x00000000        0x0 .\CortexM3\ARM_GCC_541\Debug\PSoC_Project.a(LED_ADC.o)
 .text.LED_ADC_SetDriveMode
                0x00000000       0x18 .\CortexM3\ARM_GCC_541\Debug\PSoC_Project.a(LED_ADC.o)
 .text.LED_ADC_Read
                0x00000000       0x10 .\CortexM3\ARM_GCC_541\Debug\PSoC_Project.a(LED_ADC.o)
 .text.LED_ADC_ReadDataReg
                0x00000000       0x10 .\CortexM3\ARM_GCC_541\Debug\PSoC_Project.a(LED_ADC.o)
 .data          0x00000000        0x0 .\CortexM3\ARM_GCC_541\Debug\PSoC_Project.a(CyBootAsmGnu.o)
 .bss           0x00000000        0x0 .\CortexM3\ARM_GCC_541\Debug\PSoC_Project.a(CyBootAsmGnu.o)
 .data          0x00000000        0x0 c:/program files (x86)/cypress/psoc creator/4.4/psoc creator/import/gnu/arm/5.4.1/bin/../lib/gcc/arm-none-eabi/5.4.1/armv7-m\libgcc.a(_arm_addsubdf3.o)
 .bss           0x00000000        0x0 c:/program files (x86)/cypress/psoc creator/4.4/psoc creator/import/gnu/arm/5.4.1/bin/../lib/gcc/arm-none-eabi/5.4.1/armv7-m\libgcc.a(_arm_addsubdf3.o)
 .data          0x00000000        0x0 c:/program files (x86)/cypress/psoc creator/4.4/psoc creator/import/gnu/arm/5.4.1/bin/../lib/gcc/arm-none-eabi/5.4.1/armv7-m\libgcc.a(_arm_muldivdf3.o)
 .bss           0x00000000        0x0 c:/program files (x86)/cypress/psoc creator/4.4/psoc creator/import/gnu/arm/5.4.1/bin/../lib/gcc/arm-none-eabi/5.4.1/armv7-m\libgcc.a(_arm_muldivdf3.o)
 .text          0x00000000      0x110 c:/program files (x86)/cypress/psoc creator/4.4/psoc creator/import/gnu/arm/5.4.1/bin/../lib/gcc/arm-none-eabi/5.4.1/armv7-m\libgcc.a(_arm_cmpdf2.o)
 .data          0x00000000        0x0 c:/program files (x86)/cypress/psoc creator/4.4/psoc creator/import/gnu/arm/5.4.1/bin/../lib/gcc/arm-none-eabi/5.4.1/armv7-m\libgcc.a(_arm_cmpdf2.o)
 .bss           0x00000000        0x0 c:/program files (x86)/cypress/psoc creator/4.4/psoc creator/import/gnu/arm/5.4.1/bin/../lib/gcc/arm-none-eabi/5.4.1/armv7-m\libgcc.a(_arm_cmpdf2.o)
 .data          0x00000000        0x0 c:/program files (x86)/cypress/psoc creator/4.4/psoc creator/import/gnu/arm/5.4.1/bin/../lib/gcc/arm-none-eabi/5.4.1/armv7-m\libgcc.a(_arm_truncdfsf2.o)
 .bss           0x00000000        0x0 c:/program files (x86)/cypress/psoc creator/4.4/psoc creator/import/gnu/arm/5.4.1/bin/../lib/gcc/arm-none-eabi/5.4.1/armv7-m\libgcc.a(_arm_truncdfsf2.o)
 .text          0x00000000      0x21c c:/program files (x86)/cypress/psoc creator/4.4/psoc creator/import/gnu/arm/5.4.1/bin/../lib/gcc/arm-none-eabi/5.4.1/armv7-m\libgcc.a(_arm_addsubsf3.o)
 .data          0x00000000        0x0 c:/program files (x86)/cypress/psoc creator/4.4/psoc creator/import/gnu/arm/5.4.1/bin/../lib/gcc/arm-none-eabi/5.4.1/armv7-m\libgcc.a(_arm_addsubsf3.o)
 .bss           0x00000000        0x0 c:/program files (x86)/cypress/psoc creator/4.4/psoc creator/import/gnu/arm/5.4.1/bin/../lib/gcc/arm-none-eabi/5.4.1/armv7-m\libgcc.a(_arm_addsubsf3.o)
 .text          0x00000000      0x2a0 c:/program files (x86)/cypress/psoc creator/4.4/psoc creator/import/gnu/arm/5.4.1/bin/../lib/gcc/arm-none-eabi/5.4.1/armv7-m\libgcc.a(_arm_muldivsf3.o)
 .data          0x00000000        0x0 c:/program files (x86)/cypress/psoc creator/4.4/psoc creator/import/gnu/arm/5.4.1/bin/../lib/gcc/arm-none-eabi/5.4.1/armv7-m\libgcc.a(_arm_muldivsf3.o)
 .bss           0x00000000        0x0 c:/program files (x86)/cypress/psoc creator/4.4/psoc creator/import/gnu/arm/5.4.1/bin/../lib/gcc/arm-none-eabi/5.4.1/armv7-m\libgcc.a(_arm_muldivsf3.o)
 .data          0x00000000        0x0 c:/program files (x86)/cypress/psoc creator/4.4/psoc creator/import/gnu/arm/5.4.1/bin/../lib/gcc/arm-none-eabi/5.4.1/armv7-m\libgcc.a(_arm_fixsfsi.o)
 .bss           0x00000000        0x0 c:/program files (x86)/cypress/psoc creator/4.4/psoc creator/import/gnu/arm/5.4.1/bin/../lib/gcc/arm-none-eabi/5.4.1/armv7-m\libgcc.a(_arm_fixsfsi.o)
 .text          0x00000000       0x40 c:/program files (x86)/cypress/psoc creator/4.4/psoc creator/import/gnu/arm/5.4.1/bin/../lib/gcc/arm-none-eabi/5.4.1/armv7-m\libgcc.a(_arm_fixunssfsi.o)
 .data          0x00000000        0x0 c:/program files (x86)/cypress/psoc creator/4.4/psoc creator/import/gnu/arm/5.4.1/bin/../lib/gcc/arm-none-eabi/5.4.1/armv7-m\libgcc.a(_arm_fixunssfsi.o)
 .bss           0x00000000        0x0 c:/program files (x86)/cypress/psoc creator/4.4/psoc creator/import/gnu/arm/5.4.1/bin/../lib/gcc/arm-none-eabi/5.4.1/armv7-m\libgcc.a(_arm_fixunssfsi.o)
 .text          0x00000000        0x0 c:/program files (x86)/cypress/psoc creator/4.4/psoc creator/import/gnu/arm/5.4.1/bin/../lib/gcc/arm-none-eabi/5.4.1/../../../../arm-none-eabi/lib/armv7-m\libg_nano.a(lib_a-errno.o)
 .data          0x00000000        0x0 c:/program files (x86)/cypress/psoc creator/4.4/psoc creator/import/gnu/arm/5.4.1/bin/../lib/gcc/arm-none-eabi/5.4.1/../../../../arm-none-eabi/lib/armv7-m\libg_nano.a(lib_a-errno.o)
 .bss           0x00000000        0x0 c:/program files (x86)/cypress/psoc creator/4.4/psoc creator/import/gnu/arm/5.4.1/bin/../lib/gcc/arm-none-eabi/5.4.1/../../../../arm-none-eabi/lib/armv7-m\libg_nano.a(lib_a-errno.o)
 .text          0x00000000        0x0 c:/program files (x86)/cypress/psoc creator/4.4/psoc creator/import/gnu/arm/5.4.1/bin/../lib/gcc/arm-none-eabi/5.4.1/../../../../arm-none-eabi/lib/armv7-m\libg_nano.a(lib_a-exit.o)
 .data          0x00000000        0x0 c:/program files (x86)/cypress/psoc creator/4.4/psoc creator/import/gnu/arm/5.4.1/bin/../lib/gcc/arm-none-eabi/5.4.1/../../../../arm-none-eabi/lib/armv7-m\libg_nano.a(lib_a-exit.o)
 .bss           0x00000000        0x0 c:/program files (x86)/cypress/psoc creator/4.4/psoc creator/import/gnu/arm/5.4.1/bin/../lib/gcc/arm-none-eabi/5.4.1/../../../../arm-none-eabi/lib/armv7-m\libg_nano.a(lib_a-exit.o)
 .text.exit     0x00000000       0x28 c:/program files (x86)/cypress/psoc creator/4.4/psoc creator/import/gnu/arm/5.4.1/bin/../lib/gcc/arm-none-eabi/5.4.1/../../../../arm-none-eabi/lib/armv7-m\libg_nano.a(lib_a-exit.o)
 .text          0x00000000        0x0 c:/program files (x86)/cypress/psoc creator/4.4/psoc creator/import/gnu/arm/5.4.1/bin/../lib/gcc/arm-none-eabi/5.4.1/../../../../arm-none-eabi/lib/armv7-m\libg_nano.a(lib_a-impure.o)
 .data          0x00000000        0x0 c:/program files (x86)/cypress/psoc creator/4.4/psoc creator/import/gnu/arm/5.4.1/bin/../lib/gcc/arm-none-eabi/5.4.1/../../../../arm-none-eabi/lib/armv7-m\libg_nano.a(lib_a-impure.o)
 .bss           0x00000000        0x0 c:/program files (x86)/cypress/psoc creator/4.4/psoc creator/import/gnu/arm/5.4.1/bin/../lib/gcc/arm-none-eabi/5.4.1/../../../../arm-none-eabi/lib/armv7-m\libg_nano.a(lib_a-impure.o)
 .text          0x00000000        0x0 c:/program files (x86)/cypress/psoc creator/4.4/psoc creator/import/gnu/arm/5.4.1/bin/../lib/gcc/arm-none-eabi/5.4.1/../../../../arm-none-eabi/lib/armv7-m\libg_nano.a(lib_a-init.o)
 .data          0x00000000        0x0 c:/program files (x86)/cypress/psoc creator/4.4/psoc creator/import/gnu/arm/5.4.1/bin/../lib/gcc/arm-none-eabi/5.4.1/../../../../arm-none-eabi/lib/armv7-m\libg_nano.a(lib_a-init.o)
 .bss           0x00000000        0x0 c:/program files (x86)/cypress/psoc creator/4.4/psoc creator/import/gnu/arm/5.4.1/bin/../lib/gcc/arm-none-eabi/5.4.1/../../../../arm-none-eabi/lib/armv7-m\libg_nano.a(lib_a-init.o)
 .text          0x00000000        0x0 c:/program files (x86)/cypress/psoc creator/4.4/psoc creator/import/gnu/arm/5.4.1/bin/../lib/gcc/arm-none-eabi/5.4.1/../../../../arm-none-eabi/lib/armv7-m\libg_nano.a(lib_a-memcpy-stub.o)
 .data          0x00000000        0x0 c:/program files (x86)/cypress/psoc creator/4.4/psoc creator/import/gnu/arm/5.4.1/bin/../lib/gcc/arm-none-eabi/5.4.1/../../../../arm-none-eabi/lib/armv7-m\libg_nano.a(lib_a-memcpy-stub.o)
 .bss           0x00000000        0x0 c:/program files (x86)/cypress/psoc creator/4.4/psoc creator/import/gnu/arm/5.4.1/bin/../lib/gcc/arm-none-eabi/5.4.1/../../../../arm-none-eabi/lib/armv7-m\libg_nano.a(lib_a-memcpy-stub.o)
 .text          0x00000000        0x0 c:/program files (x86)/cypress/psoc creator/4.4/psoc creator/import/gnu/arm/5.4.1/bin/../lib/gcc/arm-none-eabi/5.4.1/../../../../arm-none-eabi/lib/armv7-m\libg_nano.a(lib_a-memset.o)
 .data          0x00000000        0x0 c:/program files (x86)/cypress/psoc creator/4.4/psoc creator/import/gnu/arm/5.4.1/bin/../lib/gcc/arm-none-eabi/5.4.1/../../../../arm-none-eabi/lib/armv7-m\libg_nano.a(lib_a-memset.o)
 .bss           0x00000000        0x0 c:/program files (x86)/cypress/psoc creator/4.4/psoc creator/import/gnu/arm/5.4.1/bin/../lib/gcc/arm-none-eabi/5.4.1/../../../../arm-none-eabi/lib/armv7-m\libg_nano.a(lib_a-memset.o)
 .text          0x00000000        0x0 c:/program files (x86)/cypress/psoc creator/4.4/psoc creator/import/gnu/arm/5.4.1/bin/../lib/gcc/arm-none-eabi/5.4.1/../../../../arm-none-eabi/lib/armv7-m\libg_nano.a(lib_a-printf.o)
 .data          0x00000000        0x0 c:/program files (x86)/cypress/psoc creator/4.4/psoc creator/import/gnu/arm/5.4.1/bin/../lib/gcc/arm-none-eabi/5.4.1/../../../../arm-none-eabi/lib/armv7-m\libg_nano.a(lib_a-printf.o)
 .bss           0x00000000        0x0 c:/program files (x86)/cypress/psoc creator/4.4/psoc creator/import/gnu/arm/5.4.1/bin/../lib/gcc/arm-none-eabi/5.4.1/../../../../arm-none-eabi/lib/armv7-m\libg_nano.a(lib_a-printf.o)
 .text._printf_r
                0x00000000       0x28 c:/program files (x86)/cypress/psoc creator/4.4/psoc creator/import/gnu/arm/5.4.1/bin/../lib/gcc/arm-none-eabi/5.4.1/../../../../arm-none-eabi/lib/armv7-m\libg_nano.a(lib_a-printf.o)
 .text          0x00000000        0x0 c:/program files (x86)/cypress/psoc creator/4.4/psoc creator/import/gnu/arm/5.4.1/bin/../lib/gcc/arm-none-eabi/5.4.1/../../../../arm-none-eabi/lib/armv7-m\libg_nano.a(lib_a-findfp.o)
 .data          0x00000000        0x0 c:/program files (x86)/cypress/psoc creator/4.4/psoc creator/import/gnu/arm/5.4.1/bin/../lib/gcc/arm-none-eabi/5.4.1/../../../../arm-none-eabi/lib/armv7-m\libg_nano.a(lib_a-findfp.o)
 .bss           0x00000000        0x0 c:/program files (x86)/cypress/psoc creator/4.4/psoc creator/import/gnu/arm/5.4.1/bin/../lib/gcc/arm-none-eabi/5.4.1/../../../../arm-none-eabi/lib/armv7-m\libg_nano.a(lib_a-findfp.o)
 .text.__fp_unlock
                0x00000000        0x4 c:/program files (x86)/cypress/psoc creator/4.4/psoc creator/import/gnu/arm/5.4.1/bin/../lib/gcc/arm-none-eabi/5.4.1/../../../../arm-none-eabi/lib/armv7-m\libg_nano.a(lib_a-findfp.o)
 .text.__fp_lock
                0x00000000        0x4 c:/program files (x86)/cypress/psoc creator/4.4/psoc creator/import/gnu/arm/5.4.1/bin/../lib/gcc/arm-none-eabi/5.4.1/../../../../arm-none-eabi/lib/armv7-m\libg_nano.a(lib_a-findfp.o)
 .text._cleanup
                0x00000000        0xc c:/program files (x86)/cypress/psoc creator/4.4/psoc creator/import/gnu/arm/5.4.1/bin/../lib/gcc/arm-none-eabi/5.4.1/../../../../arm-none-eabi/lib/armv7-m\libg_nano.a(lib_a-findfp.o)
 .text.__sfp_lock_acquire
                0x00000000        0x2 c:/program files (x86)/cypress/psoc creator/4.4/psoc creator/import/gnu/arm/5.4.1/bin/../lib/gcc/arm-none-eabi/5.4.1/../../../../arm-none-eabi/lib/armv7-m\libg_nano.a(lib_a-findfp.o)
 .text.__sfp_lock_release
                0x00000000        0x2 c:/program files (x86)/cypress/psoc creator/4.4/psoc creator/import/gnu/arm/5.4.1/bin/../lib/gcc/arm-none-eabi/5.4.1/../../../../arm-none-eabi/lib/armv7-m\libg_nano.a(lib_a-findfp.o)
 .text.__sinit_lock_acquire
                0x00000000        0x2 c:/program files (x86)/cypress/psoc creator/4.4/psoc creator/import/gnu/arm/5.4.1/bin/../lib/gcc/arm-none-eabi/5.4.1/../../../../arm-none-eabi/lib/armv7-m\libg_nano.a(lib_a-findfp.o)
 .text.__sinit_lock_release
                0x00000000        0x2 c:/program files (x86)/cypress/psoc creator/4.4/psoc creator/import/gnu/arm/5.4.1/bin/../lib/gcc/arm-none-eabi/5.4.1/../../../../arm-none-eabi/lib/armv7-m\libg_nano.a(lib_a-findfp.o)
 .text.__fp_lock_all
                0x00000000       0x14 c:/program files (x86)/cypress/psoc creator/4.4/psoc creator/import/gnu/arm/5.4.1/bin/../lib/gcc/arm-none-eabi/5.4.1/../../../../arm-none-eabi/lib/armv7-m\libg_nano.a(lib_a-findfp.o)
 .text.__fp_unlock_all
                0x00000000       0x14 c:/program files (x86)/cypress/psoc creator/4.4/psoc creator/import/gnu/arm/5.4.1/bin/../lib/gcc/arm-none-eabi/5.4.1/../../../../arm-none-eabi/lib/armv7-m\libg_nano.a(lib_a-findfp.o)
 .text          0x00000000        0x0 c:/program files (x86)/cypress/psoc creator/4.4/psoc creator/import/gnu/arm/5.4.1/bin/../lib/gcc/arm-none-eabi/5.4.1/../../../../arm-none-eabi/lib/armv7-m\libg_nano.a(lib_a-fwalk.o)
 .data          0x00000000        0x0 c:/program files (x86)/cypress/psoc creator/4.4/psoc creator/import/gnu/arm/5.4.1/bin/../lib/gcc/arm-none-eabi/5.4.1/../../../../arm-none-eabi/lib/armv7-m\libg_nano.a(lib_a-fwalk.o)
 .bss           0x00000000        0x0 c:/program files (x86)/cypress/psoc creator/4.4/psoc creator/import/gnu/arm/5.4.1/bin/../lib/gcc/arm-none-eabi/5.4.1/../../../../arm-none-eabi/lib/armv7-m\libg_nano.a(lib_a-fwalk.o)
 .text._fwalk   0x00000000       0x38 c:/program files (x86)/cypress/psoc creator/4.4/psoc creator/import/gnu/arm/5.4.1/bin/../lib/gcc/arm-none-eabi/5.4.1/../../../../arm-none-eabi/lib/armv7-m\libg_nano.a(lib_a-fwalk.o)
 .text          0x00000000        0x0 c:/program files (x86)/cypress/psoc creator/4.4/psoc creator/import/gnu/arm/5.4.1/bin/../lib/gcc/arm-none-eabi/5.4.1/../../../../arm-none-eabi/lib/armv7-m\libg_nano.a(lib_a-nano-mallocr.o)
 .data          0x00000000        0x0 c:/program files (x86)/cypress/psoc creator/4.4/psoc creator/import/gnu/arm/5.4.1/bin/../lib/gcc/arm-none-eabi/5.4.1/../../../../arm-none-eabi/lib/armv7-m\libg_nano.a(lib_a-nano-mallocr.o)
 .bss           0x00000000        0x0 c:/program files (x86)/cypress/psoc creator/4.4/psoc creator/import/gnu/arm/5.4.1/bin/../lib/gcc/arm-none-eabi/5.4.1/../../../../arm-none-eabi/lib/armv7-m\libg_nano.a(lib_a-nano-mallocr.o)
 .text          0x00000000        0x0 c:/program files (x86)/cypress/psoc creator/4.4/psoc creator/import/gnu/arm/5.4.1/bin/../lib/gcc/arm-none-eabi/5.4.1/../../../../arm-none-eabi/lib/armv7-m\libg_nano.a(lib_a-nano-vfprintf.o)
 .data          0x00000000        0x0 c:/program files (x86)/cypress/psoc creator/4.4/psoc creator/import/gnu/arm/5.4.1/bin/../lib/gcc/arm-none-eabi/5.4.1/../../../../arm-none-eabi/lib/armv7-m\libg_nano.a(lib_a-nano-vfprintf.o)
 .bss           0x00000000        0x0 c:/program files (x86)/cypress/psoc creator/4.4/psoc creator/import/gnu/arm/5.4.1/bin/../lib/gcc/arm-none-eabi/5.4.1/../../../../arm-none-eabi/lib/armv7-m\libg_nano.a(lib_a-nano-vfprintf.o)
 .text.__sprint_r
                0x00000000       0x1a c:/program files (x86)/cypress/psoc creator/4.4/psoc creator/import/gnu/arm/5.4.1/bin/../lib/gcc/arm-none-eabi/5.4.1/../../../../arm-none-eabi/lib/armv7-m\libg_nano.a(lib_a-nano-vfprintf.o)
 .text.vfprintf
                0x00000000       0x14 c:/program files (x86)/cypress/psoc creator/4.4/psoc creator/import/gnu/arm/5.4.1/bin/../lib/gcc/arm-none-eabi/5.4.1/../../../../arm-none-eabi/lib/armv7-m\libg_nano.a(lib_a-nano-vfprintf.o)
 .text          0x00000000        0x0 c:/program files (x86)/cypress/psoc creator/4.4/psoc creator/import/gnu/arm/5.4.1/bin/../lib/gcc/arm-none-eabi/5.4.1/../../../../arm-none-eabi/lib/armv7-m\libg_nano.a(lib_a-nano-vfprintf_i.o)
 .data          0x00000000        0x0 c:/program files (x86)/cypress/psoc creator/4.4/psoc creator/import/gnu/arm/5.4.1/bin/../lib/gcc/arm-none-eabi/5.4.1/../../../../arm-none-eabi/lib/armv7-m\libg_nano.a(lib_a-nano-vfprintf_i.o)
 .bss           0x00000000        0x0 c:/program files (x86)/cypress/psoc creator/4.4/psoc creator/import/gnu/arm/5.4.1/bin/../lib/gcc/arm-none-eabi/5.4.1/../../../../arm-none-eabi/lib/armv7-m\libg_nano.a(lib_a-nano-vfprintf_i.o)
 .text          0x00000000        0x0 c:/program files (x86)/cypress/psoc creator/4.4/psoc creator/import/gnu/arm/5.4.1/bin/../lib/gcc/arm-none-eabi/5.4.1/../../../../arm-none-eabi/lib/armv7-m\libg_nano.a(lib_a-sbrkr.o)
 .data          0x00000000        0x0 c:/program files (x86)/cypress/psoc creator/4.4/psoc creator/import/gnu/arm/5.4.1/bin/../lib/gcc/arm-none-eabi/5.4.1/../../../../arm-none-eabi/lib/armv7-m\libg_nano.a(lib_a-sbrkr.o)
 .bss           0x00000000        0x0 c:/program files (x86)/cypress/psoc creator/4.4/psoc creator/import/gnu/arm/5.4.1/bin/../lib/gcc/arm-none-eabi/5.4.1/../../../../arm-none-eabi/lib/armv7-m\libg_nano.a(lib_a-sbrkr.o)
 .text          0x00000000        0x0 c:/program files (x86)/cypress/psoc creator/4.4/psoc creator/import/gnu/arm/5.4.1/bin/../lib/gcc/arm-none-eabi/5.4.1/../../../../arm-none-eabi/lib/armv7-m\libg_nano.a(lib_a-stdio.o)
 .data          0x00000000        0x0 c:/program files (x86)/cypress/psoc creator/4.4/psoc creator/import/gnu/arm/5.4.1/bin/../lib/gcc/arm-none-eabi/5.4.1/../../../../arm-none-eabi/lib/armv7-m\libg_nano.a(lib_a-stdio.o)
 .bss           0x00000000        0x0 c:/program files (x86)/cypress/psoc creator/4.4/psoc creator/import/gnu/arm/5.4.1/bin/../lib/gcc/arm-none-eabi/5.4.1/../../../../arm-none-eabi/lib/armv7-m\libg_nano.a(lib_a-stdio.o)
 .text.__seofread
                0x00000000        0x4 c:/program files (x86)/cypress/psoc creator/4.4/psoc creator/import/gnu/arm/5.4.1/bin/../lib/gcc/arm-none-eabi/5.4.1/../../../../arm-none-eabi/lib/armv7-m\libg_nano.a(lib_a-stdio.o)
 .text          0x00000000        0x0 c:/program files (x86)/cypress/psoc creator/4.4/psoc creator/import/gnu/arm/5.4.1/bin/../lib/gcc/arm-none-eabi/5.4.1/../../../../arm-none-eabi/lib/armv7-m\libg_nano.a(lib_a-wbuf.o)
 .data          0x00000000        0x0 c:/program files (x86)/cypress/psoc creator/4.4/psoc creator/import/gnu/arm/5.4.1/bin/../lib/gcc/arm-none-eabi/5.4.1/../../../../arm-none-eabi/lib/armv7-m\libg_nano.a(lib_a-wbuf.o)
 .bss           0x00000000        0x0 c:/program files (x86)/cypress/psoc creator/4.4/psoc creator/import/gnu/arm/5.4.1/bin/../lib/gcc/arm-none-eabi/5.4.1/../../../../arm-none-eabi/lib/armv7-m\libg_nano.a(lib_a-wbuf.o)
 .text.__swbuf  0x00000000       0x10 c:/program files (x86)/cypress/psoc creator/4.4/psoc creator/import/gnu/arm/5.4.1/bin/../lib/gcc/arm-none-eabi/5.4.1/../../../../arm-none-eabi/lib/armv7-m\libg_nano.a(lib_a-wbuf.o)
 .text          0x00000000        0x0 c:/program files (x86)/cypress/psoc creator/4.4/psoc creator/import/gnu/arm/5.4.1/bin/../lib/gcc/arm-none-eabi/5.4.1/../../../../arm-none-eabi/lib/armv7-m\libg_nano.a(lib_a-writer.o)
 .data          0x00000000        0x0 c:/program files (x86)/cypress/psoc creator/4.4/psoc creator/import/gnu/arm/5.4.1/bin/../lib/gcc/arm-none-eabi/5.4.1/../../../../arm-none-eabi/lib/armv7-m\libg_nano.a(lib_a-writer.o)
 .bss           0x00000000        0x0 c:/program files (x86)/cypress/psoc creator/4.4/psoc creator/import/gnu/arm/5.4.1/bin/../lib/gcc/arm-none-eabi/5.4.1/../../../../arm-none-eabi/lib/armv7-m\libg_nano.a(lib_a-writer.o)
 .text          0x00000000        0x0 c:/program files (x86)/cypress/psoc creator/4.4/psoc creator/import/gnu/arm/5.4.1/bin/../lib/gcc/arm-none-eabi/5.4.1/../../../../arm-none-eabi/lib/armv7-m\libg_nano.a(lib_a-wsetup.o)
 .data          0x00000000        0x0 c:/program files (x86)/cypress/psoc creator/4.4/psoc creator/import/gnu/arm/5.4.1/bin/../lib/gcc/arm-none-eabi/5.4.1/../../../../arm-none-eabi/lib/armv7-m\libg_nano.a(lib_a-wsetup.o)
 .bss           0x00000000        0x0 c:/program files (x86)/cypress/psoc creator/4.4/psoc creator/import/gnu/arm/5.4.1/bin/../lib/gcc/arm-none-eabi/5.4.1/../../../../arm-none-eabi/lib/armv7-m\libg_nano.a(lib_a-wsetup.o)
 .text          0x00000000        0x0 c:/program files (x86)/cypress/psoc creator/4.4/psoc creator/import/gnu/arm/5.4.1/bin/../lib/gcc/arm-none-eabi/5.4.1/../../../../arm-none-eabi/lib/armv7-m\libg_nano.a(lib_a-closer.o)
 .data          0x00000000        0x0 c:/program files (x86)/cypress/psoc creator/4.4/psoc creator/import/gnu/arm/5.4.1/bin/../lib/gcc/arm-none-eabi/5.4.1/../../../../arm-none-eabi/lib/armv7-m\libg_nano.a(lib_a-closer.o)
 .bss           0x00000000        0x0 c:/program files (x86)/cypress/psoc creator/4.4/psoc creator/import/gnu/arm/5.4.1/bin/../lib/gcc/arm-none-eabi/5.4.1/../../../../arm-none-eabi/lib/armv7-m\libg_nano.a(lib_a-closer.o)
 .text          0x00000000        0x0 c:/program files (x86)/cypress/psoc creator/4.4/psoc creator/import/gnu/arm/5.4.1/bin/../lib/gcc/arm-none-eabi/5.4.1/../../../../arm-none-eabi/lib/armv7-m\libg_nano.a(lib_a-fflush.o)
 .data          0x00000000        0x0 c:/program files (x86)/cypress/psoc creator/4.4/psoc creator/import/gnu/arm/5.4.1/bin/../lib/gcc/arm-none-eabi/5.4.1/../../../../arm-none-eabi/lib/armv7-m\libg_nano.a(lib_a-fflush.o)
 .bss           0x00000000        0x0 c:/program files (x86)/cypress/psoc creator/4.4/psoc creator/import/gnu/arm/5.4.1/bin/../lib/gcc/arm-none-eabi/5.4.1/../../../../arm-none-eabi/lib/armv7-m\libg_nano.a(lib_a-fflush.o)
 .text.fflush   0x00000000       0x24 c:/program files (x86)/cypress/psoc creator/4.4/psoc creator/import/gnu/arm/5.4.1/bin/../lib/gcc/arm-none-eabi/5.4.1/../../../../arm-none-eabi/lib/armv7-m\libg_nano.a(lib_a-fflush.o)
 .text          0x00000000        0x0 c:/program files (x86)/cypress/psoc creator/4.4/psoc creator/import/gnu/arm/5.4.1/bin/../lib/gcc/arm-none-eabi/5.4.1/../../../../arm-none-eabi/lib/armv7-m\libg_nano.a(lib_a-fvwrite.o)
 .data          0x00000000        0x0 c:/program files (x86)/cypress/psoc creator/4.4/psoc creator/import/gnu/arm/5.4.1/bin/../lib/gcc/arm-none-eabi/5.4.1/../../../../arm-none-eabi/lib/armv7-m\libg_nano.a(lib_a-fvwrite.o)
 .bss           0x00000000        0x0 c:/program files (x86)/cypress/psoc creator/4.4/psoc creator/import/gnu/arm/5.4.1/bin/../lib/gcc/arm-none-eabi/5.4.1/../../../../arm-none-eabi/lib/armv7-m\libg_nano.a(lib_a-fvwrite.o)
 .text.__sfvwrite_r
                0x00000000      0x294 c:/program files (x86)/cypress/psoc creator/4.4/psoc creator/import/gnu/arm/5.4.1/bin/../lib/gcc/arm-none-eabi/5.4.1/../../../../arm-none-eabi/lib/armv7-m\libg_nano.a(lib_a-fvwrite.o)
 .text          0x00000000        0x0 c:/program files (x86)/cypress/psoc creator/4.4/psoc creator/import/gnu/arm/5.4.1/bin/../lib/gcc/arm-none-eabi/5.4.1/../../../../arm-none-eabi/lib/armv7-m\libg_nano.a(lib_a-lseekr.o)
 .data          0x00000000        0x0 c:/program files (x86)/cypress/psoc creator/4.4/psoc creator/import/gnu/arm/5.4.1/bin/../lib/gcc/arm-none-eabi/5.4.1/../../../../arm-none-eabi/lib/armv7-m\libg_nano.a(lib_a-lseekr.o)
 .bss           0x00000000        0x0 c:/program files (x86)/cypress/psoc creator/4.4/psoc creator/import/gnu/arm/5.4.1/bin/../lib/gcc/arm-none-eabi/5.4.1/../../../../arm-none-eabi/lib/armv7-m\libg_nano.a(lib_a-lseekr.o)
 .text          0x00000000        0x0 c:/program files (x86)/cypress/psoc creator/4.4/psoc creator/import/gnu/arm/5.4.1/bin/../lib/gcc/arm-none-eabi/5.4.1/../../../../arm-none-eabi/lib/armv7-m\libg_nano.a(lib_a-makebuf.o)
 .data          0x00000000        0x0 c:/program files (x86)/cypress/psoc creator/4.4/psoc creator/import/gnu/arm/5.4.1/bin/../lib/gcc/arm-none-eabi/5.4.1/../../../../arm-none-eabi/lib/armv7-m\libg_nano.a(lib_a-makebuf.o)
 .bss           0x00000000        0x0 c:/program files (x86)/cypress/psoc creator/4.4/psoc creator/import/gnu/arm/5.4.1/bin/../lib/gcc/arm-none-eabi/5.4.1/../../../../arm-none-eabi/lib/armv7-m\libg_nano.a(lib_a-makebuf.o)
 .text          0x00000000        0x0 c:/program files (x86)/cypress/psoc creator/4.4/psoc creator/import/gnu/arm/5.4.1/bin/../lib/gcc/arm-none-eabi/5.4.1/../../../../arm-none-eabi/lib/armv7-m\libg_nano.a(lib_a-memchr-stub.o)
 .data          0x00000000        0x0 c:/program files (x86)/cypress/psoc creator/4.4/psoc creator/import/gnu/arm/5.4.1/bin/../lib/gcc/arm-none-eabi/5.4.1/../../../../arm-none-eabi/lib/armv7-m\libg_nano.a(lib_a-memchr-stub.o)
 .bss           0x00000000        0x0 c:/program files (x86)/cypress/psoc creator/4.4/psoc creator/import/gnu/arm/5.4.1/bin/../lib/gcc/arm-none-eabi/5.4.1/../../../../arm-none-eabi/lib/armv7-m\libg_nano.a(lib_a-memchr-stub.o)
 .text          0x00000000        0x0 c:/program files (x86)/cypress/psoc creator/4.4/psoc creator/import/gnu/arm/5.4.1/bin/../lib/gcc/arm-none-eabi/5.4.1/../../../../arm-none-eabi/lib/armv7-m\libg_nano.a(lib_a-memmove.o)
 .data          0x00000000        0x0 c:/program files (x86)/cypress/psoc creator/4.4/psoc creator/import/gnu/arm/5.4.1/bin/../lib/gcc/arm-none-eabi/5.4.1/../../../../arm-none-eabi/lib/armv7-m\libg_nano.a(lib_a-memmove.o)
 .bss           0x00000000        0x0 c:/program files (x86)/cypress/psoc creator/4.4/psoc creator/import/gnu/arm/5.4.1/bin/../lib/gcc/arm-none-eabi/5.4.1/../../../../arm-none-eabi/lib/armv7-m\libg_nano.a(lib_a-memmove.o)
 .text.memmove  0x00000000       0x36 c:/program files (x86)/cypress/psoc creator/4.4/psoc creator/import/gnu/arm/5.4.1/bin/../lib/gcc/arm-none-eabi/5.4.1/../../../../arm-none-eabi/lib/armv7-m\libg_nano.a(lib_a-memmove.o)
 .text          0x00000000        0x0 c:/program files (x86)/cypress/psoc creator/4.4/psoc creator/import/gnu/arm/5.4.1/bin/../lib/gcc/arm-none-eabi/5.4.1/../../../../arm-none-eabi/lib/armv7-m\libg_nano.a(lib_a-mlock.o)
 .data          0x00000000        0x0 c:/program files (x86)/cypress/psoc creator/4.4/psoc creator/import/gnu/arm/5.4.1/bin/../lib/gcc/arm-none-eabi/5.4.1/../../../../arm-none-eabi/lib/armv7-m\libg_nano.a(lib_a-mlock.o)
 .bss           0x00000000        0x0 c:/program files (x86)/cypress/psoc creator/4.4/psoc creator/import/gnu/arm/5.4.1/bin/../lib/gcc/arm-none-eabi/5.4.1/../../../../arm-none-eabi/lib/armv7-m\libg_nano.a(lib_a-mlock.o)
 .text          0x00000000        0x0 c:/program files (x86)/cypress/psoc creator/4.4/psoc creator/import/gnu/arm/5.4.1/bin/../lib/gcc/arm-none-eabi/5.4.1/../../../../arm-none-eabi/lib/armv7-m\libg_nano.a(lib_a-nano-freer.o)
 .data          0x00000000        0x0 c:/program files (x86)/cypress/psoc creator/4.4/psoc creator/import/gnu/arm/5.4.1/bin/../lib/gcc/arm-none-eabi/5.4.1/../../../../arm-none-eabi/lib/armv7-m\libg_nano.a(lib_a-nano-freer.o)
 .bss           0x00000000        0x0 c:/program files (x86)/cypress/psoc creator/4.4/psoc creator/import/gnu/arm/5.4.1/bin/../lib/gcc/arm-none-eabi/5.4.1/../../../../arm-none-eabi/lib/armv7-m\libg_nano.a(lib_a-nano-freer.o)
 .text          0x00000000        0x0 c:/program files (x86)/cypress/psoc creator/4.4/psoc creator/import/gnu/arm/5.4.1/bin/../lib/gcc/arm-none-eabi/5.4.1/../../../../arm-none-eabi/lib/armv7-m\libg_nano.a(lib_a-nano-reallocr.o)
 .data          0x00000000        0x0 c:/program files (x86)/cypress/psoc creator/4.4/psoc creator/import/gnu/arm/5.4.1/bin/../lib/gcc/arm-none-eabi/5.4.1/../../../../arm-none-eabi/lib/armv7-m\libg_nano.a(lib_a-nano-reallocr.o)
 .bss           0x00000000        0x0 c:/program files (x86)/cypress/psoc creator/4.4/psoc creator/import/gnu/arm/5.4.1/bin/../lib/gcc/arm-none-eabi/5.4.1/../../../../arm-none-eabi/lib/armv7-m\libg_nano.a(lib_a-nano-reallocr.o)
 .text._realloc_r
                0x00000000       0x4c c:/program files (x86)/cypress/psoc creator/4.4/psoc creator/import/gnu/arm/5.4.1/bin/../lib/gcc/arm-none-eabi/5.4.1/../../../../arm-none-eabi/lib/armv7-m\libg_nano.a(lib_a-nano-reallocr.o)
 .text          0x00000000        0x0 c:/program files (x86)/cypress/psoc creator/4.4/psoc creator/import/gnu/arm/5.4.1/bin/../lib/gcc/arm-none-eabi/5.4.1/../../../../arm-none-eabi/lib/armv7-m\libg_nano.a(lib_a-readr.o)
 .data          0x00000000        0x0 c:/program files (x86)/cypress/psoc creator/4.4/psoc creator/import/gnu/arm/5.4.1/bin/../lib/gcc/arm-none-eabi/5.4.1/../../../../arm-none-eabi/lib/armv7-m\libg_nano.a(lib_a-readr.o)
 .bss           0x00000000        0x0 c:/program files (x86)/cypress/psoc creator/4.4/psoc creator/import/gnu/arm/5.4.1/bin/../lib/gcc/arm-none-eabi/5.4.1/../../../../arm-none-eabi/lib/armv7-m\libg_nano.a(lib_a-readr.o)
 .text          0x00000000        0x0 c:/program files (x86)/cypress/psoc creator/4.4/psoc creator/import/gnu/arm/5.4.1/bin/../lib/gcc/arm-none-eabi/5.4.1/../../../../arm-none-eabi/lib/armv7-m\libg_nano.a(lib_a-reent.o)
 .data          0x00000000        0x0 c:/program files (x86)/cypress/psoc creator/4.4/psoc creator/import/gnu/arm/5.4.1/bin/../lib/gcc/arm-none-eabi/5.4.1/../../../../arm-none-eabi/lib/armv7-m\libg_nano.a(lib_a-reent.o)
 .bss           0x00000000        0x0 c:/program files (x86)/cypress/psoc creator/4.4/psoc creator/import/gnu/arm/5.4.1/bin/../lib/gcc/arm-none-eabi/5.4.1/../../../../arm-none-eabi/lib/armv7-m\libg_nano.a(lib_a-reent.o)
 .text.cleanup_glue
                0x00000000       0x1a c:/program files (x86)/cypress/psoc creator/4.4/psoc creator/import/gnu/arm/5.4.1/bin/../lib/gcc/arm-none-eabi/5.4.1/../../../../arm-none-eabi/lib/armv7-m\libg_nano.a(lib_a-reent.o)
 .text._reclaim_reent
                0x00000000       0xb4 c:/program files (x86)/cypress/psoc creator/4.4/psoc creator/import/gnu/arm/5.4.1/bin/../lib/gcc/arm-none-eabi/5.4.1/../../../../arm-none-eabi/lib/armv7-m\libg_nano.a(lib_a-reent.o)
 .text          0x00000000        0x0 c:/program files (x86)/cypress/psoc creator/4.4/psoc creator/import/gnu/arm/5.4.1/bin/../lib/gcc/arm-none-eabi/5.4.1/../../../../arm-none-eabi/lib/armv7-m\libg_nano.a(lib_a-fstatr.o)
 .data          0x00000000        0x0 c:/program files (x86)/cypress/psoc creator/4.4/psoc creator/import/gnu/arm/5.4.1/bin/../lib/gcc/arm-none-eabi/5.4.1/../../../../arm-none-eabi/lib/armv7-m\libg_nano.a(lib_a-fstatr.o)
 .bss           0x00000000        0x0 c:/program files (x86)/cypress/psoc creator/4.4/psoc creator/import/gnu/arm/5.4.1/bin/../lib/gcc/arm-none-eabi/5.4.1/../../../../arm-none-eabi/lib/armv7-m\libg_nano.a(lib_a-fstatr.o)
 .text          0x00000000        0x0 c:/program files (x86)/cypress/psoc creator/4.4/psoc creator/import/gnu/arm/5.4.1/bin/../lib/gcc/arm-none-eabi/5.4.1/../../../../arm-none-eabi/lib/armv7-m\libg_nano.a(lib_a-isattyr.o)
 .data          0x00000000        0x0 c:/program files (x86)/cypress/psoc creator/4.4/psoc creator/import/gnu/arm/5.4.1/bin/../lib/gcc/arm-none-eabi/5.4.1/../../../../arm-none-eabi/lib/armv7-m\libg_nano.a(lib_a-isattyr.o)
 .bss           0x00000000        0x0 c:/program files (x86)/cypress/psoc creator/4.4/psoc creator/import/gnu/arm/5.4.1/bin/../lib/gcc/arm-none-eabi/5.4.1/../../../../arm-none-eabi/lib/armv7-m\libg_nano.a(lib_a-isattyr.o)
 .text          0x00000000        0x0 c:/program files (x86)/cypress/psoc creator/4.4/psoc creator/import/gnu/arm/5.4.1/bin/../lib/gcc/arm-none-eabi/5.4.1/../../../../arm-none-eabi/lib/armv7-m\libg_nano.a(lib_a-nano-msizer.o)
 .data          0x00000000        0x0 c:/program files (x86)/cypress/psoc creator/4.4/psoc creator/import/gnu/arm/5.4.1/bin/../lib/gcc/arm-none-eabi/5.4.1/../../../../arm-none-eabi/lib/armv7-m\libg_nano.a(lib_a-nano-msizer.o)
 .bss           0x00000000        0x0 c:/program files (x86)/cypress/psoc creator/4.4/psoc creator/import/gnu/arm/5.4.1/bin/../lib/gcc/arm-none-eabi/5.4.1/../../../../arm-none-eabi/lib/armv7-m\libg_nano.a(lib_a-nano-msizer.o)
 .text._malloc_usable_size_r
                0x00000000       0x14 c:/program files (x86)/cypress/psoc creator/4.4/psoc creator/import/gnu/arm/5.4.1/bin/../lib/gcc/arm-none-eabi/5.4.1/../../../../arm-none-eabi/lib/armv7-m\libg_nano.a(lib_a-nano-msizer.o)
 .text          0x00000000        0x0 c:/program files (x86)/cypress/psoc creator/4.4/psoc creator/import/gnu/arm/5.4.1/bin/../lib/gcc/arm-none-eabi/5.4.1/armv7-m/crtend.o
 .data          0x00000000        0x0 c:/program files (x86)/cypress/psoc creator/4.4/psoc creator/import/gnu/arm/5.4.1/bin/../lib/gcc/arm-none-eabi/5.4.1/armv7-m/crtend.o
 .bss           0x00000000        0x0 c:/program files (x86)/cypress/psoc creator/4.4/psoc creator/import/gnu/arm/5.4.1/bin/../lib/gcc/arm-none-eabi/5.4.1/armv7-m/crtend.o
 .text          0x00000000        0x0 c:/program files (x86)/cypress/psoc creator/4.4/psoc creator/import/gnu/arm/5.4.1/bin/../lib/gcc/arm-none-eabi/5.4.1/armv7-m/crtn.o
 .data          0x00000000        0x0 c:/program files (x86)/cypress/psoc creator/4.4/psoc creator/import/gnu/arm/5.4.1/bin/../lib/gcc/arm-none-eabi/5.4.1/armv7-m/crtn.o
 .bss           0x00000000        0x0 c:/program files (x86)/cypress/psoc creator/4.4/psoc creator/import/gnu/arm/5.4.1/bin/../lib/gcc/arm-none-eabi/5.4.1/armv7-m/crtn.o
 .text          0x00000000        0x0 c:/program files (x86)/cypress/psoc creator/4.4/psoc creator/import/gnu/arm/5.4.1/bin/../lib/gcc/arm-none-eabi/5.4.1/../../../../arm-none-eabi/lib/armv7-m\libnosys.a(close.o)
 .data          0x00000000        0x0 c:/program files (x86)/cypress/psoc creator/4.4/psoc creator/import/gnu/arm/5.4.1/bin/../lib/gcc/arm-none-eabi/5.4.1/../../../../arm-none-eabi/lib/armv7-m\libnosys.a(close.o)
 .bss           0x00000000        0x0 c:/program files (x86)/cypress/psoc creator/4.4/psoc creator/import/gnu/arm/5.4.1/bin/../lib/gcc/arm-none-eabi/5.4.1/../../../../arm-none-eabi/lib/armv7-m\libnosys.a(close.o)
 .text          0x00000000        0x0 c:/program files (x86)/cypress/psoc creator/4.4/psoc creator/import/gnu/arm/5.4.1/bin/../lib/gcc/arm-none-eabi/5.4.1/../../../../arm-none-eabi/lib/armv7-m\libnosys.a(fstat.o)
 .data          0x00000000        0x0 c:/program files (x86)/cypress/psoc creator/4.4/psoc creator/import/gnu/arm/5.4.1/bin/../lib/gcc/arm-none-eabi/5.4.1/../../../../arm-none-eabi/lib/armv7-m\libnosys.a(fstat.o)
 .bss           0x00000000        0x0 c:/program files (x86)/cypress/psoc creator/4.4/psoc creator/import/gnu/arm/5.4.1/bin/../lib/gcc/arm-none-eabi/5.4.1/../../../../arm-none-eabi/lib/armv7-m\libnosys.a(fstat.o)
 .text          0x00000000        0x0 c:/program files (x86)/cypress/psoc creator/4.4/psoc creator/import/gnu/arm/5.4.1/bin/../lib/gcc/arm-none-eabi/5.4.1/../../../../arm-none-eabi/lib/armv7-m\libnosys.a(isatty.o)
 .data          0x00000000        0x0 c:/program files (x86)/cypress/psoc creator/4.4/psoc creator/import/gnu/arm/5.4.1/bin/../lib/gcc/arm-none-eabi/5.4.1/../../../../arm-none-eabi/lib/armv7-m\libnosys.a(isatty.o)
 .bss           0x00000000        0x0 c:/program files (x86)/cypress/psoc creator/4.4/psoc creator/import/gnu/arm/5.4.1/bin/../lib/gcc/arm-none-eabi/5.4.1/../../../../arm-none-eabi/lib/armv7-m\libnosys.a(isatty.o)
 .text          0x00000000        0x0 c:/program files (x86)/cypress/psoc creator/4.4/psoc creator/import/gnu/arm/5.4.1/bin/../lib/gcc/arm-none-eabi/5.4.1/../../../../arm-none-eabi/lib/armv7-m\libnosys.a(lseek.o)
 .data          0x00000000        0x0 c:/program files (x86)/cypress/psoc creator/4.4/psoc creator/import/gnu/arm/5.4.1/bin/../lib/gcc/arm-none-eabi/5.4.1/../../../../arm-none-eabi/lib/armv7-m\libnosys.a(lseek.o)
 .bss           0x00000000        0x0 c:/program files (x86)/cypress/psoc creator/4.4/psoc creator/import/gnu/arm/5.4.1/bin/../lib/gcc/arm-none-eabi/5.4.1/../../../../arm-none-eabi/lib/armv7-m\libnosys.a(lseek.o)
 .text          0x00000000        0x0 c:/program files (x86)/cypress/psoc creator/4.4/psoc creator/import/gnu/arm/5.4.1/bin/../lib/gcc/arm-none-eabi/5.4.1/../../../../arm-none-eabi/lib/armv7-m\libnosys.a(read.o)
 .data          0x00000000        0x0 c:/program files (x86)/cypress/psoc creator/4.4/psoc creator/import/gnu/arm/5.4.1/bin/../lib/gcc/arm-none-eabi/5.4.1/../../../../arm-none-eabi/lib/armv7-m\libnosys.a(read.o)
 .bss           0x00000000        0x0 c:/program files (x86)/cypress/psoc creator/4.4/psoc creator/import/gnu/arm/5.4.1/bin/../lib/gcc/arm-none-eabi/5.4.1/../../../../arm-none-eabi/lib/armv7-m\libnosys.a(read.o)
 .text          0x00000000        0x0 c:/program files (x86)/cypress/psoc creator/4.4/psoc creator/import/gnu/arm/5.4.1/bin/../lib/gcc/arm-none-eabi/5.4.1/../../../../arm-none-eabi/lib/armv7-m\libnosys.a(write.o)
 .data          0x00000000        0x0 c:/program files (x86)/cypress/psoc creator/4.4/psoc creator/import/gnu/arm/5.4.1/bin/../lib/gcc/arm-none-eabi/5.4.1/../../../../arm-none-eabi/lib/armv7-m\libnosys.a(write.o)
 .bss           0x00000000        0x0 c:/program files (x86)/cypress/psoc creator/4.4/psoc creator/import/gnu/arm/5.4.1/bin/../lib/gcc/arm-none-eabi/5.4.1/../../../../arm-none-eabi/lib/armv7-m\libnosys.a(write.o)

Memory Configuration

Name             Origin             Length             Attributes
rom              0x00000000         0x00040000         xr
ram              0x1fff8000         0x00010000         xrw
*default*        0x00000000         0xffffffff

Linker script and memory map

LOAD c:/program files (x86)/cypress/psoc creator/4.4/psoc creator/import/gnu/arm/5.4.1/bin/../lib/gcc/arm-none-eabi/5.4.1/armv7-m/crti.o
LOAD c:/program files (x86)/cypress/psoc creator/4.4/psoc creator/import/gnu/arm/5.4.1/bin/../lib/gcc/arm-none-eabi/5.4.1/armv7-m/crtbegin.o
LOAD c:/program files (x86)/cypress/psoc creator/4.4/psoc creator/import/gnu/arm/5.4.1/bin/../lib/gcc/arm-none-eabi/5.4.1/../../../../arm-none-eabi/lib/armv7-m/crt0.o
START GROUP
LOAD .\CortexM3\ARM_GCC_541\Debug\main.o
LOAD .\CortexM3\ARM_GCC_541\Debug\TIA_calibrate.o
LOAD .\CortexM3\ARM_GCC_541\Debug\user_inputs.o
LOAD .\CortexM3\ARM_GCC_541\Debug\hardware_management.o
LOAD .\CortexM3\ARM_GCC_541\Debug\parametric_lut.o
LOAD .\CortexM3\ARM_GCC_541\Debug\DAC_management.o
LOAD .\CortexM3\ARM_GCC_541\Debug\BT_protocols.o
LOAD .\CortexM3\ARM_GCC_541\Debug\cyfitter_cfg.o
LOAD .\CortexM3\ARM_GCC_541\Debug\cymetadata.o
LOAD .\CortexM3\ARM_GCC_541\Debug\Cm3Start.o
LOAD .\CortexM3\ARM_GCC_541\Debug\PSoC_Project.a
LOAD C:\Program Files (x86)\Cypress\PSoC Creator\4.4\PSoC Creator\psoc\content\cycomponentlibrary\CyComponentLibrary.cylib\CortexM3\ARM_GCC_541\Debug\CyComponentLibrary.a
END GROUP
START GROUP
LOAD c:/program files (x86)/cypress/psoc creator/4.4/psoc creator/import/gnu/arm/5.4.1/bin/../lib/gcc/arm-none-eabi/5.4.1/armv7-m\libgcc.a
LOAD c:/program files (x86)/cypress/psoc creator/4.4/psoc creator/import/gnu/arm/5.4.1/bin/../lib/gcc/arm-none-eabi/5.4.1/../../../../arm-none-eabi/lib/armv7-m\libg_nano.a
LOAD c:/program files (x86)/cypress/psoc creator/4.4/psoc creator/import/gnu/arm/5.4.1/bin/../lib/gcc/arm-none-eabi/5.4.1/../../../../arm-none-eabi/lib/armv7-m\libc_nano.a
END GROUP
START GROUP
LOAD c:/program files (x86)/cypress/psoc creator/4.4/psoc creator/import/gnu/arm/5.4.1/bin/../lib/gcc/arm-none-eabi/5.4.1/armv7-m\libgcc.a
LOAD c:/program files (x86)/cypress/psoc creator/4.4/psoc creator/import/gnu/arm/5.4.1/bin/../lib/gcc/arm-none-eabi/5.4.1/../../../../arm-none-eabi/lib/armv7-m\libc_nano.a
END GROUP
LOAD c:/program files (x86)/cypress/psoc creator/4.4/psoc creator/import/gnu/arm/5.4.1/bin/../lib/gcc/arm-none-eabi/5.4.1/armv7-m/crtend.o
LOAD c:/program files (x86)/cypress/psoc creator/4.4/psoc creator/import/gnu/arm/5.4.1/bin/../lib/gcc/arm-none-eabi/5.4.1/armv7-m/crtn.o
START GROUP
LOAD c:/program files (x86)/cypress/psoc creator/4.4/psoc creator/import/gnu/arm/5.4.1/bin/../lib/gcc/arm-none-eabi/5.4.1/armv7-m\libgcc.a
LOAD c:/program files (x86)/cypress/psoc creator/4.4/psoc creator/import/gnu/arm/5.4.1/bin/../lib/gcc/arm-none-eabi/5.4.1/../../../../arm-none-eabi/lib/armv7-m\libc.a
LOAD c:/program files (x86)/cypress/psoc creator/4.4/psoc creator/import/gnu/arm/5.4.1/bin/../lib/gcc/arm-none-eabi/5.4.1/../../../../arm-none-eabi/lib/armv7-m\libnosys.a
END GROUP
                0x00000000                CY_APPL_ORIGIN = 0x0
                0x00000100                CY_FLASH_ROW_SIZE = 0x100
                0x00000020                CY_ECC_ROW_SIZE = 0x20
                0x00000000                CY_EE_IN_BTLDR = 0x0
                0x00000000                CY_APPL_LOADABLE = 0x0
                0x00000800                CY_EE_SIZE = 0x800
                0x00000001                CY_APPL_NUM = 0x1
                0x00000001                CY_APPL_MAX = 0x1
                0x00000040                CY_METADATA_SIZE = 0x40
                0x00000000                CY_APPL_LOADABLE = 0x0
                0x00000000                CY_CHECKSUM_EXCLUDE_SIZE = ALIGN (0x0, CY_FLASH_ROW_SIZE)
                [!provide]                PROVIDE (__cy_heap_start, _end)
                0x00000001                PROVIDE (__cy_region_num, ((__cy_regions_end - __cy_regions) / 0x10))
                0x20008000                PROVIDE (__cy_stack, (ORIGIN (ram) + LENGTH (ram)))
                [!provide]                PROVIDE (__cy_heap_end, (__cy_stack - 0x800))

.cybootloader   0x00000000        0x0
 *(.cybootloader)
                0x00000000                appl1_start = CY_APPL_ORIGIN?CY_APPL_ORIGIN:ALIGN (CY_FLASH_ROW_SIZE)
                0x0001ff00                appl2_start = (appl1_start + ALIGN ((((LENGTH (rom) - appl1_start) - (0x2 * CY_FLASH_ROW_SIZE)) / 0x2), CY_FLASH_ROW_SIZE))
                0x00000000                appl_start = (CY_APPL_NUM == 0x1)?appl1_start:appl2_start
                0x00000000                ecc_offset = ((appl_start / CY_FLASH_ROW_SIZE) * CY_ECC_ROW_SIZE)
                0x00000000                ee_offset = (CY_APPL_LOADABLE && ! (CY_EE_IN_BTLDR))?((CY_EE_SIZE / CY_APPL_MAX) * (CY_APPL_NUM - 0x1)):0x0
                0x00000800                ee_size = (CY_APPL_LOADABLE && ! (CY_EE_IN_BTLDR))?(CY_EE_SIZE / CY_APPL_MAX):CY_EE_SIZE
                [!provide]                PROVIDE (CY_ECC_OFFSET, ecc_offset)

.text           0x00000000     0x4814
 CREATE_OBJECT_SYMBOLS
                0x00000000                PROVIDE (__cy_interrupt_vector, RomVectors)
 *(.romvectors)
 .romvectors    0x00000000       0x10 .\CortexM3\ARM_GCC_541\Debug\Cm3Start.o
                0x00000000                RomVectors
                0x00000001                ASSERT ((. != __cy_interrupt_vector), No interrupt vector)
                0x00000001                ASSERT (CY_APPL_ORIGIN?(SIZEOF (.cybootloader) <= CY_APPL_ORIGIN):0x1, Wrong image location)
                0x00000010                PROVIDE (__cy_reset, Reset)
 *(.text.Reset)
 .text.Reset    0x00000010       0x18 .\CortexM3\ARM_GCC_541\Debug\Cm3Start.o
                0x00000010                Reset
                0x00000001                ASSERT ((. != __cy_reset), No reset code)
 *(.dma_init)
                0x00000001                ASSERT ((((appl_start + .) <= 0x10000) || 0x1), DMA Init must be within the first 64k of flash)
 *(.text .text.* .gnu.linkonce.t.*)
 .text          0x00000028       0x5c c:/program files (x86)/cypress/psoc creator/4.4/psoc creator/import/gnu/arm/5.4.1/bin/../lib/gcc/arm-none-eabi/5.4.1/armv7-m/crtbegin.o
 .text.dacInterrupt
                0x00000084       0x74 .\CortexM3\ARM_GCC_541\Debug\main.o
                0x00000084                dacInterrupt
 .text.adcInterrupt
                0x000000f8       0x34 .\CortexM3\ARM_GCC_541\Debug\main.o
                0x000000f8                adcInterrupt
 .text.Custom_UART_BT_RX_Interrupt
                0x0000012c       0x6c .\CortexM3\ARM_GCC_541\Debug\main.o
                0x0000012c                Custom_UART_BT_RX_Interrupt
 .text.main     0x00000198      0x218 .\CortexM3\ARM_GCC_541\Debug\main.o
                0x00000198                main
 .text.Calibrate_Hardware_Wakeup
                0x000003b0       0x18 .\CortexM3\ARM_GCC_541\Debug\TIA_calibrate.o
 .text.calibrate_step
                0x000003c8       0x4c .\CortexM3\ARM_GCC_541\Debug\TIA_calibrate.o
 .text.Calibrate_Hardware_Sleep
                0x00000414       0x1c .\CortexM3\ARM_GCC_541\Debug\TIA_calibrate.o
 .text.calibrate_TIA
                0x00000430      0x108 .\CortexM3\ARM_GCC_541\Debug\TIA_calibrate.o
                0x00000430                calibrate_TIA
 .text.user_setup_TIA_ADC
                0x00000538       0x18 .\CortexM3\ARM_GCC_541\Debug\user_inputs.o
                0x00000538                user_setup_TIA_ADC
 .text.user_voltage_source_funcs
                0x00000550       0x34 .\CortexM3\ARM_GCC_541\Debug\user_inputs.o
                0x00000550                user_voltage_source_funcs
 .text.user_run_procedure
                0x00000584       0x78 .\CortexM3\ARM_GCC_541\Debug\user_inputs.o
                0x00000584                user_run_procedure
 .text.user_set_isr_timer
                0x000005fc       0x3c .\CortexM3\ARM_GCC_541\Debug\user_inputs.o
                0x000005fc                user_set_isr_timer
 .text.user_chrono_lut_maker
                0x00000638       0x70 .\CortexM3\ARM_GCC_541\Debug\user_inputs.o
                0x00000638                user_chrono_lut_maker
 .text.user_EEPROM_management
                0x000006a8      0x124 .\CortexM3\ARM_GCC_541\Debug\user_inputs.o
                0x000006a8                user_EEPROM_management
 .text.helper_Writebyte_EEPROM
                0x000007cc       0x28 .\CortexM3\ARM_GCC_541\Debug\hardware_management.o
                0x000007cc                helper_Writebyte_EEPROM
 .text.helper_set_voltage_source
                0x000007f4       0x2c .\CortexM3\ARM_GCC_541\Debug\hardware_management.o
                0x000007f4                helper_set_voltage_source
 .text.helper_Readbyte_EEPROM
                0x00000820       0x28 .\CortexM3\ARM_GCC_541\Debug\hardware_management.o
                0x00000820                helper_Readbyte_EEPROM
 .text.helper_check_voltage_source
                0x00000848        0xc .\CortexM3\ARM_GCC_541\Debug\hardware_management.o
                0x00000848                helper_check_voltage_source
 .text.helper_HardwareStart
                0x00000854       0x18 .\CortexM3\ARM_GCC_541\Debug\hardware_management.o
                0x00000854                helper_HardwareStart
 .text.helper_HardwareWakeup
                0x0000086c       0x34 .\CortexM3\ARM_GCC_541\Debug\hardware_management.o
                0x0000086c                helper_HardwareWakeup
 .text.helper_HardwareSleep
                0x000008a0       0x1c .\CortexM3\ARM_GCC_541\Debug\hardware_management.o
                0x000008a0                helper_HardwareSleep
 .text.helper_HardwareSetup
                0x000008bc       0x38 .\CortexM3\ARM_GCC_541\Debug\hardware_management.o
                0x000008bc                helper_HardwareSetup
 .text.initialize_default_values
                0x000008f4       0xe4 .\CortexM3\ARM_GCC_541\Debug\hardware_management.o
                0x000008f4                initialize_default_values
 .text.LUT_make_line
                0x000009d8       0x50 .\CortexM3\ARM_GCC_541\Debug\parametric_lut.o
                0x000009d8                LUT_make_line
 .text.LUT_make_swv_line
                0x00000a28       0x94 .\CortexM3\ARM_GCC_541\Debug\parametric_lut.o
                0x00000a28                LUT_make_swv_line
 .text.LUT_MakeTriangle_Wave
                0x00000abc       0x74 .\CortexM3\ARM_GCC_541\Debug\parametric_lut.o
                0x00000abc                LUT_MakeTriangle_Wave
 .text.LUT_MakePulse
                0x00000b30       0x4c .\CortexM3\ARM_GCC_541\Debug\parametric_lut.o
                0x00000b30                LUT_MakePulse
 .text.DAC_Start
                0x00000b7c       0x3c .\CortexM3\ARM_GCC_541\Debug\DAC_management.o
                0x00000b7c                DAC_Start
 .text.DAC_Sleep
                0x00000bb8       0x1c .\CortexM3\ARM_GCC_541\Debug\DAC_management.o
                0x00000bb8                DAC_Sleep
 .text.DAC_Wakeup
                0x00000bd4       0x1c .\CortexM3\ARM_GCC_541\Debug\DAC_management.o
                0x00000bd4                DAC_Wakeup
 .text.DAC_SetValue
                0x00000bf0       0x1c .\CortexM3\ARM_GCC_541\Debug\DAC_management.o
                0x00000bf0                DAC_SetValue
 .text.writeBT  0x00000c0c       0x2c .\CortexM3\ARM_GCC_541\Debug\BT_protocols.o
                0x00000c0c                writeBT
 .text.errorBT  0x00000c38       0x10 .\CortexM3\ARM_GCC_541\Debug\BT_protocols.o
                0x00000c38                errorBT
 .text.BT_sending_manager
                0x00000c48       0x9c .\CortexM3\ARM_GCC_541\Debug\BT_protocols.o
                0x00000c48                BT_sending_manager
 .text.sendMeasures
                0x00000ce4       0x70 .\CortexM3\ARM_GCC_541\Debug\BT_protocols.o
                0x00000ce4                sendMeasures
 .text.CyClockStartupError
                0x00000d54        0x4 .\CortexM3\ARM_GCC_541\Debug\cyfitter_cfg.o
 .text.cfg_write_bytes32
                0x00000d58       0x34 .\CortexM3\ARM_GCC_541\Debug\cyfitter_cfg.o
 .text.AnalogSetDefault
                0x00000d8c       0x74 .\CortexM3\ARM_GCC_541\Debug\cyfitter_cfg.o
 .text.CYMEMZERO
                0x00000e00        0xc .\CortexM3\ARM_GCC_541\Debug\cyfitter_cfg.o
 .text.CYCONFIGCPY
                0x00000e0c        0x8 .\CortexM3\ARM_GCC_541\Debug\cyfitter_cfg.o
 .text.ClockSetup
                0x00000e14      0x108 .\CortexM3\ARM_GCC_541\Debug\cyfitter_cfg.o
 .text.AMux_TIA_input_Set
                0x00000f1c       0x1c .\CortexM3\ARM_GCC_541\Debug\cyfitter_cfg.o
                0x00000f1c                AMux_TIA_input_Set
 .text.AMux_TIA_input_Unset
                0x00000f38       0x1c .\CortexM3\ARM_GCC_541\Debug\cyfitter_cfg.o
                0x00000f38                AMux_TIA_input_Unset
 .text.AMux_TIA_resistor_bypass_Set
                0x00000f54       0x38 .\CortexM3\ARM_GCC_541\Debug\cyfitter_cfg.o
                0x00000f54                AMux_TIA_resistor_bypass_Set
 .text.AMux_TIA_resistor_bypass_Unset
                0x00000f8c       0x3c .\CortexM3\ARM_GCC_541\Debug\cyfitter_cfg.o
                0x00000f8c                AMux_TIA_resistor_bypass_Unset
 .text.AMux_V_source_Set
                0x00000fc8       0x20 .\CortexM3\ARM_GCC_541\Debug\cyfitter_cfg.o
                0x00000fc8                AMux_V_source_Set
 .text.AMux_V_source_Unset
                0x00000fe8       0x20 .\CortexM3\ARM_GCC_541\Debug\cyfitter_cfg.o
                0x00000fe8                AMux_V_source_Unset
 .text.AMux_electrode_Set
                0x00001008       0x20 .\CortexM3\ARM_GCC_541\Debug\cyfitter_cfg.o
                0x00001008                AMux_electrode_Set
 .text.AMux_electrode_Unset
                0x00001028       0x20 .\CortexM3\ARM_GCC_541\Debug\cyfitter_cfg.o
                0x00001028                AMux_electrode_Unset
 .text.cyfitter_cfg
                0x00001048      0x148 .\CortexM3\ARM_GCC_541\Debug\cyfitter_cfg.o
                0x00001048                cyfitter_cfg
 .text.IntDefaultHandler
                0x00001190       0x10 .\CortexM3\ARM_GCC_541\Debug\Cm3Start.o
                0x00001190                IntDefaultHandler
 .text._sbrk    0x000011a0       0x30 .\CortexM3\ARM_GCC_541\Debug\Cm3Start.o
                0x000011a0                _sbrk
 .text.Start_c  0x000011d0       0x4c .\CortexM3\ARM_GCC_541\Debug\Cm3Start.o
                0x000011d0                Start_c
 .text.initialize_psoc
                0x0000121c       0x6c .\CortexM3\ARM_GCC_541\Debug\Cm3Start.o
                0x0000121c                initialize_psoc
 .text.EEPROM_Enable
                0x00001288        0xc .\CortexM3\ARM_GCC_541\Debug\PSoC_Project.a(EEPROM.o)
                0x00001288                EEPROM_Enable
 .text.EEPROM_Start
                0x00001294        0x8 .\CortexM3\ARM_GCC_541\Debug\PSoC_Project.a(EEPROM.o)
                0x00001294                EEPROM_Start
 .text.EEPROM_Stop
                0x0000129c        0x8 .\CortexM3\ARM_GCC_541\Debug\PSoC_Project.a(EEPROM.o)
                0x0000129c                EEPROM_Stop
 .text.EEPROM_WriteByte
                0x000012a4       0xd0 .\CortexM3\ARM_GCC_541\Debug\PSoC_Project.a(EEPROM.o)
                0x000012a4                EEPROM_WriteByte
 .text.EEPROM_ReadByte
                0x00001374       0x28 .\CortexM3\ARM_GCC_541\Debug\PSoC_Project.a(EEPROM.o)
                0x00001374                EEPROM_ReadByte
 .text.EEPROM_UpdateTemperature
                0x0000139c        0xc .\CortexM3\ARM_GCC_541\Debug\PSoC_Project.a(EEPROM.o)
                0x0000139c                EEPROM_UpdateTemperature
 .text.isr_dac_SetVector
                0x000013a8        0xc .\CortexM3\ARM_GCC_541\Debug\PSoC_Project.a(isr_dac.o)
                0x000013a8                isr_dac_SetVector
 .text.isr_dac_SetPriority
                0x000013b4       0x10 .\CortexM3\ARM_GCC_541\Debug\PSoC_Project.a(isr_dac.o)
                0x000013b4                isr_dac_SetPriority
 .text.isr_dac_Enable
                0x000013c4        0xc .\CortexM3\ARM_GCC_541\Debug\PSoC_Project.a(isr_dac.o)
                0x000013c4                isr_dac_Enable
 .text.isr_dac_GetState
                0x000013d0       0x18 .\CortexM3\ARM_GCC_541\Debug\PSoC_Project.a(isr_dac.o)
                0x000013d0                isr_dac_GetState
 .text.isr_dac_Disable
                0x000013e8        0xc .\CortexM3\ARM_GCC_541\Debug\PSoC_Project.a(isr_dac.o)
                0x000013e8                isr_dac_Disable
 .text.isr_dac_StartEx
                0x000013f4       0x1c .\CortexM3\ARM_GCC_541\Debug\PSoC_Project.a(isr_dac.o)
                0x000013f4                isr_dac_StartEx
 .text.isr_adc_SetVector
                0x00001410        0xc .\CortexM3\ARM_GCC_541\Debug\PSoC_Project.a(isr_adc.o)
                0x00001410                isr_adc_SetVector
 .text.isr_adc_SetPriority
                0x0000141c       0x10 .\CortexM3\ARM_GCC_541\Debug\PSoC_Project.a(isr_adc.o)
                0x0000141c                isr_adc_SetPriority
 .text.isr_adc_Enable
                0x0000142c        0xc .\CortexM3\ARM_GCC_541\Debug\PSoC_Project.a(isr_adc.o)
                0x0000142c                isr_adc_Enable
 .text.isr_adc_Disable
                0x00001438        0xc .\CortexM3\ARM_GCC_541\Debug\PSoC_Project.a(isr_adc.o)
                0x00001438                isr_adc_Disable
 .text.isr_adc_StartEx
                0x00001444       0x1c .\CortexM3\ARM_GCC_541\Debug\PSoC_Project.a(isr_adc.o)
                0x00001444                isr_adc_StartEx
 .text.isr_adcAmp_GetState
                0x00001460       0x18 .\CortexM3\ARM_GCC_541\Debug\PSoC_Project.a(isr_adcAmp.o)
                0x00001460                isr_adcAmp_GetState
 .text.isr_adcAmp_Disable
                0x00001478        0xc .\CortexM3\ARM_GCC_541\Debug\PSoC_Project.a(isr_adcAmp.o)
                0x00001478                isr_adcAmp_Disable
 .text.AMux_TIA_resistor_bypass_Start
                0x00001484       0x20 .\CortexM3\ARM_GCC_541\Debug\PSoC_Project.a(AMux_TIA_resistor_bypass.o)
                0x00001484                AMux_TIA_resistor_bypass_Start
 .text.AMux_TIA_resistor_bypass_Select
                0x000014a4       0x18 .\CortexM3\ARM_GCC_541\Debug\PSoC_Project.a(AMux_TIA_resistor_bypass.o)
                0x000014a4                AMux_TIA_resistor_bypass_Select
 .text.IDAC_calibrate_Enable
                0x000014bc       0x1c .\CortexM3\ARM_GCC_541\Debug\PSoC_Project.a(IDAC_calibrate.o)
                0x000014bc                IDAC_calibrate_Enable
 .text.IDAC_calibrate_Stop
                0x000014d8       0x1c .\CortexM3\ARM_GCC_541\Debug\PSoC_Project.a(IDAC_calibrate.o)
                0x000014d8                IDAC_calibrate_Stop
 .text.IDAC_calibrate_SetSpeed
                0x000014f4       0x1c .\CortexM3\ARM_GCC_541\Debug\PSoC_Project.a(IDAC_calibrate.o)
                0x000014f4                IDAC_calibrate_SetSpeed
 .text.IDAC_calibrate_SetValue
                0x00001510        0xc .\CortexM3\ARM_GCC_541\Debug\PSoC_Project.a(IDAC_calibrate.o)
                0x00001510                IDAC_calibrate_SetValue
 .text.IDAC_calibrate_DacTrim
                0x0000151c       0x34 .\CortexM3\ARM_GCC_541\Debug\PSoC_Project.a(IDAC_calibrate.o)
                0x0000151c                IDAC_calibrate_DacTrim
 .text.IDAC_calibrate_Init
                0x00001550       0x24 .\CortexM3\ARM_GCC_541\Debug\PSoC_Project.a(IDAC_calibrate.o)
                0x00001550                IDAC_calibrate_Init
 .text.IDAC_calibrate_Start
                0x00001574       0x24 .\CortexM3\ARM_GCC_541\Debug\PSoC_Project.a(IDAC_calibrate.o)
                0x00001574                IDAC_calibrate_Start
 .text.IDAC_calibrate_SetPolarity
                0x00001598       0x20 .\CortexM3\ARM_GCC_541\Debug\PSoC_Project.a(IDAC_calibrate.o)
                0x00001598                IDAC_calibrate_SetPolarity
 .text.AMux_TIA_input_Start
                0x000015b8       0x20 .\CortexM3\ARM_GCC_541\Debug\PSoC_Project.a(AMux_TIA_input.o)
                0x000015b8                AMux_TIA_input_Start
 .text.AMux_TIA_input_Select
                0x000015d8       0x18 .\CortexM3\ARM_GCC_541\Debug\PSoC_Project.a(AMux_TIA_input.o)
                0x000015d8                AMux_TIA_input_Select
 .text.VDAC_TIA_Enable
                0x000015f0       0x1c .\CortexM3\ARM_GCC_541\Debug\PSoC_Project.a(VDAC_TIA.o)
                0x000015f0                VDAC_TIA_Enable
 .text.VDAC_TIA_Stop
                0x0000160c       0x1c .\CortexM3\ARM_GCC_541\Debug\PSoC_Project.a(VDAC_TIA.o)
                0x0000160c                VDAC_TIA_Stop
 .text.VDAC_TIA_SetSpeed
                0x00001628       0x1c .\CortexM3\ARM_GCC_541\Debug\PSoC_Project.a(VDAC_TIA.o)
                0x00001628                VDAC_TIA_SetSpeed
 .text.VDAC_TIA_SetValue
                0x00001644        0xc .\CortexM3\ARM_GCC_541\Debug\PSoC_Project.a(VDAC_TIA.o)
                0x00001644                VDAC_TIA_SetValue
 .text.VDAC_TIA_DacTrim
                0x00001650       0x24 .\CortexM3\ARM_GCC_541\Debug\PSoC_Project.a(VDAC_TIA.o)
                0x00001650                VDAC_TIA_DacTrim
 .text.VDAC_TIA_SetRange
                0x00001674       0x20 .\CortexM3\ARM_GCC_541\Debug\PSoC_Project.a(VDAC_TIA.o)
                0x00001674                VDAC_TIA_SetRange
 .text.VDAC_TIA_Init
                0x00001694       0x20 .\CortexM3\ARM_GCC_541\Debug\PSoC_Project.a(VDAC_TIA.o)
                0x00001694                VDAC_TIA_Init
 .text.VDAC_TIA_Start
                0x000016b4       0x24 .\CortexM3\ARM_GCC_541\Debug\PSoC_Project.a(VDAC_TIA.o)
                0x000016b4                VDAC_TIA_Start
 .text.VDAC_TIA_SaveConfig
                0x000016d8       0x20 .\CortexM3\ARM_GCC_541\Debug\PSoC_Project.a(VDAC_TIA_PM.o)
                0x000016d8                VDAC_TIA_SaveConfig
 .text.VDAC_TIA_RestoreConfig
                0x000016f8       0x4c .\CortexM3\ARM_GCC_541\Debug\PSoC_Project.a(VDAC_TIA_PM.o)
                0x000016f8                VDAC_TIA_RestoreConfig
 .text.VDAC_TIA_Sleep
                0x00001744       0x2c .\CortexM3\ARM_GCC_541\Debug\PSoC_Project.a(VDAC_TIA_PM.o)
                0x00001744                VDAC_TIA_Sleep
 .text.VDAC_TIA_Wakeup
                0x00001770       0x24 .\CortexM3\ARM_GCC_541\Debug\PSoC_Project.a(VDAC_TIA_PM.o)
                0x00001770                VDAC_TIA_Wakeup
 .text.TIA_Enable
                0x00001794       0x28 .\CortexM3\ARM_GCC_541\Debug\PSoC_Project.a(TIA.o)
                0x00001794                TIA_Enable
 .text.TIA_Stop
                0x000017bc       0x1c .\CortexM3\ARM_GCC_541\Debug\PSoC_Project.a(TIA.o)
                0x000017bc                TIA_Stop
 .text.TIA_SetPower
                0x000017d8       0x18 .\CortexM3\ARM_GCC_541\Debug\PSoC_Project.a(TIA.o)
                0x000017d8                TIA_SetPower
 .text.TIA_SetResFB
                0x000017f0       0x20 .\CortexM3\ARM_GCC_541\Debug\PSoC_Project.a(TIA.o)
                0x000017f0                TIA_SetResFB
 .text.TIA_SetCapFB
                0x00001810       0x20 .\CortexM3\ARM_GCC_541\Debug\PSoC_Project.a(TIA.o)
                0x00001810                TIA_SetCapFB
 .text.TIA_Init
                0x00001830       0x2c .\CortexM3\ARM_GCC_541\Debug\PSoC_Project.a(TIA.o)
                0x00001830                TIA_Init
 .text.TIA_Start
                0x0000185c       0x1c .\CortexM3\ARM_GCC_541\Debug\PSoC_Project.a(TIA.o)
                0x0000185c                TIA_Start
 .text.TIA_Sleep
                0x00001878       0x28 .\CortexM3\ARM_GCC_541\Debug\PSoC_Project.a(TIA_PM.o)
                0x00001878                TIA_Sleep
 .text.TIA_Wakeup
                0x000018a0       0x14 .\CortexM3\ARM_GCC_541\Debug\PSoC_Project.a(TIA_PM.o)
                0x000018a0                TIA_Wakeup
 .text.UART_BT_Init
                0x000018b4       0x28 .\CortexM3\ARM_GCC_541\Debug\PSoC_Project.a(UART_BT.o)
                0x000018b4                UART_BT_Init
 .text.UART_BT_Enable
                0x000018dc       0x38 .\CortexM3\ARM_GCC_541\Debug\PSoC_Project.a(UART_BT.o)
                0x000018dc                UART_BT_Enable
 .text.UART_BT_Start
                0x00001914       0x1c .\CortexM3\ARM_GCC_541\Debug\PSoC_Project.a(UART_BT.o)
                0x00001914                UART_BT_Start
 .text.UART_BT_ReadRxData
                0x00001930        0xc .\CortexM3\ARM_GCC_541\Debug\PSoC_Project.a(UART_BT.o)
                0x00001930                UART_BT_ReadRxData
 .text.UART_BT_ReadRxStatus
                0x0000193c       0x10 .\CortexM3\ARM_GCC_541\Debug\PSoC_Project.a(UART_BT.o)
                0x0000193c                UART_BT_ReadRxStatus
 .text.UART_BT_GetByte
                0x0000194c       0x14 .\CortexM3\ARM_GCC_541\Debug\PSoC_Project.a(UART_BT.o)
                0x0000194c                UART_BT_GetByte
 .text.UART_BT_PutChar
                0x00001960       0x18 .\CortexM3\ARM_GCC_541\Debug\PSoC_Project.a(UART_BT.o)
                0x00001960                UART_BT_PutChar
 .text.UART_BT_PutString
                0x00001978       0x24 .\CortexM3\ARM_GCC_541\Debug\PSoC_Project.a(UART_BT.o)
                0x00001978                UART_BT_PutString
 .text.UART_BT_PutArray
                0x0000199c       0x28 .\CortexM3\ARM_GCC_541\Debug\PSoC_Project.a(UART_BT.o)
                0x0000199c                UART_BT_PutArray
 .text.Opamp_Aux_Enable
                0x000019c4       0x28 .\CortexM3\ARM_GCC_541\Debug\PSoC_Project.a(Opamp_Aux.o)
                0x000019c4                Opamp_Aux_Enable
 .text.Opamp_Aux_Stop
                0x000019ec       0x34 .\CortexM3\ARM_GCC_541\Debug\PSoC_Project.a(Opamp_Aux.o)
                0x000019ec                Opamp_Aux_Stop
 .text.Opamp_Aux_SetPower
                0x00001a20       0x1c .\CortexM3\ARM_GCC_541\Debug\PSoC_Project.a(Opamp_Aux.o)
                0x00001a20                Opamp_Aux_SetPower
 .text.Opamp_Aux_Init
                0x00001a3c        0xc .\CortexM3\ARM_GCC_541\Debug\PSoC_Project.a(Opamp_Aux.o)
                0x00001a3c                Opamp_Aux_Init
 .text.Opamp_Aux_Start
                0x00001a48       0x1c .\CortexM3\ARM_GCC_541\Debug\PSoC_Project.a(Opamp_Aux.o)
                0x00001a48                Opamp_Aux_Start
 .text.Opamp_Aux_Sleep
                0x00001a64       0x28 .\CortexM3\ARM_GCC_541\Debug\PSoC_Project.a(Opamp_Aux_PM.o)
                0x00001a64                Opamp_Aux_Sleep
 .text.Opamp_Aux_Wakeup
                0x00001a8c       0x14 .\CortexM3\ARM_GCC_541\Debug\PSoC_Project.a(Opamp_Aux_PM.o)
                0x00001a8c                Opamp_Aux_Wakeup
 .text.AMux_electrode_Start
                0x00001aa0       0x20 .\CortexM3\ARM_GCC_541\Debug\PSoC_Project.a(AMux_electrode.o)
                0x00001aa0                AMux_electrode_Start
 .text.AMux_electrode_Select
                0x00001ac0       0x18 .\CortexM3\ARM_GCC_541\Debug\PSoC_Project.a(AMux_electrode.o)
                0x00001ac0                AMux_electrode_Select
 .text.AMux_V_source_Start
                0x00001ad8       0x20 .\CortexM3\ARM_GCC_541\Debug\PSoC_Project.a(AMux_V_source.o)
                0x00001ad8                AMux_V_source_Start
 .text.AMux_V_source_Select
                0x00001af8       0x18 .\CortexM3\ARM_GCC_541\Debug\PSoC_Project.a(AMux_V_source.o)
                0x00001af8                AMux_V_source_Select
 .text.DVDAC_InitDma
                0x00001b10       0x4c .\CortexM3\ARM_GCC_541\Debug\PSoC_Project.a(DVDAC.o)
 .text.DVDAC_Init
                0x00001b5c       0x18 .\CortexM3\ARM_GCC_541\Debug\PSoC_Project.a(DVDAC.o)
                0x00001b5c                DVDAC_Init
 .text.DVDAC_Enable
                0x00001b74       0x1c .\CortexM3\ARM_GCC_541\Debug\PSoC_Project.a(DVDAC.o)
                0x00001b74                DVDAC_Enable
 .text.DVDAC_Start
                0x00001b90       0x1c .\CortexM3\ARM_GCC_541\Debug\PSoC_Project.a(DVDAC.o)
                0x00001b90                DVDAC_Start
 .text.DVDAC_Stop
                0x00001bac       0x18 .\CortexM3\ARM_GCC_541\Debug\PSoC_Project.a(DVDAC.o)
                0x00001bac                DVDAC_Stop
 .text.DVDAC_SetValue
                0x00001bc4       0x5c .\CortexM3\ARM_GCC_541\Debug\PSoC_Project.a(DVDAC.o)
                0x00001bc4                DVDAC_SetValue
 .text.DVDAC_SaveConfig
                0x00001c20        0x8 .\CortexM3\ARM_GCC_541\Debug\PSoC_Project.a(DVDAC_PM.o)
                0x00001c20                DVDAC_SaveConfig
 .text.DVDAC_Sleep
                0x00001c28       0x2c .\CortexM3\ARM_GCC_541\Debug\PSoC_Project.a(DVDAC_PM.o)
                0x00001c28                DVDAC_Sleep
 .text.DVDAC_RestoreConfig
                0x00001c54        0x8 .\CortexM3\ARM_GCC_541\Debug\PSoC_Project.a(DVDAC_PM.o)
                0x00001c54                DVDAC_RestoreConfig
 .text.DVDAC_Wakeup
                0x00001c5c       0x18 .\CortexM3\ARM_GCC_541\Debug\PSoC_Project.a(DVDAC_PM.o)
                0x00001c5c                DVDAC_Wakeup
 .text.VDAC_source_Enable
                0x00001c74       0x1c .\CortexM3\ARM_GCC_541\Debug\PSoC_Project.a(VDAC_source.o)
                0x00001c74                VDAC_source_Enable
 .text.VDAC_source_Stop
                0x00001c90       0x1c .\CortexM3\ARM_GCC_541\Debug\PSoC_Project.a(VDAC_source.o)
                0x00001c90                VDAC_source_Stop
 .text.VDAC_source_SetSpeed
                0x00001cac       0x1c .\CortexM3\ARM_GCC_541\Debug\PSoC_Project.a(VDAC_source.o)
                0x00001cac                VDAC_source_SetSpeed
 .text.VDAC_source_SetValue
                0x00001cc8        0xc .\CortexM3\ARM_GCC_541\Debug\PSoC_Project.a(VDAC_source.o)
                0x00001cc8                VDAC_source_SetValue
 .text.VDAC_source_DacTrim
                0x00001cd4       0x24 .\CortexM3\ARM_GCC_541\Debug\PSoC_Project.a(VDAC_source.o)
                0x00001cd4                VDAC_source_DacTrim
 .text.VDAC_source_SetRange
                0x00001cf8       0x20 .\CortexM3\ARM_GCC_541\Debug\PSoC_Project.a(VDAC_source.o)
                0x00001cf8                VDAC_source_SetRange
 .text.VDAC_source_Init
                0x00001d18       0x20 .\CortexM3\ARM_GCC_541\Debug\PSoC_Project.a(VDAC_source.o)
                0x00001d18                VDAC_source_Init
 .text.VDAC_source_Start
                0x00001d38       0x24 .\CortexM3\ARM_GCC_541\Debug\PSoC_Project.a(VDAC_source.o)
                0x00001d38                VDAC_source_Start
 .text.VDAC_source_SaveConfig
                0x00001d5c       0x20 .\CortexM3\ARM_GCC_541\Debug\PSoC_Project.a(VDAC_source_PM.o)
                0x00001d5c                VDAC_source_SaveConfig
 .text.VDAC_source_RestoreConfig
                0x00001d7c       0x4c .\CortexM3\ARM_GCC_541\Debug\PSoC_Project.a(VDAC_source_PM.o)
                0x00001d7c                VDAC_source_RestoreConfig
 .text.VDAC_source_Sleep
                0x00001dc8       0x2c .\CortexM3\ARM_GCC_541\Debug\PSoC_Project.a(VDAC_source_PM.o)
                0x00001dc8                VDAC_source_Sleep
 .text.VDAC_source_Wakeup
                0x00001df4       0x24 .\CortexM3\ARM_GCC_541\Debug\PSoC_Project.a(VDAC_source_PM.o)
                0x00001df4                VDAC_source_Wakeup
 .text.PWM_isr_Enable
                0x00001e18       0x10 .\CortexM3\ARM_GCC_541\Debug\PSoC_Project.a(PWM_isr.o)
                0x00001e18                PWM_isr_Enable
 .text.PWM_isr_Stop
                0x00001e28       0x10 .\CortexM3\ARM_GCC_541\Debug\PSoC_Project.a(PWM_isr.o)
                0x00001e28                PWM_isr_Stop
 .text.PWM_isr_WriteCounter
                0x00001e38        0xc .\CortexM3\ARM_GCC_541\Debug\PSoC_Project.a(PWM_isr.o)
                0x00001e38                PWM_isr_WriteCounter
 .text.PWM_isr_ReadCounter
                0x00001e44       0x14 .\CortexM3\ARM_GCC_541\Debug\PSoC_Project.a(PWM_isr.o)
                0x00001e44                PWM_isr_ReadCounter
 .text.PWM_isr_WritePeriod
                0x00001e58        0xc .\CortexM3\ARM_GCC_541\Debug\PSoC_Project.a(PWM_isr.o)
                0x00001e58                PWM_isr_WritePeriod
 .text.PWM_isr_WriteCompare
                0x00001e64        0xc .\CortexM3\ARM_GCC_541\Debug\PSoC_Project.a(PWM_isr.o)
                0x00001e64                PWM_isr_WriteCompare
 .text.PWM_isr_Init
                0x00001e70       0x44 .\CortexM3\ARM_GCC_541\Debug\PSoC_Project.a(PWM_isr.o)
                0x00001e70                PWM_isr_Init
 .text.PWM_isr_Start
                0x00001eb4       0x1c .\CortexM3\ARM_GCC_541\Debug\PSoC_Project.a(PWM_isr.o)
                0x00001eb4                PWM_isr_Start
 .text.PWM_isr_ReadControlRegister
                0x00001ed0        0xc .\CortexM3\ARM_GCC_541\Debug\PSoC_Project.a(PWM_isr.o)
                0x00001ed0                PWM_isr_ReadControlRegister
 .text.PWM_isr_WriteControlRegister
                0x00001edc        0xc .\CortexM3\ARM_GCC_541\Debug\PSoC_Project.a(PWM_isr.o)
                0x00001edc                PWM_isr_WriteControlRegister
 .text.PWM_isr_ReadPeriod
                0x00001ee8        0xc .\CortexM3\ARM_GCC_541\Debug\PSoC_Project.a(PWM_isr.o)
                0x00001ee8                PWM_isr_ReadPeriod
 .text.PWM_isr_SaveConfig
                0x00001ef4       0x1c .\CortexM3\ARM_GCC_541\Debug\PSoC_Project.a(PWM_isr_PM.o)
                0x00001ef4                PWM_isr_SaveConfig
 .text.PWM_isr_RestoreConfig
                0x00001f10       0x1c .\CortexM3\ARM_GCC_541\Debug\PSoC_Project.a(PWM_isr_PM.o)
                0x00001f10                PWM_isr_RestoreConfig
 .text.PWM_isr_Sleep
                0x00001f2c       0x2c .\CortexM3\ARM_GCC_541\Debug\PSoC_Project.a(PWM_isr_PM.o)
                0x00001f2c                PWM_isr_Sleep
 .text.PWM_isr_Wakeup
                0x00001f58       0x18 .\CortexM3\ARM_GCC_541\Debug\PSoC_Project.a(PWM_isr_PM.o)
                0x00001f58                PWM_isr_Wakeup
 .text.UART_BT_IntClock_Start
                0x00001f70       0x1c .\CortexM3\ARM_GCC_541\Debug\PSoC_Project.a(UART_BT_IntClock.o)
                0x00001f70                UART_BT_IntClock_Start
 .text.DVDAC_DMA_DmaInitialize
                0x00001f8c       0x3c .\CortexM3\ARM_GCC_541\Debug\PSoC_Project.a(DVDAC_DMA_dma.o)
                0x00001f8c                DVDAC_DMA_DmaInitialize
 .text.DVDAC_VDAC8_Enable
                0x00001fc8       0x1c .\CortexM3\ARM_GCC_541\Debug\PSoC_Project.a(DVDAC_VDAC8.o)
                0x00001fc8                DVDAC_VDAC8_Enable
 .text.DVDAC_VDAC8_Stop
                0x00001fe4       0x1c .\CortexM3\ARM_GCC_541\Debug\PSoC_Project.a(DVDAC_VDAC8.o)
                0x00001fe4                DVDAC_VDAC8_Stop
 .text.DVDAC_VDAC8_SetSpeed
                0x00002000       0x1c .\CortexM3\ARM_GCC_541\Debug\PSoC_Project.a(DVDAC_VDAC8.o)
                0x00002000                DVDAC_VDAC8_SetSpeed
 .text.DVDAC_VDAC8_DacTrim
                0x0000201c       0x24 .\CortexM3\ARM_GCC_541\Debug\PSoC_Project.a(DVDAC_VDAC8.o)
                0x0000201c                DVDAC_VDAC8_DacTrim
 .text.DVDAC_VDAC8_SetRange
                0x00002040       0x20 .\CortexM3\ARM_GCC_541\Debug\PSoC_Project.a(DVDAC_VDAC8.o)
                0x00002040                DVDAC_VDAC8_SetRange
 .text.DVDAC_VDAC8_Init
                0x00002060       0x2c .\CortexM3\ARM_GCC_541\Debug\PSoC_Project.a(DVDAC_VDAC8.o)
                0x00002060                DVDAC_VDAC8_Init
 .text.DVDAC_VDAC8_SaveConfig
                0x0000208c       0x20 .\CortexM3\ARM_GCC_541\Debug\PSoC_Project.a(DVDAC_VDAC8_PM.o)
                0x0000208c                DVDAC_VDAC8_SaveConfig
 .text.DVDAC_VDAC8_RestoreConfig
                0x000020ac       0x4c .\CortexM3\ARM_GCC_541\Debug\PSoC_Project.a(DVDAC_VDAC8_PM.o)
                0x000020ac                DVDAC_VDAC8_RestoreConfig
 .text.DVDAC_IntClock_Start
                0x000020f8       0x1c .\CortexM3\ARM_GCC_541\Debug\PSoC_Project.a(DVDAC_IntClock.o)
                0x000020f8                DVDAC_IntClock_Start
 .text.DVDAC_IntClock_Stop
                0x00002114       0x1c .\CortexM3\ARM_GCC_541\Debug\PSoC_Project.a(DVDAC_IntClock.o)
                0x00002114                DVDAC_IntClock_Stop
 .text.CyDmacConfigure
                0x00002130       0x34 .\CortexM3\ARM_GCC_541\Debug\PSoC_Project.a(CyDmac.o)
                0x00002130                CyDmacConfigure
 .text.CyDmaChEnable
                0x00002164       0x38 .\CortexM3\ARM_GCC_541\Debug\PSoC_Project.a(CyDmac.o)
                0x00002164                CyDmaChEnable
 .text.CyDmaChDisable
                0x0000219c       0x24 .\CortexM3\ARM_GCC_541\Debug\PSoC_Project.a(CyDmac.o)
                0x0000219c                CyDmaChDisable
 .text.CyDmaChPriority
                0x000021c0       0x24 .\CortexM3\ARM_GCC_541\Debug\PSoC_Project.a(CyDmac.o)
                0x000021c0                CyDmaChPriority
 .text.CyDmaChSetExtendedAddress
                0x000021e4       0x34 .\CortexM3\ARM_GCC_541\Debug\PSoC_Project.a(CyDmac.o)
                0x000021e4                CyDmaChSetExtendedAddress
 .text.CyDmaChSetInitialTd
                0x00002218       0x18 .\CortexM3\ARM_GCC_541\Debug\PSoC_Project.a(CyDmac.o)
                0x00002218                CyDmaChSetInitialTd
 .text.CyDmaChSetConfiguration
                0x00002230       0x44 .\CortexM3\ARM_GCC_541\Debug\PSoC_Project.a(CyDmac.o)
                0x00002230                CyDmaChSetConfiguration
 .text.CyDmaTdAllocate
                0x00002274       0x34 .\CortexM3\ARM_GCC_541\Debug\PSoC_Project.a(CyDmac.o)
                0x00002274                CyDmaTdAllocate
 .text.CyDmaTdSetConfiguration
                0x000022a8       0x28 .\CortexM3\ARM_GCC_541\Debug\PSoC_Project.a(CyDmac.o)
                0x000022a8                CyDmaTdSetConfiguration
 .text.CyDmaTdSetAddress
                0x000022d0       0x1c .\CortexM3\ARM_GCC_541\Debug\PSoC_Project.a(CyDmac.o)
                0x000022d0                CyDmaTdSetAddress
 .text.CySetTempInt
                0x000022ec       0x60 .\CortexM3\ARM_GCC_541\Debug\PSoC_Project.a(CyFlash.o)
 .text.CyFlashGetSpcAlgorithm
                0x0000234c       0x4c .\CortexM3\ARM_GCC_541\Debug\PSoC_Project.a(CyFlash.o)
                0x0000234c                CyFlashGetSpcAlgorithm
 .text.CySetTemp
                0x00002398       0x14 .\CortexM3\ARM_GCC_541\Debug\PSoC_Project.a(CyFlash.o)
                0x00002398                CySetTemp
 .text.CyEEPROM_Start
                0x000023ac       0x54 .\CortexM3\ARM_GCC_541\Debug\PSoC_Project.a(CyFlash.o)
                0x000023ac                CyEEPROM_Start
 .text.CyEEPROM_Stop
                0x00002400       0x24 .\CortexM3\ARM_GCC_541\Debug\PSoC_Project.a(CyFlash.o)
                0x00002400                CyEEPROM_Stop
 .text.CyEEPROM_ReadReserve
                0x00002424       0x1c .\CortexM3\ARM_GCC_541\Debug\PSoC_Project.a(CyFlash.o)
                0x00002424                CyEEPROM_ReadReserve
 .text.CyEEPROM_ReadRelease
                0x00002440       0x10 .\CortexM3\ARM_GCC_541\Debug\PSoC_Project.a(CyFlash.o)
                0x00002440                CyEEPROM_ReadRelease
 .text.CyHalt   0x00002450        0x4 .\CortexM3\ARM_GCC_541\Debug\PSoC_Project.a(CyLib.o)
                0x00002450                CyHalt
 .text.CyDelay  0x00002454       0x2c .\CortexM3\ARM_GCC_541\Debug\PSoC_Project.a(CyLib.o)
                0x00002454                CyDelay
 .text.CyDelayUs
                0x00002480       0x14 .\CortexM3\ARM_GCC_541\Debug\PSoC_Project.a(CyLib.o)
                0x00002480                CyDelayUs
 .text.CyIntSetVector
                0x00002494       0x28 .\CortexM3\ARM_GCC_541\Debug\PSoC_Project.a(CyLib.o)
                0x00002494                CyIntSetVector
 .text.CyIntSetPriority
                0x000024bc       0x30 .\CortexM3\ARM_GCC_541\Debug\PSoC_Project.a(CyLib.o)
                0x000024bc                CyIntSetPriority
 .text.CySpcStart
                0x000024ec       0x24 .\CortexM3\ARM_GCC_541\Debug\PSoC_Project.a(CySpc.o)
                0x000024ec                CySpcStart
 .text.CySpcReadData
                0x00002510       0x34 .\CortexM3\ARM_GCC_541\Debug\PSoC_Project.a(CySpc.o)
                0x00002510                CySpcReadData
 .text.CySpcLoadMultiByte
                0x00002544       0x78 .\CortexM3\ARM_GCC_541\Debug\PSoC_Project.a(CySpc.o)
                0x00002544                CySpcLoadMultiByte
 .text.CySpcWriteRow
                0x000025bc       0x4c .\CortexM3\ARM_GCC_541\Debug\PSoC_Project.a(CySpc.o)
                0x000025bc                CySpcWriteRow
 .text.CySpcGetTemp
                0x00002608       0x3c .\CortexM3\ARM_GCC_541\Debug\PSoC_Project.a(CySpc.o)
                0x00002608                CySpcGetTemp
 .text.CySpcLock
                0x00002644       0x4c .\CortexM3\ARM_GCC_541\Debug\PSoC_Project.a(CySpc.o)
                0x00002644                CySpcLock
 .text.CySpcUnlock
                0x00002690       0x38 .\CortexM3\ARM_GCC_541\Debug\PSoC_Project.a(CySpc.o)
                0x00002690                CySpcUnlock
 .text.CySpcGetAlgorithm
                0x000026c8       0x28 .\CortexM3\ARM_GCC_541\Debug\PSoC_Project.a(CySpc.o)
                0x000026c8                CySpcGetAlgorithm
 .text.ADC_SigDel_GainCompensation
                0x000026f0       0xe0 .\CortexM3\ARM_GCC_541\Debug\PSoC_Project.a(ADC_SigDel.o)
 .text.ADC_SigDel_SetDSMRef0Reg
                0x000027d0       0x4c .\CortexM3\ARM_GCC_541\Debug\PSoC_Project.a(ADC_SigDel.o)
 .text.ADC_SigDel_InitConfig
                0x0000281c      0x1a4 .\CortexM3\ARM_GCC_541\Debug\PSoC_Project.a(ADC_SigDel.o)
 .text.ADC_SigDel_Init
                0x000029c0       0xe4 .\CortexM3\ARM_GCC_541\Debug\PSoC_Project.a(ADC_SigDel.o)
                0x000029c0                ADC_SigDel_Init
 .text.ADC_SigDel_Enable
                0x00002aa4       0xd8 .\CortexM3\ARM_GCC_541\Debug\PSoC_Project.a(ADC_SigDel.o)
                0x00002aa4                ADC_SigDel_Enable
 .text.ADC_SigDel_Start
                0x00002b7c       0x28 .\CortexM3\ARM_GCC_541\Debug\PSoC_Project.a(ADC_SigDel.o)
                0x00002b7c                ADC_SigDel_Start
 .text.ADC_SigDel_Stop
                0x00002ba4       0xe4 .\CortexM3\ARM_GCC_541\Debug\PSoC_Project.a(ADC_SigDel.o)
                0x00002ba4                ADC_SigDel_Stop
 .text.ADC_SigDel_StartConvert
                0x00002c88       0x10 .\CortexM3\ARM_GCC_541\Debug\PSoC_Project.a(ADC_SigDel.o)
                0x00002c88                ADC_SigDel_StartConvert
 .text.ADC_SigDel_GetResult16
                0x00002c98       0x50 .\CortexM3\ARM_GCC_541\Debug\PSoC_Project.a(ADC_SigDel.o)
                0x00002c98                ADC_SigDel_GetResult16
 .text.ADC_SigDel_SelectConfiguration
                0x00002ce8       0x64 .\CortexM3\ARM_GCC_541\Debug\PSoC_Project.a(ADC_SigDel.o)
                0x00002ce8                ADC_SigDel_SelectConfiguration
 .text.ADC_SigDel_SaveConfig
                0x00002d4c       0x14 .\CortexM3\ARM_GCC_541\Debug\PSoC_Project.a(ADC_SigDel_PM.o)
                0x00002d4c                ADC_SigDel_SaveConfig
 .text.ADC_SigDel_RestoreConfig
                0x00002d60       0x14 .\CortexM3\ARM_GCC_541\Debug\PSoC_Project.a(ADC_SigDel_PM.o)
                0x00002d60                ADC_SigDel_RestoreConfig
 .text.ADC_SigDel_Sleep
                0x00002d74       0x4c .\CortexM3\ARM_GCC_541\Debug\PSoC_Project.a(ADC_SigDel_PM.o)
                0x00002d74                ADC_SigDel_Sleep
 .text.ADC_SigDel_Wakeup
                0x00002dc0       0x24 .\CortexM3\ARM_GCC_541\Debug\PSoC_Project.a(ADC_SigDel_PM.o)
                0x00002dc0                ADC_SigDel_Wakeup
 .text.ADC_SigDel_ISR1
                0x00002de4        0x4 .\CortexM3\ARM_GCC_541\Debug\PSoC_Project.a(ADC_SigDel_INT.o)
                0x00002de4                ADC_SigDel_ISR1
 .text.ADC_SigDel_ISR2
                0x00002de8        0x4 .\CortexM3\ARM_GCC_541\Debug\PSoC_Project.a(ADC_SigDel_INT.o)
                0x00002de8                ADC_SigDel_ISR2
 .text.ADC_SigDel_Ext_CP_Clk_GetDividerRegister
                0x00002dec        0xc .\CortexM3\ARM_GCC_541\Debug\PSoC_Project.a(ADC_SigDel_Ext_CP_Clk.o)
                0x00002dec                ADC_SigDel_Ext_CP_Clk_GetDividerRegister
 .text.ADC_SigDel_Ext_CP_Clk_SetModeRegister
                0x00002df8       0x14 .\CortexM3\ARM_GCC_541\Debug\PSoC_Project.a(ADC_SigDel_Ext_CP_Clk.o)
                0x00002df8                ADC_SigDel_Ext_CP_Clk_SetModeRegister
 .text.ADC_SigDel_Ext_CP_Clk_GetSourceRegister
                0x00002e0c       0x10 .\CortexM3\ARM_GCC_541\Debug\PSoC_Project.a(ADC_SigDel_Ext_CP_Clk.o)
                0x00002e0c                ADC_SigDel_Ext_CP_Clk_GetSourceRegister
 .text.ADC_SigDel_Ext_CP_Clk_SetDividerRegister
                0x00002e1c       0xdc .\CortexM3\ARM_GCC_541\Debug\PSoC_Project.a(ADC_SigDel_Ext_CP_Clk.o)
                0x00002e1c                ADC_SigDel_Ext_CP_Clk_SetDividerRegister
 .text.ADC_SigDel_theACLK_GetDividerRegister
                0x00002ef8        0xc .\CortexM3\ARM_GCC_541\Debug\PSoC_Project.a(ADC_SigDel_theACLK.o)
                0x00002ef8                ADC_SigDel_theACLK_GetDividerRegister
 .text.ADC_SigDel_theACLK_SetModeRegister
                0x00002f04       0x14 .\CortexM3\ARM_GCC_541\Debug\PSoC_Project.a(ADC_SigDel_theACLK.o)
                0x00002f04                ADC_SigDel_theACLK_SetModeRegister
 .text.ADC_SigDel_theACLK_GetSourceRegister
                0x00002f18       0x10 .\CortexM3\ARM_GCC_541\Debug\PSoC_Project.a(ADC_SigDel_theACLK.o)
                0x00002f18                ADC_SigDel_theACLK_GetSourceRegister
 .text.ADC_SigDel_theACLK_SetDividerRegister
                0x00002f28       0xd8 .\CortexM3\ARM_GCC_541\Debug\PSoC_Project.a(ADC_SigDel_theACLK.o)
                0x00002f28                ADC_SigDel_theACLK_SetDividerRegister
 .text.isr_UART_BT_RX_SetVector
                0x00003000        0xc .\CortexM3\ARM_GCC_541\Debug\PSoC_Project.a(isr_UART_BT_RX.o)
                0x00003000                isr_UART_BT_RX_SetVector
 .text.isr_UART_BT_RX_SetPriority
                0x0000300c       0x10 .\CortexM3\ARM_GCC_541\Debug\PSoC_Project.a(isr_UART_BT_RX.o)
                0x0000300c                isr_UART_BT_RX_SetPriority
 .text.isr_UART_BT_RX_Enable
                0x0000301c        0xc .\CortexM3\ARM_GCC_541\Debug\PSoC_Project.a(isr_UART_BT_RX.o)
                0x0000301c                isr_UART_BT_RX_Enable
 .text.isr_UART_BT_RX_Disable
                0x00003028        0xc .\CortexM3\ARM_GCC_541\Debug\PSoC_Project.a(isr_UART_BT_RX.o)
                0x00003028                isr_UART_BT_RX_Disable
 .text.isr_UART_BT_RX_StartEx
                0x00003034       0x1c .\CortexM3\ARM_GCC_541\Debug\PSoC_Project.a(isr_UART_BT_RX.o)
                0x00003034                isr_UART_BT_RX_StartEx
 .text.LED_DAC_Write
                0x00003050       0x18 .\CortexM3\ARM_GCC_541\Debug\PSoC_Project.a(LED_DAC.o)
                0x00003050                LED_DAC_Write
 .text.LED_ADC_Write
                0x00003068       0x18 .\CortexM3\ARM_GCC_541\Debug\PSoC_Project.a(LED_ADC.o)
                0x00003068                LED_ADC_Write
 .text          0x00003080       0x20 .\CortexM3\ARM_GCC_541\Debug\PSoC_Project.a(CyBootAsmGnu.o)
                0x00003080                CyDelayCycles
                0x00003090                CyEnterCriticalSection
                0x00003098                CyExitCriticalSection
 .text          0x000030a0      0x370 c:/program files (x86)/cypress/psoc creator/4.4/psoc creator/import/gnu/arm/5.4.1/bin/../lib/gcc/arm-none-eabi/5.4.1/armv7-m\libgcc.a(_arm_addsubdf3.o)
                0x000030a0                __aeabi_drsub
                0x000030a8                __aeabi_dsub
                0x000030a8                __subdf3
                0x000030ac                __aeabi_dadd
                0x000030ac                __adddf3
                0x00003324                __floatunsidf
                0x00003324                __aeabi_ui2d
                0x00003344                __floatsidf
                0x00003344                __aeabi_i2d
                0x00003368                __aeabi_f2d
                0x00003368                __extendsfdf2
                0x000033a4                __floatundidf
                0x000033a4                __aeabi_ul2d
                0x000033b4                __floatdidf
                0x000033b4                __aeabi_l2d
 .text          0x00003410      0x424 c:/program files (x86)/cypress/psoc creator/4.4/psoc creator/import/gnu/arm/5.4.1/bin/../lib/gcc/arm-none-eabi/5.4.1/armv7-m\libgcc.a(_arm_muldivdf3.o)
                0x00003410                __aeabi_dmul
                0x00003410                __muldf3
                0x00003664                __divdf3
                0x00003664                __aeabi_ddiv
 .text          0x00003834       0xa0 c:/program files (x86)/cypress/psoc creator/4.4/psoc creator/import/gnu/arm/5.4.1/bin/../lib/gcc/arm-none-eabi/5.4.1/armv7-m\libgcc.a(_arm_truncdfsf2.o)
                0x00003834                __truncdfsf2
                0x00003834                __aeabi_d2f
 .text          0x000038d4       0x4c c:/program files (x86)/cypress/psoc creator/4.4/psoc creator/import/gnu/arm/5.4.1/bin/../lib/gcc/arm-none-eabi/5.4.1/armv7-m\libgcc.a(_arm_fixsfsi.o)
                0x000038d4                __aeabi_f2iz
                0x000038d4                __fixsfsi
 .text.__errno  0x00003920        0xc c:/program files (x86)/cypress/psoc creator/4.4/psoc creator/import/gnu/arm/5.4.1/bin/../lib/gcc/arm-none-eabi/5.4.1/../../../../arm-none-eabi/lib/armv7-m\libg_nano.a(lib_a-errno.o)
                0x00003920                __errno
 .text.__libc_init_array
                0x0000392c       0x4c c:/program files (x86)/cypress/psoc creator/4.4/psoc creator/import/gnu/arm/5.4.1/bin/../lib/gcc/arm-none-eabi/5.4.1/../../../../arm-none-eabi/lib/armv7-m\libg_nano.a(lib_a-init.o)
                0x0000392c                __libc_init_array
 .text.memcpy   0x00003978       0x16 c:/program files (x86)/cypress/psoc creator/4.4/psoc creator/import/gnu/arm/5.4.1/bin/../lib/gcc/arm-none-eabi/5.4.1/../../../../arm-none-eabi/lib/armv7-m\libg_nano.a(lib_a-memcpy-stub.o)
                0x00003978                memcpy
 .text.memset   0x0000398e       0x10 c:/program files (x86)/cypress/psoc creator/4.4/psoc creator/import/gnu/arm/5.4.1/bin/../lib/gcc/arm-none-eabi/5.4.1/../../../../arm-none-eabi/lib/armv7-m\libg_nano.a(lib_a-memset.o)
                0x0000398e                memset
 *fill*         0x0000399e        0x2 
 .text.printf   0x000039a0       0x30 c:/program files (x86)/cypress/psoc creator/4.4/psoc creator/import/gnu/arm/5.4.1/bin/../lib/gcc/arm-none-eabi/5.4.1/../../../../arm-none-eabi/lib/armv7-m\libg_nano.a(lib_a-printf.o)
                0x000039a0                iprintf
                0x000039a0                printf
 .text._cleanup_r
                0x000039d0        0xc c:/program files (x86)/cypress/psoc creator/4.4/psoc creator/import/gnu/arm/5.4.1/bin/../lib/gcc/arm-none-eabi/5.4.1/../../../../arm-none-eabi/lib/armv7-m\libg_nano.a(lib_a-findfp.o)
                0x000039d0                _cleanup_r
 .text.std.isra.0
                0x000039dc       0x48 c:/program files (x86)/cypress/psoc creator/4.4/psoc creator/import/gnu/arm/5.4.1/bin/../lib/gcc/arm-none-eabi/5.4.1/../../../../arm-none-eabi/lib/armv7-m\libg_nano.a(lib_a-findfp.o)
 .text.__sfmoreglue
                0x00003a24       0x2c c:/program files (x86)/cypress/psoc creator/4.4/psoc creator/import/gnu/arm/5.4.1/bin/../lib/gcc/arm-none-eabi/5.4.1/../../../../arm-none-eabi/lib/armv7-m\libg_nano.a(lib_a-findfp.o)
                0x00003a24                __sfmoreglue
 .text.__sinit  0x00003a50       0x60 c:/program files (x86)/cypress/psoc creator/4.4/psoc creator/import/gnu/arm/5.4.1/bin/../lib/gcc/arm-none-eabi/5.4.1/../../../../arm-none-eabi/lib/armv7-m\libg_nano.a(lib_a-findfp.o)
                0x00003a50                __sinit
 .text.__sfp    0x00003ab0       0x78 c:/program files (x86)/cypress/psoc creator/4.4/psoc creator/import/gnu/arm/5.4.1/bin/../lib/gcc/arm-none-eabi/5.4.1/../../../../arm-none-eabi/lib/armv7-m\libg_nano.a(lib_a-findfp.o)
                0x00003ab0                __sfp
 .text._fwalk_reent
                0x00003b28       0x3c c:/program files (x86)/cypress/psoc creator/4.4/psoc creator/import/gnu/arm/5.4.1/bin/../lib/gcc/arm-none-eabi/5.4.1/../../../../arm-none-eabi/lib/armv7-m\libg_nano.a(lib_a-fwalk.o)
                0x00003b28                _fwalk_reent
 .text._malloc_r
                0x00003b64       0xbc c:/program files (x86)/cypress/psoc creator/4.4/psoc creator/import/gnu/arm/5.4.1/bin/../lib/gcc/arm-none-eabi/5.4.1/../../../../arm-none-eabi/lib/armv7-m\libg_nano.a(lib_a-nano-mallocr.o)
                0x00003b64                _malloc_r
 .text.__sfputc_r
                0x00003c20       0x2c c:/program files (x86)/cypress/psoc creator/4.4/psoc creator/import/gnu/arm/5.4.1/bin/../lib/gcc/arm-none-eabi/5.4.1/../../../../arm-none-eabi/lib/armv7-m\libg_nano.a(lib_a-nano-vfprintf.o)
 .text.__sfputs_r
                0x00003c4c       0x24 c:/program files (x86)/cypress/psoc creator/4.4/psoc creator/import/gnu/arm/5.4.1/bin/../lib/gcc/arm-none-eabi/5.4.1/../../../../arm-none-eabi/lib/armv7-m\libg_nano.a(lib_a-nano-vfprintf.o)
                0x00003c4c                __sfputs_r
 .text._vfprintf_r
                0x00003c70      0x238 c:/program files (x86)/cypress/psoc creator/4.4/psoc creator/import/gnu/arm/5.4.1/bin/../lib/gcc/arm-none-eabi/5.4.1/../../../../arm-none-eabi/lib/armv7-m\libg_nano.a(lib_a-nano-vfprintf.o)
                0x00003c70                _vfprintf_r
                0x00003c70                _vfiprintf_r
 .text._printf_common
                0x00003ea8       0xec c:/program files (x86)/cypress/psoc creator/4.4/psoc creator/import/gnu/arm/5.4.1/bin/../lib/gcc/arm-none-eabi/5.4.1/../../../../arm-none-eabi/lib/armv7-m\libg_nano.a(lib_a-nano-vfprintf_i.o)
                0x00003ea8                _printf_common
 .text._printf_i
                0x00003f94      0x24c c:/program files (x86)/cypress/psoc creator/4.4/psoc creator/import/gnu/arm/5.4.1/bin/../lib/gcc/arm-none-eabi/5.4.1/../../../../arm-none-eabi/lib/armv7-m\libg_nano.a(lib_a-nano-vfprintf_i.o)
                0x00003f94                _printf_i
 .text._sbrk_r  0x000041e0       0x20 c:/program files (x86)/cypress/psoc creator/4.4/psoc creator/import/gnu/arm/5.4.1/bin/../lib/gcc/arm-none-eabi/5.4.1/../../../../arm-none-eabi/lib/armv7-m\libg_nano.a(lib_a-sbrkr.o)
                0x000041e0                _sbrk_r
 .text.__sread  0x00004200       0x22 c:/program files (x86)/cypress/psoc creator/4.4/psoc creator/import/gnu/arm/5.4.1/bin/../lib/gcc/arm-none-eabi/5.4.1/../../../../arm-none-eabi/lib/armv7-m\libg_nano.a(lib_a-stdio.o)
                0x00004200                __sread
 .text.__swrite
                0x00004222       0x38 c:/program files (x86)/cypress/psoc creator/4.4/psoc creator/import/gnu/arm/5.4.1/bin/../lib/gcc/arm-none-eabi/5.4.1/../../../../arm-none-eabi/lib/armv7-m\libg_nano.a(lib_a-stdio.o)
                0x00004222                __swrite
 .text.__sseek  0x0000425a       0x24 c:/program files (x86)/cypress/psoc creator/4.4/psoc creator/import/gnu/arm/5.4.1/bin/../lib/gcc/arm-none-eabi/5.4.1/../../../../arm-none-eabi/lib/armv7-m\libg_nano.a(lib_a-stdio.o)
                0x0000425a                __sseek
 .text.__sclose
                0x0000427e        0x8 c:/program files (x86)/cypress/psoc creator/4.4/psoc creator/import/gnu/arm/5.4.1/bin/../lib/gcc/arm-none-eabi/5.4.1/../../../../arm-none-eabi/lib/armv7-m\libg_nano.a(lib_a-stdio.o)
                0x0000427e                __sclose
 *fill*         0x00004286        0x2 
 .text.__swbuf_r
                0x00004288       0xa8 c:/program files (x86)/cypress/psoc creator/4.4/psoc creator/import/gnu/arm/5.4.1/bin/../lib/gcc/arm-none-eabi/5.4.1/../../../../arm-none-eabi/lib/armv7-m\libg_nano.a(lib_a-wbuf.o)
                0x00004288                __swbuf_r
 .text._write_r
                0x00004330       0x24 c:/program files (x86)/cypress/psoc creator/4.4/psoc creator/import/gnu/arm/5.4.1/bin/../lib/gcc/arm-none-eabi/5.4.1/../../../../arm-none-eabi/lib/armv7-m\libg_nano.a(lib_a-writer.o)
                0x00004330                _write_r
 .text.__swsetup_r
                0x00004354       0xdc c:/program files (x86)/cypress/psoc creator/4.4/psoc creator/import/gnu/arm/5.4.1/bin/../lib/gcc/arm-none-eabi/5.4.1/../../../../arm-none-eabi/lib/armv7-m\libg_nano.a(lib_a-wsetup.o)
                0x00004354                __swsetup_r
 .text._close_r
                0x00004430       0x20 c:/program files (x86)/cypress/psoc creator/4.4/psoc creator/import/gnu/arm/5.4.1/bin/../lib/gcc/arm-none-eabi/5.4.1/../../../../arm-none-eabi/lib/armv7-m\libg_nano.a(lib_a-closer.o)
                0x00004430                _close_r
 .text.__sflush_r
                0x00004450      0x10c c:/program files (x86)/cypress/psoc creator/4.4/psoc creator/import/gnu/arm/5.4.1/bin/../lib/gcc/arm-none-eabi/5.4.1/../../../../arm-none-eabi/lib/armv7-m\libg_nano.a(lib_a-fflush.o)
                0x00004450                __sflush_r
 .text._fflush_r
                0x0000455c       0x54 c:/program files (x86)/cypress/psoc creator/4.4/psoc creator/import/gnu/arm/5.4.1/bin/../lib/gcc/arm-none-eabi/5.4.1/../../../../arm-none-eabi/lib/armv7-m\libg_nano.a(lib_a-fflush.o)
                0x0000455c                _fflush_r
 .text._lseek_r
                0x000045b0       0x24 c:/program files (x86)/cypress/psoc creator/4.4/psoc creator/import/gnu/arm/5.4.1/bin/../lib/gcc/arm-none-eabi/5.4.1/../../../../arm-none-eabi/lib/armv7-m\libg_nano.a(lib_a-lseekr.o)
                0x000045b0                _lseek_r
 .text.__swhatbuf_r
                0x000045d4       0x46 c:/program files (x86)/cypress/psoc creator/4.4/psoc creator/import/gnu/arm/5.4.1/bin/../lib/gcc/arm-none-eabi/5.4.1/../../../../arm-none-eabi/lib/armv7-m\libg_nano.a(lib_a-makebuf.o)
                0x000045d4                __swhatbuf_r
 *fill*         0x0000461a        0x2 
 .text.__smakebuf_r
                0x0000461c       0x78 c:/program files (x86)/cypress/psoc creator/4.4/psoc creator/import/gnu/arm/5.4.1/bin/../lib/gcc/arm-none-eabi/5.4.1/../../../../arm-none-eabi/lib/armv7-m\libg_nano.a(lib_a-makebuf.o)
                0x0000461c                __smakebuf_r
 .text.memchr   0x00004694       0x1c c:/program files (x86)/cypress/psoc creator/4.4/psoc creator/import/gnu/arm/5.4.1/bin/../lib/gcc/arm-none-eabi/5.4.1/../../../../arm-none-eabi/lib/armv7-m\libg_nano.a(lib_a-memchr-stub.o)
                0x00004694                memchr
 .text.__malloc_lock
                0x000046b0        0x2 c:/program files (x86)/cypress/psoc creator/4.4/psoc creator/import/gnu/arm/5.4.1/bin/../lib/gcc/arm-none-eabi/5.4.1/../../../../arm-none-eabi/lib/armv7-m\libg_nano.a(lib_a-mlock.o)
                0x000046b0                __malloc_lock
 .text.__malloc_unlock
                0x000046b2        0x2 c:/program files (x86)/cypress/psoc creator/4.4/psoc creator/import/gnu/arm/5.4.1/bin/../lib/gcc/arm-none-eabi/5.4.1/../../../../arm-none-eabi/lib/armv7-m\libg_nano.a(lib_a-mlock.o)
                0x000046b2                __malloc_unlock
 .text._free_r  0x000046b4       0x98 c:/program files (x86)/cypress/psoc creator/4.4/psoc creator/import/gnu/arm/5.4.1/bin/../lib/gcc/arm-none-eabi/5.4.1/../../../../arm-none-eabi/lib/armv7-m\libg_nano.a(lib_a-nano-freer.o)
                0x000046b4                _free_r
 .text._read_r  0x0000474c       0x24 c:/program files (x86)/cypress/psoc creator/4.4/psoc creator/import/gnu/arm/5.4.1/bin/../lib/gcc/arm-none-eabi/5.4.1/../../../../arm-none-eabi/lib/armv7-m\libg_nano.a(lib_a-readr.o)
                0x0000474c                _read_r
 .text._fstat_r
                0x00004770       0x24 c:/program files (x86)/cypress/psoc creator/4.4/psoc creator/import/gnu/arm/5.4.1/bin/../lib/gcc/arm-none-eabi/5.4.1/../../../../arm-none-eabi/lib/armv7-m\libg_nano.a(lib_a-fstatr.o)
                0x00004770                _fstat_r
 .text._isatty_r
                0x00004794       0x20 c:/program files (x86)/cypress/psoc creator/4.4/psoc creator/import/gnu/arm/5.4.1/bin/../lib/gcc/arm-none-eabi/5.4.1/../../../../arm-none-eabi/lib/armv7-m\libg_nano.a(lib_a-isattyr.o)
                0x00004794                _isatty_r
 .text._close   0x000047b4       0x10 c:/program files (x86)/cypress/psoc creator/4.4/psoc creator/import/gnu/arm/5.4.1/bin/../lib/gcc/arm-none-eabi/5.4.1/../../../../arm-none-eabi/lib/armv7-m\libnosys.a(close.o)
                0x000047b4                _close
 .text._fstat   0x000047c4       0x10 c:/program files (x86)/cypress/psoc creator/4.4/psoc creator/import/gnu/arm/5.4.1/bin/../lib/gcc/arm-none-eabi/5.4.1/../../../../arm-none-eabi/lib/armv7-m\libnosys.a(fstat.o)
                0x000047c4                _fstat
 .text._isatty  0x000047d4       0x10 c:/program files (x86)/cypress/psoc creator/4.4/psoc creator/import/gnu/arm/5.4.1/bin/../lib/gcc/arm-none-eabi/5.4.1/../../../../arm-none-eabi/lib/armv7-m\libnosys.a(isatty.o)
                0x000047d4                _isatty
 .text._lseek   0x000047e4       0x10 c:/program files (x86)/cypress/psoc creator/4.4/psoc creator/import/gnu/arm/5.4.1/bin/../lib/gcc/arm-none-eabi/5.4.1/../../../../arm-none-eabi/lib/armv7-m\libnosys.a(lseek.o)
                0x000047e4                _lseek
 .text._read    0x000047f4       0x10 c:/program files (x86)/cypress/psoc creator/4.4/psoc creator/import/gnu/arm/5.4.1/bin/../lib/gcc/arm-none-eabi/5.4.1/../../../../arm-none-eabi/lib/armv7-m\libnosys.a(read.o)
                0x000047f4                _read
 .text._write   0x00004804       0x10 c:/program files (x86)/cypress/psoc creator/4.4/psoc creator/import/gnu/arm/5.4.1/bin/../lib/gcc/arm-none-eabi/5.4.1/../../../../arm-none-eabi/lib/armv7-m\libnosys.a(write.o)
                0x00004804                _write
 *(.plt)
 *(.gnu.warning)
 *(.glue_7t)
 .glue_7t       0x00004814        0x0 linker stubs
 *(.glue_7)
 .glue_7        0x00004814        0x0 linker stubs
 *(.vfp11_veneer)
 .vfp11_veneer  0x00004814        0x0 linker stubs
 *(.bootloader)
 *(.ARM.extab* .gnu.linkonce.armextab.*)
 *(.gcc_except_table)

.v4_bx          0x00004814        0x0
 .v4_bx         0x00004814        0x0 linker stubs

.iplt           0x00004814        0x0
 .iplt          0x00004814        0x0 c:/program files (x86)/cypress/psoc creator/4.4/psoc creator/import/gnu/arm/5.4.1/bin/../lib/gcc/arm-none-eabi/5.4.1/armv7-m/crtbegin.o

.eh_frame_hdr
 *(.eh_frame_hdr)

.eh_frame       0x00004814        0x4
 *(.eh_frame)
 .eh_frame      0x00004814        0x0 c:/program files (x86)/cypress/psoc creator/4.4/psoc creator/import/gnu/arm/5.4.1/bin/../lib/gcc/arm-none-eabi/5.4.1/armv7-m/crtbegin.o
 .eh_frame      0x00004814        0x4 c:/program files (x86)/cypress/psoc creator/4.4/psoc creator/import/gnu/arm/5.4.1/bin/../lib/gcc/arm-none-eabi/5.4.1/armv7-m/crtend.o
                [!provide]                PROVIDE (__exidx_start, .)

.ARM.exidx
 *(.ARM.exidx* .gnu.linkonce.armexidx.*)
                0x00004818                __exidx_end = .

.rodata         0x00004818      0x160
 *(.rodata .rodata.* .gnu.linkonce.r.*)
 .rodata        0x00004818       0x10 .\CortexM3\ARM_GCC_541\Debug\TIA_calibrate.o
                0x00004818                calibrate_TIA_resistor_list
 .rodata.str1.4
                0x00004828        0xb .\CortexM3\ARM_GCC_541\Debug\parametric_lut.o
 *fill*         0x00004833        0x1 
 .rodata.str1.4
                0x00004834        0x8 .\CortexM3\ARM_GCC_541\Debug\BT_protocols.o
                                  0x6 (size before relaxing)
 .rodata        0x0000483c       0x6e .\CortexM3\ARM_GCC_541\Debug\cyfitter_cfg.o
                0x0000483c                AMux_TIA_input__addrTable
                0x00004848                AMux_TIA_input__maskTable
                0x0000484c                AMux_TIA_resistor_bypass__addrTable
                0x00004854                AMux_TIA_resistor_bypass__maskTable
                0x00004858                AMux_V_source__addrTable
                0x00004860                AMux_V_source__maskTable
                0x00004864                AMux_electrode__addrTable
                0x0000486c                AMux_electrode__maskTable
 .rodata.str1.1
                0x000048aa        0x2 c:/program files (x86)/cypress/psoc creator/4.4/psoc creator/import/gnu/arm/5.4.1/bin/../lib/gcc/arm-none-eabi/5.4.1/../../../../arm-none-eabi/lib/armv7-m\libg_nano.a(lib_a-impure.o)
 .rodata._global_impure_ptr
                0x000048ac        0x4 c:/program files (x86)/cypress/psoc creator/4.4/psoc creator/import/gnu/arm/5.4.1/bin/../lib/gcc/arm-none-eabi/5.4.1/../../../../arm-none-eabi/lib/armv7-m\libg_nano.a(lib_a-impure.o)
                0x000048ac                _global_impure_ptr
 .rodata.__sf_fake_stdin
                0x000048b0       0x20 c:/program files (x86)/cypress/psoc creator/4.4/psoc creator/import/gnu/arm/5.4.1/bin/../lib/gcc/arm-none-eabi/5.4.1/../../../../arm-none-eabi/lib/armv7-m\libg_nano.a(lib_a-findfp.o)
                0x000048b0                __sf_fake_stdin
 .rodata.__sf_fake_stdout
                0x000048d0       0x20 c:/program files (x86)/cypress/psoc creator/4.4/psoc creator/import/gnu/arm/5.4.1/bin/../lib/gcc/arm-none-eabi/5.4.1/../../../../arm-none-eabi/lib/armv7-m\libg_nano.a(lib_a-findfp.o)
                0x000048d0                __sf_fake_stdout
 .rodata.__sf_fake_stderr
                0x000048f0       0x20 c:/program files (x86)/cypress/psoc creator/4.4/psoc creator/import/gnu/arm/5.4.1/bin/../lib/gcc/arm-none-eabi/5.4.1/../../../../arm-none-eabi/lib/armv7-m\libg_nano.a(lib_a-findfp.o)
                0x000048f0                __sf_fake_stderr
 .rodata.str1.1
                0x00004910       0x11 c:/program files (x86)/cypress/psoc creator/4.4/psoc creator/import/gnu/arm/5.4.1/bin/../lib/gcc/arm-none-eabi/5.4.1/../../../../arm-none-eabi/lib/armv7-m\libg_nano.a(lib_a-nano-vfprintf.o)
 .rodata.str1.1
                0x00004921       0x22 c:/program files (x86)/cypress/psoc creator/4.4/psoc creator/import/gnu/arm/5.4.1/bin/../lib/gcc/arm-none-eabi/5.4.1/../../../../arm-none-eabi/lib/armv7-m\libg_nano.a(lib_a-nano-vfprintf_i.o)
                0x00004944                . = ALIGN (0x4)
 *fill*         0x00004943        0x1 
 *(.init)
 .init          0x00004944        0x4 c:/program files (x86)/cypress/psoc creator/4.4/psoc creator/import/gnu/arm/5.4.1/bin/../lib/gcc/arm-none-eabi/5.4.1/armv7-m/crti.o
                0x00004944                _init
 .init          0x00004948        0x8 c:/program files (x86)/cypress/psoc creator/4.4/psoc creator/import/gnu/arm/5.4.1/bin/../lib/gcc/arm-none-eabi/5.4.1/armv7-m/crtn.o
                0x00004950                . = ALIGN (0x4)
                0x00004950                __preinit_array_start = .
 *(.preinit_array)
                0x00004950                __preinit_array_end = .
                0x00004950                . = ALIGN (0x4)
                0x00004950                __init_array_start = .
 *(SORT(.init_array.*))
 *(.init_array)
 .init_array    0x00004950        0x4 c:/program files (x86)/cypress/psoc creator/4.4/psoc creator/import/gnu/arm/5.4.1/bin/../lib/gcc/arm-none-eabi/5.4.1/armv7-m/crtbegin.o
 .init_array    0x00004954        0x4 .\CortexM3\ARM_GCC_541\Debug\Cm3Start.o
                0x00004958                __init_array_end = .
                0x00004958                . = ALIGN (0x4)
 *(.fini)
 .fini          0x00004958        0x4 c:/program files (x86)/cypress/psoc creator/4.4/psoc creator/import/gnu/arm/5.4.1/bin/../lib/gcc/arm-none-eabi/5.4.1/armv7-m/crti.o
                0x00004958                _fini
 .fini          0x0000495c        0x8 c:/program files (x86)/cypress/psoc creator/4.4/psoc creator/import/gnu/arm/5.4.1/bin/../lib/gcc/arm-none-eabi/5.4.1/armv7-m/crtn.o
                0x00004964                . = ALIGN (0x4)
                0x00004964                __fini_array_start = .
 *(.fini_array)
 .fini_array    0x00004964        0x4 c:/program files (x86)/cypress/psoc creator/4.4/psoc creator/import/gnu/arm/5.4.1/bin/../lib/gcc/arm-none-eabi/5.4.1/armv7-m/crtbegin.o
 *(SORT(.fini_array.*))
                0x00004968                __fini_array_end = .
                0x00004968                . = ALIGN (0x4)
 *crtbegin.o(.ctors)
 *(EXCLUDE_FILE(*crtend.o) .ctors)
 *(SORT(.ctors.*))
 *crtend.o(.ctors)
                0x00004968                . = ALIGN (0x4)
 *crtbegin.o(.dtors)
 *(EXCLUDE_FILE(*crtend.o) .dtors)
 *(SORT(.dtors.*))
 *crtend.o(.dtors)
                0x00004968                . = ALIGN (0x4)
                0x00004968                __cy_regions = .
                0x00004968        0x4 LONG 0x4978 __cy_region_init_ram
                0x0000496c        0x4 LONG 0x1fff80c8 __cy_region_start_data
                0x00004970        0x4 LONG 0xa8 __cy_region_init_size_ram
                0x00004974        0x4 LONG 0x3c08 __cy_region_zero_size_ram
                0x00004978                __cy_regions_end = .
                0x00004978                . = ALIGN (0x8)
                0x00004978                _etext = .

.cy_checksum_exclude
                0x00004978        0x0
 *(.cy_checksum_exclude)

.ramvectors     0x1fff8000       0xc0
                0x1fff8000                __cy_region_start_ram = .
 *(.ramvectors)
 .ramvectors    0x1fff8000       0xc0 .\CortexM3\ARM_GCC_541\Debug\Cm3Start.o
                0x1fff8000                CyRamVectors

.noinit         0x1fff80c0        0x1
 *(.noinit)
 .noinit        0x1fff80c0        0x1 .\CortexM3\ARM_GCC_541\Debug\PSoC_Project.a(CyLib.o)
                0x1fff80c0                CyResetStatus

.data           0x1fff80c8       0xa8 load address 0x00004978
                0x1fff80c8                __cy_region_start_data = .
 *(.jcr)
 .jcr           0x1fff80c8        0x0 c:/program files (x86)/cypress/psoc creator/4.4/psoc creator/import/gnu/arm/5.4.1/bin/../lib/gcc/arm-none-eabi/5.4.1/armv7-m/crtbegin.o
 .jcr           0x1fff80c8        0x4 c:/program files (x86)/cypress/psoc creator/4.4/psoc creator/import/gnu/arm/5.4.1/bin/../lib/gcc/arm-none-eabi/5.4.1/armv7-m/crtend.o
 *(.got.plt)
 *(.got)
 *(.shdata)
 *(.data .data.* .gnu.linkonce.d.*)
 .data          0x1fff80cc        0x4 .\CortexM3\ARM_GCC_541\Debug\Cm3Start.o
 .data          0x1fff80d0        0x1 .\CortexM3\ARM_GCC_541\Debug\PSoC_Project.a(AMux_TIA_resistor_bypass.o)
 .data          0x1fff80d1        0x1 .\CortexM3\ARM_GCC_541\Debug\PSoC_Project.a(AMux_TIA_input.o)
 .data          0x1fff80d2        0x1 .\CortexM3\ARM_GCC_541\Debug\PSoC_Project.a(AMux_electrode.o)
 .data          0x1fff80d3        0x1 .\CortexM3\ARM_GCC_541\Debug\PSoC_Project.a(AMux_V_source.o)
 .data          0x1fff80d4       0x14 .\CortexM3\ARM_GCC_541\Debug\PSoC_Project.a(DVDAC.o)
 .data          0x1fff80e8        0x1 .\CortexM3\ARM_GCC_541\Debug\PSoC_Project.a(DVDAC_DMA_dma.o)
                0x1fff80e8                DVDAC_DMA_DmaHandle
 *fill*         0x1fff80e9        0x3 
 .data          0x1fff80ec        0x8 .\CortexM3\ARM_GCC_541\Debug\PSoC_Project.a(CyDmac.o)
 .data          0x1fff80f4       0x10 .\CortexM3\ARM_GCC_541\Debug\PSoC_Project.a(CyLib.o)
                0x1fff80f4                cydelay_32k_ms
                0x1fff80f8                cydelay_freq_khz
                0x1fff80fc                cydelay_freq_mhz
                0x1fff8100                cydelay_freq_hz
 .data          0x1fff8104        0x1 .\CortexM3\ARM_GCC_541\Debug\PSoC_Project.a(ADC_SigDel.o)
                0x1fff8104                ADC_SigDel_Config
 *fill*         0x1fff8105        0x3 
 .data          0x1fff8108        0x2 .\CortexM3\ARM_GCC_541\Debug\PSoC_Project.a(ADC_SigDel_PM.o)
 *fill*         0x1fff810a        0x2 
 .data.impure_data
                0x1fff810c       0x60 c:/program files (x86)/cypress/psoc creator/4.4/psoc creator/import/gnu/arm/5.4.1/bin/../lib/gcc/arm-none-eabi/5.4.1/../../../../arm-none-eabi/lib/armv7-m\libg_nano.a(lib_a-impure.o)
 .data._impure_ptr
                0x1fff816c        0x4 c:/program files (x86)/cypress/psoc creator/4.4/psoc creator/import/gnu/arm/5.4.1/bin/../lib/gcc/arm-none-eabi/5.4.1/../../../../arm-none-eabi/lib/armv7-m\libg_nano.a(lib_a-impure.o)
                0x1fff816c                _impure_ptr
                0x1fff8170                . = ALIGN (0x8)
 *(.ram)
                0x1fff8170                _edata = .

.igot.plt       0x1fff8170        0x0 load address 0x00004a20
 .igot.plt      0x1fff8170        0x0 c:/program files (x86)/cypress/psoc creator/4.4/psoc creator/import/gnu/arm/5.4.1/bin/../lib/gcc/arm-none-eabi/5.4.1/armv7-m/crtbegin.o

.bss            0x1fff8170     0x3c08 load address 0x00004a20
                0x1fff8170                PROVIDE (__bss_start__, .)
 *(.shbss)
 *(.bss .bss.* .gnu.linkonce.b.*)
 .bss           0x1fff8170       0x1c c:/program files (x86)/cypress/psoc creator/4.4/psoc creator/import/gnu/arm/5.4.1/bin/../lib/gcc/arm-none-eabi/5.4.1/armv7-m/crtbegin.o
 .bss           0x1fff818c        0x3 .\CortexM3\ARM_GCC_541\Debug\main.o
 *fill*         0x1fff818f        0x1 
 .bss           0x1fff8190        0x5 .\CortexM3\ARM_GCC_541\Debug\TIA_calibrate.o
 .bss           0x1fff8195        0x1 .\CortexM3\ARM_GCC_541\Debug\PSoC_Project.a(IDAC_calibrate.o)
                0x1fff8195                IDAC_calibrate_initVar
 .bss           0x1fff8196        0x1 .\CortexM3\ARM_GCC_541\Debug\PSoC_Project.a(VDAC_TIA.o)
                0x1fff8196                VDAC_TIA_initVar
 *fill*         0x1fff8197        0x1 
 .bss           0x1fff8198        0x2 .\CortexM3\ARM_GCC_541\Debug\PSoC_Project.a(VDAC_TIA_PM.o)
 .bss           0x1fff819a        0x1 .\CortexM3\ARM_GCC_541\Debug\PSoC_Project.a(TIA.o)
                0x1fff819a                TIA_initVar
 *fill*         0x1fff819b        0x1 
 .bss           0x1fff819c        0x4 .\CortexM3\ARM_GCC_541\Debug\PSoC_Project.a(TIA_PM.o)
 .bss           0x1fff81a0        0x2 .\CortexM3\ARM_GCC_541\Debug\PSoC_Project.a(UART_BT.o)
                0x1fff81a0                UART_BT_initVar
 .bss           0x1fff81a2        0x1 .\CortexM3\ARM_GCC_541\Debug\PSoC_Project.a(Opamp_Aux.o)
                0x1fff81a2                Opamp_Aux_initVar
 *fill*         0x1fff81a3        0x1 
 .bss           0x1fff81a4        0x1 .\CortexM3\ARM_GCC_541\Debug\PSoC_Project.a(Opamp_Aux_PM.o)
 .bss           0x1fff81a5        0x2 .\CortexM3\ARM_GCC_541\Debug\PSoC_Project.a(DVDAC.o)
                0x1fff81a6                DVDAC_initVar
 *fill*         0x1fff81a7        0x1 
 .bss           0x1fff81a8        0x1 .\CortexM3\ARM_GCC_541\Debug\PSoC_Project.a(DVDAC_PM.o)
 .bss           0x1fff81a9        0x1 .\CortexM3\ARM_GCC_541\Debug\PSoC_Project.a(VDAC_source.o)
                0x1fff81a9                VDAC_source_initVar
 *fill*         0x1fff81aa        0x2 
 .bss           0x1fff81ac        0x2 .\CortexM3\ARM_GCC_541\Debug\PSoC_Project.a(VDAC_source_PM.o)
 .bss           0x1fff81ae        0x1 .\CortexM3\ARM_GCC_541\Debug\PSoC_Project.a(PWM_isr.o)
                0x1fff81ae                PWM_isr_initVar
 *fill*         0x1fff81af        0x1 
 .bss           0x1fff81b0        0x8 .\CortexM3\ARM_GCC_541\Debug\PSoC_Project.a(PWM_isr_PM.o)
 .bss           0x1fff81b8        0x2 .\CortexM3\ARM_GCC_541\Debug\PSoC_Project.a(DVDAC_VDAC8_PM.o)
 *fill*         0x1fff81ba        0x2 
 .bss           0x1fff81bc        0x8 .\CortexM3\ARM_GCC_541\Debug\PSoC_Project.a(CySpc.o)
                0x1fff81bc                SpcLockState
 .bss           0x1fff81c4       0x10 .\CortexM3\ARM_GCC_541\Debug\PSoC_Project.a(ADC_SigDel.o)
                0x1fff81cc                ADC_SigDel_stopConversion
                0x1fff81cd                ADC_SigDel_convDone
                0x1fff81ce                ADC_SigDel_initVar
                0x1fff81cf                ADC_SigDel_started
                0x1fff81d0                ADC_SigDel_Offset
 .bss.__malloc_sbrk_start
                0x1fff81d4        0x4 c:/program files (x86)/cypress/psoc creator/4.4/psoc creator/import/gnu/arm/5.4.1/bin/../lib/gcc/arm-none-eabi/5.4.1/../../../../arm-none-eabi/lib/armv7-m\libg_nano.a(lib_a-nano-mallocr.o)
                0x1fff81d4                __malloc_sbrk_start
 .bss.__malloc_free_list
                0x1fff81d8        0x4 c:/program files (x86)/cypress/psoc creator/4.4/psoc creator/import/gnu/arm/5.4.1/bin/../lib/gcc/arm-none-eabi/5.4.1/../../../../arm-none-eabi/lib/armv7-m\libg_nano.a(lib_a-nano-mallocr.o)
                0x1fff81d8                __malloc_free_list
 *(COMMON)
 COMMON         0x1fff81dc     0x3b88 .\CortexM3\ARM_GCC_541\Debug\main.o
                0x1fff81dc                waveform_lut
                0x1fffa8f8                data_to_send
                0x1fffa970                finished_procedure_flag
                0x1fffa974                data_long
                0x1fffbcfc                lut_value
                0x1fffbd00                temp
                0x1fffbd14                TIA_resistor_value_index
                0x1fffbd16                dac_ground_value
                0x1fffbd18                tia_calibration_values
                0x1fffbd30                return_value
                0x1fffbd34                calibrate_array
                0x1fffbd48                lut_length
                0x1fffbd4a                selected_voltage_source
                0x1fffbd4c                lut_index
                0x1fffbd50                data_buffer
 COMMON         0x1fffbd64        0x4 .\CortexM3\ARM_GCC_541\Debug\TIA_calibrate.o
                0x1fffbd64                valore_s
                0x1fffbd66                valore
 COMMON         0x1fffbd68        0x2 .\CortexM3\ARM_GCC_541\Debug\PSoC_Project.a(CyFlash.o)
                0x1fffbd68                dieTemperature
 *fill*         0x1fffbd6a        0x2 
 COMMON         0x1fffbd6c        0x4 .\CortexM3\ARM_GCC_541\Debug\PSoC_Project.a(ADC_SigDel.o)
                0x1fffbd6c                ADC_SigDel_CountsPerVolt
 COMMON         0x1fffbd70        0x4 c:/program files (x86)/cypress/psoc creator/4.4/psoc creator/import/gnu/arm/5.4.1/bin/../lib/gcc/arm-none-eabi/5.4.1/../../../../arm-none-eabi/lib/armv7-m\libg_nano.a(lib_a-reent.o)
                0x1fffbd70                errno
                0x1fffbd78                . = ALIGN (0x8)
 *fill*         0x1fffbd74        0x4 
 *(.ram.b)
                0x1fffbd78                _end = .
                0x1fffbd78                __end = .
                0x1fffbd78                PROVIDE (end, .)
                0x1fffbd78                PROVIDE (__bss_end__, .)
                0x00004978                __cy_region_init_ram = LOADADDR (.data)
                0x000000a8                __cy_region_init_size_ram = (_edata - ADDR (.data))
                0x00003c08                __cy_region_zero_size_ram = (_end - _edata)

.heap           0x1fffbd78       0x80 load address 0x00004a20
                0x1fffbd78                . = _end
                0x1fffbdf8                . = (. + 0x80)
 *fill*         0x1fffbd78       0x80 
                0x1fffbdf8                __cy_heap_limit = .

.stack          0x20007800      0x800
                0x20007800                __cy_stack_limit = .
                0x20008000                . = (. + 0x800)
 *fill*         0x20007800      0x800 
                0x00000001                ASSERT ((__cy_stack_limit >= __cy_heap_limit), region RAM overflowed with stack)
                0x00000000                cy_checksum_exclude_size = (CY_APPL_LOADABLE == 0x1)?SIZEOF (.cy_checksum_exclude):0x0
                0x00000001                ASSERT ((cy_checksum_exclude_size <= CY_CHECKSUM_EXCLUDE_SIZE), CY_BOOT: Section .cy_checksum_exclude size exceedes specified limit.)

.cyloadermeta
 *(.cyloadermeta)

.cyloadablemeta
 *(.cyloadablemeta)

.cyconfigecc    0x80000000      0x520
 *(.cyconfigecc)
 .cyconfigecc   0x80000000      0x520 .\CortexM3\ARM_GCC_541\Debug\cymetadata.o
                0x80000000                cy_meta_configecc

.cycustnvl      0x90000000        0x4
 *(.cycustnvl)
 .cycustnvl     0x90000000        0x4 .\CortexM3\ARM_GCC_541\Debug\cymetadata.o
                0x90000000                cy_meta_custnvl

.cywolatch      0x90100000        0x4
 *(.cywolatch)
 .cywolatch     0x90100000        0x4 .\CortexM3\ARM_GCC_541\Debug\cymetadata.o
                0x90100000                cy_meta_wonvl

.cyeeprom       0x90200000        0x0
 *(.cyeeprom)
                0x00000001                ASSERT ((. <= ((0x90200000 + ee_offset) + ee_size)), .cyeeprom data will not fit in EEPROM)

.cyflashprotect
                0x90400000      0x100
 *(.cyflashprotect)
 .cyflashprotect
                0x90400000      0x100 .\CortexM3\ARM_GCC_541\Debug\cymetadata.o
                0x90400000                cy_meta_flashprotect

.cymeta         0x90500000        0xc
 *(.cymeta)
 .cymeta        0x90500000        0xc .\CortexM3\ARM_GCC_541\Debug\cymetadata.o
                0x90500000                cy_metadata

.rel.dyn        0x00004a20        0x0 load address 0x9050000c
 .rel.iplt      0x00004a20        0x0 c:/program files (x86)/cypress/psoc creator/4.4/psoc creator/import/gnu/arm/5.4.1/bin/../lib/gcc/arm-none-eabi/5.4.1/armv7-m/crtbegin.o

.stab           0x00000000       0x9c
 *(.stab)
 .stab          0x00000000       0x24 c:/program files (x86)/cypress/psoc creator/4.4/psoc creator/import/gnu/arm/5.4.1/bin/../lib/gcc/arm-none-eabi/5.4.1/../../../../arm-none-eabi/lib/armv7-m\libnosys.a(close.o)
 .stab          0x00000024       0x18 c:/program files (x86)/cypress/psoc creator/4.4/psoc creator/import/gnu/arm/5.4.1/bin/../lib/gcc/arm-none-eabi/5.4.1/../../../../arm-none-eabi/lib/armv7-m\libnosys.a(fstat.o)
                                 0x24 (size before relaxing)
 .stab          0x0000003c       0x18 c:/program files (x86)/cypress/psoc creator/4.4/psoc creator/import/gnu/arm/5.4.1/bin/../lib/gcc/arm-none-eabi/5.4.1/../../../../arm-none-eabi/lib/armv7-m\libnosys.a(isatty.o)
                                 0x24 (size before relaxing)
 .stab          0x00000054       0x18 c:/program files (x86)/cypress/psoc creator/4.4/psoc creator/import/gnu/arm/5.4.1/bin/../lib/gcc/arm-none-eabi/5.4.1/../../../../arm-none-eabi/lib/armv7-m\libnosys.a(lseek.o)
                                 0x24 (size before relaxing)
 .stab          0x0000006c       0x18 c:/program files (x86)/cypress/psoc creator/4.4/psoc creator/import/gnu/arm/5.4.1/bin/../lib/gcc/arm-none-eabi/5.4.1/../../../../arm-none-eabi/lib/armv7-m\libnosys.a(read.o)
                                 0x24 (size before relaxing)
 .stab          0x00000084       0x18 c:/program files (x86)/cypress/psoc creator/4.4/psoc creator/import/gnu/arm/5.4.1/bin/../lib/gcc/arm-none-eabi/5.4.1/../../../../arm-none-eabi/lib/armv7-m\libnosys.a(write.o)
                                 0x24 (size before relaxing)

.stabstr        0x00000000      0x14d
 *(.stabstr)
 .stabstr       0x00000000      0x14d c:/program files (x86)/cypress/psoc creator/4.4/psoc creator/import/gnu/arm/5.4.1/bin/../lib/gcc/arm-none-eabi/5.4.1/../../../../arm-none-eabi/lib/armv7-m\libnosys.a(close.o)

.debug
 *(.debug)

.line
 *(.line)

.debug_srcinfo
 *(.debug_srcinfo)

.debug_sfnames
 *(.debug_sfnames)

.debug_aranges  0x00000000     0x1430
 *(.debug_aranges)
 .debug_aranges
                0x00000000       0x38 .\CortexM3\ARM_GCC_541\Debug\main.o
 .debug_aranges
                0x00000038       0x38 .\CortexM3\ARM_GCC_541\Debug\TIA_calibrate.o
 .debug_aranges
                0x00000070       0x50 .\CortexM3\ARM_GCC_541\Debug\user_inputs.o
 .debug_aranges
                0x000000c0       0x68 .\CortexM3\ARM_GCC_541\Debug\hardware_management.o
 .debug_aranges
                0x00000128       0x38 .\CortexM3\ARM_GCC_541\Debug\parametric_lut.o
 .debug_aranges
                0x00000160       0x38 .\CortexM3\ARM_GCC_541\Debug\DAC_management.o
 .debug_aranges
                0x00000198       0x38 .\CortexM3\ARM_GCC_541\Debug\BT_protocols.o
 .debug_aranges
                0x000001d0       0x98 .\CortexM3\ARM_GCC_541\Debug\cyfitter_cfg.o
 .debug_aranges
                0x00000268       0x18 .\CortexM3\ARM_GCC_541\Debug\cymetadata.o
 .debug_aranges
                0x00000280       0x48 .\CortexM3\ARM_GCC_541\Debug\Cm3Start.o
 .debug_aranges
                0x000002c8       0x78 .\CortexM3\ARM_GCC_541\Debug\PSoC_Project.a(EEPROM.o)
 .debug_aranges
                0x00000340       0x80 .\CortexM3\ARM_GCC_541\Debug\PSoC_Project.a(isr_dac.o)
 .debug_aranges
                0x000003c0       0x80 .\CortexM3\ARM_GCC_541\Debug\PSoC_Project.a(isr_adc.o)
 .debug_aranges
                0x00000440       0x80 .\CortexM3\ARM_GCC_541\Debug\PSoC_Project.a(isr_adcAmp.o)
 .debug_aranges
                0x000004c0       0x30 .\CortexM3\ARM_GCC_541\Debug\PSoC_Project.a(AMux_TIA_resistor_bypass.o)
 .debug_aranges
                0x000004f0       0x60 .\CortexM3\ARM_GCC_541\Debug\PSoC_Project.a(IDAC_calibrate.o)
 .debug_aranges
                0x00000550       0x30 .\CortexM3\ARM_GCC_541\Debug\PSoC_Project.a(AMux_TIA_input.o)
 .debug_aranges
                0x00000580       0x58 .\CortexM3\ARM_GCC_541\Debug\PSoC_Project.a(VDAC_TIA.o)
 .debug_aranges
                0x000005d8       0x38 .\CortexM3\ARM_GCC_541\Debug\PSoC_Project.a(VDAC_TIA_PM.o)
 .debug_aranges
                0x00000610       0x50 .\CortexM3\ARM_GCC_541\Debug\PSoC_Project.a(TIA.o)
 .debug_aranges
                0x00000660       0x38 .\CortexM3\ARM_GCC_541\Debug\PSoC_Project.a(TIA_PM.o)
 .debug_aranges
                0x00000698       0xf0 .\CortexM3\ARM_GCC_541\Debug\PSoC_Project.a(UART_BT.o)
 .debug_aranges
                0x00000788       0x40 .\CortexM3\ARM_GCC_541\Debug\PSoC_Project.a(Opamp_Aux.o)
 .debug_aranges
                0x000007c8       0x38 .\CortexM3\ARM_GCC_541\Debug\PSoC_Project.a(Opamp_Aux_PM.o)
 .debug_aranges
                0x00000800       0x30 .\CortexM3\ARM_GCC_541\Debug\PSoC_Project.a(AMux_electrode.o)
 .debug_aranges
                0x00000830       0x30 .\CortexM3\ARM_GCC_541\Debug\PSoC_Project.a(AMux_V_source.o)
 .debug_aranges
                0x00000860       0x48 .\CortexM3\ARM_GCC_541\Debug\PSoC_Project.a(DVDAC.o)
 .debug_aranges
                0x000008a8       0x38 .\CortexM3\ARM_GCC_541\Debug\PSoC_Project.a(DVDAC_PM.o)
 .debug_aranges
                0x000008e0       0x58 .\CortexM3\ARM_GCC_541\Debug\PSoC_Project.a(VDAC_source.o)
 .debug_aranges
                0x00000938       0x38 .\CortexM3\ARM_GCC_541\Debug\PSoC_Project.a(VDAC_source_PM.o)
 .debug_aranges
                0x00000970       0x80 .\CortexM3\ARM_GCC_541\Debug\PSoC_Project.a(PWM_isr.o)
 .debug_aranges
                0x000009f0       0x38 .\CortexM3\ARM_GCC_541\Debug\PSoC_Project.a(PWM_isr_PM.o)
 .debug_aranges
                0x00000a28       0x70 .\CortexM3\ARM_GCC_541\Debug\PSoC_Project.a(UART_BT_IntClock.o)
 .debug_aranges
                0x00000a98       0x28 .\CortexM3\ARM_GCC_541\Debug\PSoC_Project.a(DVDAC_DMA_dma.o)
 .debug_aranges
                0x00000ac0       0x58 .\CortexM3\ARM_GCC_541\Debug\PSoC_Project.a(DVDAC_VDAC8.o)
 .debug_aranges
                0x00000b18       0x38 .\CortexM3\ARM_GCC_541\Debug\PSoC_Project.a(DVDAC_VDAC8_PM.o)
 .debug_aranges
                0x00000b50       0x70 .\CortexM3\ARM_GCC_541\Debug\PSoC_Project.a(DVDAC_IntClock.o)
 .debug_aranges
                0x00000bc0       0xd8 .\CortexM3\ARM_GCC_541\Debug\PSoC_Project.a(CyDmac.o)
 .debug_aranges
                0x00000c98       0x88 .\CortexM3\ARM_GCC_541\Debug\PSoC_Project.a(CyFlash.o)
 .debug_aranges
                0x00000d20      0x2a0 .\CortexM3\ARM_GCC_541\Debug\PSoC_Project.a(CyLib.o)
 .debug_aranges
                0x00000fc0       0x98 .\CortexM3\ARM_GCC_541\Debug\PSoC_Project.a(cyPm.o)
 .debug_aranges
                0x00001058       0x80 .\CortexM3\ARM_GCC_541\Debug\PSoC_Project.a(CySpc.o)
 .debug_aranges
                0x000010d8       0xe8 .\CortexM3\ARM_GCC_541\Debug\PSoC_Project.a(ADC_SigDel.o)
 .debug_aranges
                0x000011c0       0x38 .\CortexM3\ARM_GCC_541\Debug\PSoC_Project.a(ADC_SigDel_PM.o)
 .debug_aranges
                0x000011f8       0x38 .\CortexM3\ARM_GCC_541\Debug\PSoC_Project.a(ADC_SigDel_INT.o)
 .debug_aranges
                0x00001230       0x70 .\CortexM3\ARM_GCC_541\Debug\PSoC_Project.a(ADC_SigDel_Ext_CP_Clk.o)
 .debug_aranges
                0x000012a0       0x80 .\CortexM3\ARM_GCC_541\Debug\PSoC_Project.a(ADC_SigDel_theACLK.o)
 .debug_aranges
                0x00001320       0x80 .\CortexM3\ARM_GCC_541\Debug\PSoC_Project.a(isr_UART_BT_RX.o)
 .debug_aranges
                0x000013a0       0x38 .\CortexM3\ARM_GCC_541\Debug\PSoC_Project.a(LED_DAC.o)
 .debug_aranges
                0x000013d8       0x38 .\CortexM3\ARM_GCC_541\Debug\PSoC_Project.a(LED_ADC.o)
 .debug_aranges
                0x00001410       0x20 .\CortexM3\ARM_GCC_541\Debug\PSoC_Project.a(CyBootAsmGnu.o)

.debug_pubnames
 *(.debug_pubnames)

.debug_info     0x00000000     0xc37d
 *(.debug_info .gnu.linkonce.wi.*)
 .debug_info    0x00000000      0x8b1 .\CortexM3\ARM_GCC_541\Debug\main.o
 .debug_info    0x000008b1      0x6d1 .\CortexM3\ARM_GCC_541\Debug\TIA_calibrate.o
 .debug_info    0x00000f82      0x925 .\CortexM3\ARM_GCC_541\Debug\user_inputs.o
 .debug_info    0x000018a7      0x949 .\CortexM3\ARM_GCC_541\Debug\hardware_management.o
 .debug_info    0x000021f0      0x528 .\CortexM3\ARM_GCC_541\Debug\parametric_lut.o
 .debug_info    0x00002718      0x3bb .\CortexM3\ARM_GCC_541\Debug\DAC_management.o
 .debug_info    0x00002ad3      0x47b .\CortexM3\ARM_GCC_541\Debug\BT_protocols.o
 .debug_info    0x00002f4e      0x862 .\CortexM3\ARM_GCC_541\Debug\cyfitter_cfg.o
 .debug_info    0x000037b0      0x136 .\CortexM3\ARM_GCC_541\Debug\cymetadata.o
 .debug_info    0x000038e6      0x3cf .\CortexM3\ARM_GCC_541\Debug\Cm3Start.o
 .debug_info    0x00003cb5      0x630 .\CortexM3\ARM_GCC_541\Debug\PSoC_Project.a(EEPROM.o)
 .debug_info    0x000042e5      0x2d2 .\CortexM3\ARM_GCC_541\Debug\PSoC_Project.a(isr_dac.o)
 .debug_info    0x000045b7      0x2d2 .\CortexM3\ARM_GCC_541\Debug\PSoC_Project.a(isr_adc.o)
 .debug_info    0x00004889      0x2d2 .\CortexM3\ARM_GCC_541\Debug\PSoC_Project.a(isr_adcAmp.o)
 .debug_info    0x00004b5b      0x165 .\CortexM3\ARM_GCC_541\Debug\PSoC_Project.a(AMux_TIA_resistor_bypass.o)
 .debug_info    0x00004cc0      0x20a .\CortexM3\ARM_GCC_541\Debug\PSoC_Project.a(IDAC_calibrate.o)
 .debug_info    0x00004eca      0x165 .\CortexM3\ARM_GCC_541\Debug\PSoC_Project.a(AMux_TIA_input.o)
 .debug_info    0x0000502f      0x1df .\CortexM3\ARM_GCC_541\Debug\PSoC_Project.a(VDAC_TIA.o)
 .debug_info    0x0000520e      0x177 .\CortexM3\ARM_GCC_541\Debug\PSoC_Project.a(VDAC_TIA_PM.o)
 .debug_info    0x00005385      0x1d5 .\CortexM3\ARM_GCC_541\Debug\PSoC_Project.a(TIA.o)
 .debug_info    0x0000555a      0x177 .\CortexM3\ARM_GCC_541\Debug\PSoC_Project.a(TIA_PM.o)
 .debug_info    0x000056d1      0x60c .\CortexM3\ARM_GCC_541\Debug\PSoC_Project.a(UART_BT.o)
 .debug_info    0x00005cdd      0x151 .\CortexM3\ARM_GCC_541\Debug\PSoC_Project.a(Opamp_Aux.o)
 .debug_info    0x00005e2e      0x153 .\CortexM3\ARM_GCC_541\Debug\PSoC_Project.a(Opamp_Aux_PM.o)
 .debug_info    0x00005f81      0x165 .\CortexM3\ARM_GCC_541\Debug\PSoC_Project.a(AMux_electrode.o)
 .debug_info    0x000060e6      0x165 .\CortexM3\ARM_GCC_541\Debug\PSoC_Project.a(AMux_V_source.o)
 .debug_info    0x0000624b      0x343 .\CortexM3\ARM_GCC_541\Debug\PSoC_Project.a(DVDAC.o)
 .debug_info    0x0000658e      0x189 .\CortexM3\ARM_GCC_541\Debug\PSoC_Project.a(DVDAC_PM.o)
 .debug_info    0x00006717      0x1df .\CortexM3\ARM_GCC_541\Debug\PSoC_Project.a(VDAC_source.o)
 .debug_info    0x000068f6      0x177 .\CortexM3\ARM_GCC_541\Debug\PSoC_Project.a(VDAC_source_PM.o)
 .debug_info    0x00006a6d      0x299 .\CortexM3\ARM_GCC_541\Debug\PSoC_Project.a(PWM_isr.o)
 .debug_info    0x00006d06      0x217 .\CortexM3\ARM_GCC_541\Debug\PSoC_Project.a(PWM_isr_PM.o)
 .debug_info    0x00006f1d      0x283 .\CortexM3\ARM_GCC_541\Debug\PSoC_Project.a(UART_BT_IntClock.o)
 .debug_info    0x000071a0      0x1aa .\CortexM3\ARM_GCC_541\Debug\PSoC_Project.a(DVDAC_DMA_dma.o)
 .debug_info    0x0000734a      0x1dd .\CortexM3\ARM_GCC_541\Debug\PSoC_Project.a(DVDAC_VDAC8.o)
 .debug_info    0x00007527      0x177 .\CortexM3\ARM_GCC_541\Debug\PSoC_Project.a(DVDAC_VDAC8_PM.o)
 .debug_info    0x0000769e      0x283 .\CortexM3\ARM_GCC_541\Debug\PSoC_Project.a(DVDAC_IntClock.o)
 .debug_info    0x00007921      0x94e .\CortexM3\ARM_GCC_541\Debug\PSoC_Project.a(CyDmac.o)
 .debug_info    0x0000826f      0x64d .\CortexM3\ARM_GCC_541\Debug\PSoC_Project.a(CyFlash.o)
 .debug_info    0x000088bc     0x1374 .\CortexM3\ARM_GCC_541\Debug\PSoC_Project.a(CyLib.o)
 .debug_info    0x00009c30      0xa2a .\CortexM3\ARM_GCC_541\Debug\PSoC_Project.a(cyPm.o)
 .debug_info    0x0000a65a      0x550 .\CortexM3\ARM_GCC_541\Debug\PSoC_Project.a(CySpc.o)
 .debug_info    0x0000abaa      0xa83 .\CortexM3\ARM_GCC_541\Debug\PSoC_Project.a(ADC_SigDel.o)
 .debug_info    0x0000b62d      0x185 .\CortexM3\ARM_GCC_541\Debug\PSoC_Project.a(ADC_SigDel_PM.o)
 .debug_info    0x0000b7b2       0xd3 .\CortexM3\ARM_GCC_541\Debug\PSoC_Project.a(ADC_SigDel_INT.o)
 .debug_info    0x0000b885      0x283 .\CortexM3\ARM_GCC_541\Debug\PSoC_Project.a(ADC_SigDel_Ext_CP_Clk.o)
 .debug_info    0x0000bb08      0x2c4 .\CortexM3\ARM_GCC_541\Debug\PSoC_Project.a(ADC_SigDel_theACLK.o)
 .debug_info    0x0000bdcc      0x2d2 .\CortexM3\ARM_GCC_541\Debug\PSoC_Project.a(isr_UART_BT_RX.o)
 .debug_info    0x0000c09e      0x11f .\CortexM3\ARM_GCC_541\Debug\PSoC_Project.a(LED_DAC.o)
 .debug_info    0x0000c1bd      0x11f .\CortexM3\ARM_GCC_541\Debug\PSoC_Project.a(LED_ADC.o)
 .debug_info    0x0000c2dc       0xa1 .\CortexM3\ARM_GCC_541\Debug\PSoC_Project.a(CyBootAsmGnu.o)

.debug_abbrev   0x00000000     0x3869
 *(.debug_abbrev)
 .debug_abbrev  0x00000000      0x151 .\CortexM3\ARM_GCC_541\Debug\main.o
 .debug_abbrev  0x00000151      0x169 .\CortexM3\ARM_GCC_541\Debug\TIA_calibrate.o
 .debug_abbrev  0x000002ba      0x197 .\CortexM3\ARM_GCC_541\Debug\user_inputs.o
 .debug_abbrev  0x00000451      0x151 .\CortexM3\ARM_GCC_541\Debug\hardware_management.o
 .debug_abbrev  0x000005a2      0x130 .\CortexM3\ARM_GCC_541\Debug\parametric_lut.o
 .debug_abbrev  0x000006d2      0x100 .\CortexM3\ARM_GCC_541\Debug\DAC_management.o
 .debug_abbrev  0x000007d2      0x130 .\CortexM3\ARM_GCC_541\Debug\BT_protocols.o
 .debug_abbrev  0x00000902      0x22d .\CortexM3\ARM_GCC_541\Debug\cyfitter_cfg.o
 .debug_abbrev  0x00000b2f       0x77 .\CortexM3\ARM_GCC_541\Debug\cymetadata.o
 .debug_abbrev  0x00000ba6      0x1e8 .\CortexM3\ARM_GCC_541\Debug\Cm3Start.o
 .debug_abbrev  0x00000d8e      0x14e .\CortexM3\ARM_GCC_541\Debug\PSoC_Project.a(EEPROM.o)
 .debug_abbrev  0x00000edc      0x173 .\CortexM3\ARM_GCC_541\Debug\PSoC_Project.a(isr_dac.o)
 .debug_abbrev  0x0000104f      0x173 .\CortexM3\ARM_GCC_541\Debug\PSoC_Project.a(isr_adc.o)
 .debug_abbrev  0x000011c2      0x173 .\CortexM3\ARM_GCC_541\Debug\PSoC_Project.a(isr_adcAmp.o)
 .debug_abbrev  0x00001335       0xb1 .\CortexM3\ARM_GCC_541\Debug\PSoC_Project.a(AMux_TIA_resistor_bypass.o)
 .debug_abbrev  0x000013e6      0x106 .\CortexM3\ARM_GCC_541\Debug\PSoC_Project.a(IDAC_calibrate.o)
 .debug_abbrev  0x000014ec       0xb1 .\CortexM3\ARM_GCC_541\Debug\PSoC_Project.a(AMux_TIA_input.o)
 .debug_abbrev  0x0000159d       0xf7 .\CortexM3\ARM_GCC_541\Debug\PSoC_Project.a(VDAC_TIA.o)
 .debug_abbrev  0x00001694       0xc4 .\CortexM3\ARM_GCC_541\Debug\PSoC_Project.a(VDAC_TIA_PM.o)
 .debug_abbrev  0x00001758       0xf7 .\CortexM3\ARM_GCC_541\Debug\PSoC_Project.a(TIA.o)
 .debug_abbrev  0x0000184f       0xc4 .\CortexM3\ARM_GCC_541\Debug\PSoC_Project.a(TIA_PM.o)
 .debug_abbrev  0x00001913      0x175 .\CortexM3\ARM_GCC_541\Debug\PSoC_Project.a(UART_BT.o)
 .debug_abbrev  0x00001a88       0xb2 .\CortexM3\ARM_GCC_541\Debug\PSoC_Project.a(Opamp_Aux.o)
 .debug_abbrev  0x00001b3a       0xc4 .\CortexM3\ARM_GCC_541\Debug\PSoC_Project.a(Opamp_Aux_PM.o)
 .debug_abbrev  0x00001bfe       0xb1 .\CortexM3\ARM_GCC_541\Debug\PSoC_Project.a(AMux_electrode.o)
 .debug_abbrev  0x00001caf       0xb1 .\CortexM3\ARM_GCC_541\Debug\PSoC_Project.a(AMux_V_source.o)
 .debug_abbrev  0x00001d60      0x10f .\CortexM3\ARM_GCC_541\Debug\PSoC_Project.a(DVDAC.o)
 .debug_abbrev  0x00001e6f       0xac .\CortexM3\ARM_GCC_541\Debug\PSoC_Project.a(DVDAC_PM.o)
 .debug_abbrev  0x00001f1b       0xf7 .\CortexM3\ARM_GCC_541\Debug\PSoC_Project.a(VDAC_source.o)
 .debug_abbrev  0x00002012       0xc4 .\CortexM3\ARM_GCC_541\Debug\PSoC_Project.a(VDAC_source_PM.o)
 .debug_abbrev  0x000020d6      0x12d .\CortexM3\ARM_GCC_541\Debug\PSoC_Project.a(PWM_isr.o)
 .debug_abbrev  0x00002203       0xac .\CortexM3\ARM_GCC_541\Debug\PSoC_Project.a(PWM_isr_PM.o)
 .debug_abbrev  0x000022af      0x139 .\CortexM3\ARM_GCC_541\Debug\PSoC_Project.a(UART_BT_IntClock.o)
 .debug_abbrev  0x000023e8       0xcd .\CortexM3\ARM_GCC_541\Debug\PSoC_Project.a(DVDAC_DMA_dma.o)
 .debug_abbrev  0x000024b5       0xf7 .\CortexM3\ARM_GCC_541\Debug\PSoC_Project.a(DVDAC_VDAC8.o)
 .debug_abbrev  0x000025ac       0xc4 .\CortexM3\ARM_GCC_541\Debug\PSoC_Project.a(DVDAC_VDAC8_PM.o)
 .debug_abbrev  0x00002670      0x139 .\CortexM3\ARM_GCC_541\Debug\PSoC_Project.a(DVDAC_IntClock.o)
 .debug_abbrev  0x000027a9      0x1b2 .\CortexM3\ARM_GCC_541\Debug\PSoC_Project.a(CyDmac.o)
 .debug_abbrev  0x0000295b      0x1a7 .\CortexM3\ARM_GCC_541\Debug\PSoC_Project.a(CyFlash.o)
 .debug_abbrev  0x00002b02      0x254 .\CortexM3\ARM_GCC_541\Debug\PSoC_Project.a(CyLib.o)
 .debug_abbrev  0x00002d56      0x1ab .\CortexM3\ARM_GCC_541\Debug\PSoC_Project.a(cyPm.o)
 .debug_abbrev  0x00002f01      0x194 .\CortexM3\ARM_GCC_541\Debug\PSoC_Project.a(CySpc.o)
 .debug_abbrev  0x00003095      0x1cd .\CortexM3\ARM_GCC_541\Debug\PSoC_Project.a(ADC_SigDel.o)
 .debug_abbrev  0x00003262       0xc4 .\CortexM3\ARM_GCC_541\Debug\PSoC_Project.a(ADC_SigDel_PM.o)
 .debug_abbrev  0x00003326       0x42 .\CortexM3\ARM_GCC_541\Debug\PSoC_Project.a(ADC_SigDel_INT.o)
 .debug_abbrev  0x00003368      0x139 .\CortexM3\ARM_GCC_541\Debug\PSoC_Project.a(ADC_SigDel_Ext_CP_Clk.o)
 .debug_abbrev  0x000034a1      0x121 .\CortexM3\ARM_GCC_541\Debug\PSoC_Project.a(ADC_SigDel_theACLK.o)
 .debug_abbrev  0x000035c2      0x173 .\CortexM3\ARM_GCC_541\Debug\PSoC_Project.a(isr_UART_BT_RX.o)
 .debug_abbrev  0x00003735       0x90 .\CortexM3\ARM_GCC_541\Debug\PSoC_Project.a(LED_DAC.o)
 .debug_abbrev  0x000037c5       0x90 .\CortexM3\ARM_GCC_541\Debug\PSoC_Project.a(LED_ADC.o)
 .debug_abbrev  0x00003855       0x14 .\CortexM3\ARM_GCC_541\Debug\PSoC_Project.a(CyBootAsmGnu.o)

.debug_line     0x00000000     0x5311
 *(.debug_line)
 .debug_line    0x00000000      0x390 .\CortexM3\ARM_GCC_541\Debug\main.o
 .debug_line    0x00000390      0x286 .\CortexM3\ARM_GCC_541\Debug\TIA_calibrate.o
 .debug_line    0x00000616      0x319 .\CortexM3\ARM_GCC_541\Debug\user_inputs.o
 .debug_line    0x0000092f      0x374 .\CortexM3\ARM_GCC_541\Debug\hardware_management.o
 .debug_line    0x00000ca3      0x294 .\CortexM3\ARM_GCC_541\Debug\parametric_lut.o
 .debug_line    0x00000f37      0x22b .\CortexM3\ARM_GCC_541\Debug\DAC_management.o
 .debug_line    0x00001162      0x263 .\CortexM3\ARM_GCC_541\Debug\BT_protocols.o
 .debug_line    0x000013c5      0x2a6 .\CortexM3\ARM_GCC_541\Debug\cyfitter_cfg.o
 .debug_line    0x0000166b      0x141 .\CortexM3\ARM_GCC_541\Debug\cymetadata.o
 .debug_line    0x000017ac      0x241 .\CortexM3\ARM_GCC_541\Debug\Cm3Start.o
 .debug_line    0x000019ed      0x264 .\CortexM3\ARM_GCC_541\Debug\PSoC_Project.a(EEPROM.o)
 .debug_line    0x00001c51      0x134 .\CortexM3\ARM_GCC_541\Debug\PSoC_Project.a(isr_dac.o)
 .debug_line    0x00001d85      0x134 .\CortexM3\ARM_GCC_541\Debug\PSoC_Project.a(isr_adc.o)
 .debug_line    0x00001eb9      0x137 .\CortexM3\ARM_GCC_541\Debug\PSoC_Project.a(isr_adcAmp.o)
 .debug_line    0x00001ff0       0xbc .\CortexM3\ARM_GCC_541\Debug\PSoC_Project.a(AMux_TIA_resistor_bypass.o)
 .debug_line    0x000020ac      0x101 .\CortexM3\ARM_GCC_541\Debug\PSoC_Project.a(IDAC_calibrate.o)
 .debug_line    0x000021ad       0xb2 .\CortexM3\ARM_GCC_541\Debug\PSoC_Project.a(AMux_TIA_input.o)
 .debug_line    0x0000225f       0xe5 .\CortexM3\ARM_GCC_541\Debug\PSoC_Project.a(VDAC_TIA.o)
 .debug_line    0x00002344       0xaf .\CortexM3\ARM_GCC_541\Debug\PSoC_Project.a(VDAC_TIA_PM.o)
 .debug_line    0x000023f3       0xd5 .\CortexM3\ARM_GCC_541\Debug\PSoC_Project.a(TIA.o)
 .debug_line    0x000024c8       0x9b .\CortexM3\ARM_GCC_541\Debug\PSoC_Project.a(TIA_PM.o)
 .debug_line    0x00002563      0x2c2 .\CortexM3\ARM_GCC_541\Debug\PSoC_Project.a(UART_BT.o)
 .debug_line    0x00002825       0xac .\CortexM3\ARM_GCC_541\Debug\PSoC_Project.a(Opamp_Aux.o)
 .debug_line    0x000028d1       0xa7 .\CortexM3\ARM_GCC_541\Debug\PSoC_Project.a(Opamp_Aux_PM.o)
 .debug_line    0x00002978       0xb2 .\CortexM3\ARM_GCC_541\Debug\PSoC_Project.a(AMux_electrode.o)
 .debug_line    0x00002a2a       0xb1 .\CortexM3\ARM_GCC_541\Debug\PSoC_Project.a(AMux_V_source.o)
 .debug_line    0x00002adb      0x13a .\CortexM3\ARM_GCC_541\Debug\PSoC_Project.a(DVDAC.o)
 .debug_line    0x00002c15       0xb4 .\CortexM3\ARM_GCC_541\Debug\PSoC_Project.a(DVDAC_PM.o)
 .debug_line    0x00002cc9       0xe8 .\CortexM3\ARM_GCC_541\Debug\PSoC_Project.a(VDAC_source.o)
 .debug_line    0x00002db1       0xb5 .\CortexM3\ARM_GCC_541\Debug\PSoC_Project.a(VDAC_source_PM.o)
 .debug_line    0x00002e66      0x13f .\CortexM3\ARM_GCC_541\Debug\PSoC_Project.a(PWM_isr.o)
 .debug_line    0x00002fa5       0xaf .\CortexM3\ARM_GCC_541\Debug\PSoC_Project.a(PWM_isr_PM.o)
 .debug_line    0x00003054      0x17f .\CortexM3\ARM_GCC_541\Debug\PSoC_Project.a(UART_BT_IntClock.o)
 .debug_line    0x000031d3       0x86 .\CortexM3\ARM_GCC_541\Debug\PSoC_Project.a(DVDAC_DMA_dma.o)
 .debug_line    0x00003259       0xe7 .\CortexM3\ARM_GCC_541\Debug\PSoC_Project.a(DVDAC_VDAC8.o)
 .debug_line    0x00003340       0xb5 .\CortexM3\ARM_GCC_541\Debug\PSoC_Project.a(DVDAC_VDAC8_PM.o)
 .debug_line    0x000033f5      0x17d .\CortexM3\ARM_GCC_541\Debug\PSoC_Project.a(DVDAC_IntClock.o)
 .debug_line    0x00003572      0x2e4 .\CortexM3\ARM_GCC_541\Debug\PSoC_Project.a(CyDmac.o)
 .debug_line    0x00003856      0x21a .\CortexM3\ARM_GCC_541\Debug\PSoC_Project.a(CyFlash.o)
 .debug_line    0x00003a70      0x816 .\CortexM3\ARM_GCC_541\Debug\PSoC_Project.a(CyLib.o)
 .debug_line    0x00004286      0x367 .\CortexM3\ARM_GCC_541\Debug\PSoC_Project.a(cyPm.o)
 .debug_line    0x000045ed      0x260 .\CortexM3\ARM_GCC_541\Debug\PSoC_Project.a(CySpc.o)
 .debug_line    0x0000484d      0x391 .\CortexM3\ARM_GCC_541\Debug\PSoC_Project.a(ADC_SigDel.o)
 .debug_line    0x00004bde       0xbb .\CortexM3\ARM_GCC_541\Debug\PSoC_Project.a(ADC_SigDel_PM.o)
 .debug_line    0x00004c99       0x87 .\CortexM3\ARM_GCC_541\Debug\PSoC_Project.a(ADC_SigDel_INT.o)
 .debug_line    0x00004d20      0x184 .\CortexM3\ARM_GCC_541\Debug\PSoC_Project.a(ADC_SigDel_Ext_CP_Clk.o)
 .debug_line    0x00004ea4      0x1a4 .\CortexM3\ARM_GCC_541\Debug\PSoC_Project.a(ADC_SigDel_theACLK.o)
 .debug_line    0x00005048      0x13b .\CortexM3\ARM_GCC_541\Debug\PSoC_Project.a(isr_UART_BT_RX.o)
 .debug_line    0x00005183       0x94 .\CortexM3\ARM_GCC_541\Debug\PSoC_Project.a(LED_DAC.o)
 .debug_line    0x00005217       0x94 .\CortexM3\ARM_GCC_541\Debug\PSoC_Project.a(LED_ADC.o)
 .debug_line    0x000052ab       0x66 .\CortexM3\ARM_GCC_541\Debug\PSoC_Project.a(CyBootAsmGnu.o)

.debug_frame    0x00000000     0x3844
 *(.debug_frame)
 .debug_frame   0x00000000       0x84 .\CortexM3\ARM_GCC_541\Debug\main.o
 .debug_frame   0x00000084       0x88 .\CortexM3\ARM_GCC_541\Debug\TIA_calibrate.o
 .debug_frame   0x0000010c       0xd8 .\CortexM3\ARM_GCC_541\Debug\user_inputs.o
 .debug_frame   0x000001e4      0x130 .\CortexM3\ARM_GCC_541\Debug\hardware_management.o
 .debug_frame   0x00000314       0x90 .\CortexM3\ARM_GCC_541\Debug\parametric_lut.o
 .debug_frame   0x000003a4       0x80 .\CortexM3\ARM_GCC_541\Debug\DAC_management.o
 .debug_frame   0x00000424       0x8c .\CortexM3\ARM_GCC_541\Debug\BT_protocols.o
 .debug_frame   0x000004b0      0x17c .\CortexM3\ARM_GCC_541\Debug\cyfitter_cfg.o
 .debug_frame   0x0000062c       0xb8 .\CortexM3\ARM_GCC_541\Debug\Cm3Start.o
 .debug_frame   0x000006e4      0x17c .\CortexM3\ARM_GCC_541\Debug\PSoC_Project.a(EEPROM.o)
 .debug_frame   0x00000860      0x104 .\CortexM3\ARM_GCC_541\Debug\PSoC_Project.a(isr_dac.o)
 .debug_frame   0x00000964      0x104 .\CortexM3\ARM_GCC_541\Debug\PSoC_Project.a(isr_adc.o)
 .debug_frame   0x00000a68      0x104 .\CortexM3\ARM_GCC_541\Debug\PSoC_Project.a(isr_adcAmp.o)
 .debug_frame   0x00000b6c       0x64 .\CortexM3\ARM_GCC_541\Debug\PSoC_Project.a(AMux_TIA_resistor_bypass.o)
 .debug_frame   0x00000bd0       0xd0 .\CortexM3\ARM_GCC_541\Debug\PSoC_Project.a(IDAC_calibrate.o)
 .debug_frame   0x00000ca0       0x64 .\CortexM3\ARM_GCC_541\Debug\PSoC_Project.a(AMux_TIA_input.o)
 .debug_frame   0x00000d04       0xb4 .\CortexM3\ARM_GCC_541\Debug\PSoC_Project.a(VDAC_TIA.o)
 .debug_frame   0x00000db8       0x68 .\CortexM3\ARM_GCC_541\Debug\PSoC_Project.a(VDAC_TIA_PM.o)
 .debug_frame   0x00000e20       0x98 .\CortexM3\ARM_GCC_541\Debug\PSoC_Project.a(TIA.o)
 .debug_frame   0x00000eb8       0x68 .\CortexM3\ARM_GCC_541\Debug\PSoC_Project.a(TIA_PM.o)
 .debug_frame   0x00000f20      0x250 .\CortexM3\ARM_GCC_541\Debug\PSoC_Project.a(UART_BT.o)
 .debug_frame   0x00001170       0x78 .\CortexM3\ARM_GCC_541\Debug\PSoC_Project.a(Opamp_Aux.o)
 .debug_frame   0x000011e8       0x68 .\CortexM3\ARM_GCC_541\Debug\PSoC_Project.a(Opamp_Aux_PM.o)
 .debug_frame   0x00001250       0x64 .\CortexM3\ARM_GCC_541\Debug\PSoC_Project.a(AMux_electrode.o)
 .debug_frame   0x000012b4       0x64 .\CortexM3\ARM_GCC_541\Debug\PSoC_Project.a(AMux_V_source.o)
 .debug_frame   0x00001318       0xc0 .\CortexM3\ARM_GCC_541\Debug\PSoC_Project.a(DVDAC.o)
 .debug_frame   0x000013d8       0x80 .\CortexM3\ARM_GCC_541\Debug\PSoC_Project.a(DVDAC_PM.o)
 .debug_frame   0x00001458       0xb4 .\CortexM3\ARM_GCC_541\Debug\PSoC_Project.a(VDAC_source.o)
 .debug_frame   0x0000150c       0x68 .\CortexM3\ARM_GCC_541\Debug\PSoC_Project.a(VDAC_source_PM.o)
 .debug_frame   0x00001574       0xf8 .\CortexM3\ARM_GCC_541\Debug\PSoC_Project.a(PWM_isr.o)
 .debug_frame   0x0000166c       0x80 .\CortexM3\ARM_GCC_541\Debug\PSoC_Project.a(PWM_isr_PM.o)
 .debug_frame   0x000016ec       0xe0 .\CortexM3\ARM_GCC_541\Debug\PSoC_Project.a(UART_BT_IntClock.o)
 .debug_frame   0x000017cc       0x54 .\CortexM3\ARM_GCC_541\Debug\PSoC_Project.a(DVDAC_DMA_dma.o)
 .debug_frame   0x00001820       0xb4 .\CortexM3\ARM_GCC_541\Debug\PSoC_Project.a(DVDAC_VDAC8.o)
 .debug_frame   0x000018d4       0x68 .\CortexM3\ARM_GCC_541\Debug\PSoC_Project.a(DVDAC_VDAC8_PM.o)
 .debug_frame   0x0000193c       0xe0 .\CortexM3\ARM_GCC_541\Debug\PSoC_Project.a(DVDAC_IntClock.o)
 .debug_frame   0x00001a1c      0x1f8 .\CortexM3\ARM_GCC_541\Debug\PSoC_Project.a(CyDmac.o)
 .debug_frame   0x00001c14      0x194 .\CortexM3\ARM_GCC_541\Debug\PSoC_Project.a(CyFlash.o)
 .debug_frame   0x00001da8      0x738 .\CortexM3\ARM_GCC_541\Debug\PSoC_Project.a(CyLib.o)
 .debug_frame   0x000024e0      0x1f8 .\CortexM3\ARM_GCC_541\Debug\PSoC_Project.a(cyPm.o)
 .debug_frame   0x000026d8      0x180 .\CortexM3\ARM_GCC_541\Debug\PSoC_Project.a(CySpc.o)
 .debug_frame   0x00002858      0x288 .\CortexM3\ARM_GCC_541\Debug\PSoC_Project.a(ADC_SigDel.o)
 .debug_frame   0x00002ae0       0x68 .\CortexM3\ARM_GCC_541\Debug\PSoC_Project.a(ADC_SigDel_PM.o)
 .debug_frame   0x00002b48       0x50 .\CortexM3\ARM_GCC_541\Debug\PSoC_Project.a(ADC_SigDel_INT.o)
 .debug_frame   0x00002b98       0xe0 .\CortexM3\ARM_GCC_541\Debug\PSoC_Project.a(ADC_SigDel_Ext_CP_Clk.o)
 .debug_frame   0x00002c78      0x100 .\CortexM3\ARM_GCC_541\Debug\PSoC_Project.a(ADC_SigDel_theACLK.o)
 .debug_frame   0x00002d78      0x104 .\CortexM3\ARM_GCC_541\Debug\PSoC_Project.a(isr_UART_BT_RX.o)
 .debug_frame   0x00002e7c       0x50 .\CortexM3\ARM_GCC_541\Debug\PSoC_Project.a(LED_DAC.o)
 .debug_frame   0x00002ecc       0x50 .\CortexM3\ARM_GCC_541\Debug\PSoC_Project.a(LED_ADC.o)
 .debug_frame   0x00002f1c       0x20 c:/program files (x86)/cypress/psoc creator/4.4/psoc creator/import/gnu/arm/5.4.1/bin/../lib/gcc/arm-none-eabi/5.4.1/../../../../arm-none-eabi/lib/armv7-m\libg_nano.a(lib_a-errno.o)
 .debug_frame   0x00002f3c       0x28 c:/program files (x86)/cypress/psoc creator/4.4/psoc creator/import/gnu/arm/5.4.1/bin/../lib/gcc/arm-none-eabi/5.4.1/../../../../arm-none-eabi/lib/armv7-m\libg_nano.a(lib_a-exit.o)
 .debug_frame   0x00002f64       0x2c c:/program files (x86)/cypress/psoc creator/4.4/psoc creator/import/gnu/arm/5.4.1/bin/../lib/gcc/arm-none-eabi/5.4.1/../../../../arm-none-eabi/lib/armv7-m\libg_nano.a(lib_a-init.o)
 .debug_frame   0x00002f90       0x28 c:/program files (x86)/cypress/psoc creator/4.4/psoc creator/import/gnu/arm/5.4.1/bin/../lib/gcc/arm-none-eabi/5.4.1/../../../../arm-none-eabi/lib/armv7-m\libg_nano.a(lib_a-memcpy-stub.o)
 .debug_frame   0x00002fb8       0x20 c:/program files (x86)/cypress/psoc creator/4.4/psoc creator/import/gnu/arm/5.4.1/bin/../lib/gcc/arm-none-eabi/5.4.1/../../../../arm-none-eabi/lib/armv7-m\libg_nano.a(lib_a-memset.o)
 .debug_frame   0x00002fd8       0x74 c:/program files (x86)/cypress/psoc creator/4.4/psoc creator/import/gnu/arm/5.4.1/bin/../lib/gcc/arm-none-eabi/5.4.1/../../../../arm-none-eabi/lib/armv7-m\libg_nano.a(lib_a-printf.o)
 .debug_frame   0x0000304c      0x11c c:/program files (x86)/cypress/psoc creator/4.4/psoc creator/import/gnu/arm/5.4.1/bin/../lib/gcc/arm-none-eabi/5.4.1/../../../../arm-none-eabi/lib/armv7-m\libg_nano.a(lib_a-findfp.o)
 .debug_frame   0x00003168       0x54 c:/program files (x86)/cypress/psoc creator/4.4/psoc creator/import/gnu/arm/5.4.1/bin/../lib/gcc/arm-none-eabi/5.4.1/../../../../arm-none-eabi/lib/armv7-m\libg_nano.a(lib_a-fwalk.o)
 .debug_frame   0x000031bc       0x2c c:/program files (x86)/cypress/psoc creator/4.4/psoc creator/import/gnu/arm/5.4.1/bin/../lib/gcc/arm-none-eabi/5.4.1/../../../../arm-none-eabi/lib/armv7-m\libg_nano.a(lib_a-nano-mallocr.o)
 .debug_frame   0x000031e8       0xac c:/program files (x86)/cypress/psoc creator/4.4/psoc creator/import/gnu/arm/5.4.1/bin/../lib/gcc/arm-none-eabi/5.4.1/../../../../arm-none-eabi/lib/armv7-m\libg_nano.a(lib_a-nano-vfprintf.o)
 .debug_frame   0x00003294       0x60 c:/program files (x86)/cypress/psoc creator/4.4/psoc creator/import/gnu/arm/5.4.1/bin/../lib/gcc/arm-none-eabi/5.4.1/../../../../arm-none-eabi/lib/armv7-m\libg_nano.a(lib_a-nano-vfprintf_i.o)
 .debug_frame   0x000032f4       0x2c c:/program files (x86)/cypress/psoc creator/4.4/psoc creator/import/gnu/arm/5.4.1/bin/../lib/gcc/arm-none-eabi/5.4.1/../../../../arm-none-eabi/lib/armv7-m\libg_nano.a(lib_a-sbrkr.o)
 .debug_frame   0x00003320       0x88 c:/program files (x86)/cypress/psoc creator/4.4/psoc creator/import/gnu/arm/5.4.1/bin/../lib/gcc/arm-none-eabi/5.4.1/../../../../arm-none-eabi/lib/armv7-m\libg_nano.a(lib_a-stdio.o)
 .debug_frame   0x000033a8       0x40 c:/program files (x86)/cypress/psoc creator/4.4/psoc creator/import/gnu/arm/5.4.1/bin/../lib/gcc/arm-none-eabi/5.4.1/../../../../arm-none-eabi/lib/armv7-m\libg_nano.a(lib_a-wbuf.o)
 .debug_frame   0x000033e8       0x2c c:/program files (x86)/cypress/psoc creator/4.4/psoc creator/import/gnu/arm/5.4.1/bin/../lib/gcc/arm-none-eabi/5.4.1/../../../../arm-none-eabi/lib/armv7-m\libg_nano.a(lib_a-writer.o)
 .debug_frame   0x00003414       0x2c c:/program files (x86)/cypress/psoc creator/4.4/psoc creator/import/gnu/arm/5.4.1/bin/../lib/gcc/arm-none-eabi/5.4.1/../../../../arm-none-eabi/lib/armv7-m\libg_nano.a(lib_a-wsetup.o)
 .debug_frame   0x00003440       0x2c c:/program files (x86)/cypress/psoc creator/4.4/psoc creator/import/gnu/arm/5.4.1/bin/../lib/gcc/arm-none-eabi/5.4.1/../../../../arm-none-eabi/lib/armv7-m\libg_nano.a(lib_a-closer.o)
 .debug_frame   0x0000346c       0x68 c:/program files (x86)/cypress/psoc creator/4.4/psoc creator/import/gnu/arm/5.4.1/bin/../lib/gcc/arm-none-eabi/5.4.1/../../../../arm-none-eabi/lib/armv7-m\libg_nano.a(lib_a-fflush.o)
 .debug_frame   0x000034d4       0x3c c:/program files (x86)/cypress/psoc creator/4.4/psoc creator/import/gnu/arm/5.4.1/bin/../lib/gcc/arm-none-eabi/5.4.1/../../../../arm-none-eabi/lib/armv7-m\libg_nano.a(lib_a-fvwrite.o)
 .debug_frame   0x00003510       0x2c c:/program files (x86)/cypress/psoc creator/4.4/psoc creator/import/gnu/arm/5.4.1/bin/../lib/gcc/arm-none-eabi/5.4.1/../../../../arm-none-eabi/lib/armv7-m\libg_nano.a(lib_a-lseekr.o)
 .debug_frame   0x0000353c       0x54 c:/program files (x86)/cypress/psoc creator/4.4/psoc creator/import/gnu/arm/5.4.1/bin/../lib/gcc/arm-none-eabi/5.4.1/../../../../arm-none-eabi/lib/armv7-m\libg_nano.a(lib_a-makebuf.o)
 .debug_frame   0x00003590       0x28 c:/program files (x86)/cypress/psoc creator/4.4/psoc creator/import/gnu/arm/5.4.1/bin/../lib/gcc/arm-none-eabi/5.4.1/../../../../arm-none-eabi/lib/armv7-m\libg_nano.a(lib_a-memchr-stub.o)
 .debug_frame   0x000035b8       0x28 c:/program files (x86)/cypress/psoc creator/4.4/psoc creator/import/gnu/arm/5.4.1/bin/../lib/gcc/arm-none-eabi/5.4.1/../../../../arm-none-eabi/lib/armv7-m\libg_nano.a(lib_a-memmove.o)
 .debug_frame   0x000035e0       0x30 c:/program files (x86)/cypress/psoc creator/4.4/psoc creator/import/gnu/arm/5.4.1/bin/../lib/gcc/arm-none-eabi/5.4.1/../../../../arm-none-eabi/lib/armv7-m\libg_nano.a(lib_a-mlock.o)
 .debug_frame   0x00003610       0x38 c:/program files (x86)/cypress/psoc creator/4.4/psoc creator/import/gnu/arm/5.4.1/bin/../lib/gcc/arm-none-eabi/5.4.1/../../../../arm-none-eabi/lib/armv7-m\libg_nano.a(lib_a-nano-freer.o)
 .debug_frame   0x00003648       0x3c c:/program files (x86)/cypress/psoc creator/4.4/psoc creator/import/gnu/arm/5.4.1/bin/../lib/gcc/arm-none-eabi/5.4.1/../../../../arm-none-eabi/lib/armv7-m\libg_nano.a(lib_a-nano-reallocr.o)
 .debug_frame   0x00003684       0x2c c:/program files (x86)/cypress/psoc creator/4.4/psoc creator/import/gnu/arm/5.4.1/bin/../lib/gcc/arm-none-eabi/5.4.1/../../../../arm-none-eabi/lib/armv7-m\libg_nano.a(lib_a-readr.o)
 .debug_frame   0x000036b0       0x5c c:/program files (x86)/cypress/psoc creator/4.4/psoc creator/import/gnu/arm/5.4.1/bin/../lib/gcc/arm-none-eabi/5.4.1/../../../../arm-none-eabi/lib/armv7-m\libg_nano.a(lib_a-reent.o)
 .debug_frame   0x0000370c       0x2c c:/program files (x86)/cypress/psoc creator/4.4/psoc creator/import/gnu/arm/5.4.1/bin/../lib/gcc/arm-none-eabi/5.4.1/../../../../arm-none-eabi/lib/armv7-m\libg_nano.a(lib_a-fstatr.o)
 .debug_frame   0x00003738       0x2c c:/program files (x86)/cypress/psoc creator/4.4/psoc creator/import/gnu/arm/5.4.1/bin/../lib/gcc/arm-none-eabi/5.4.1/../../../../arm-none-eabi/lib/armv7-m\libg_nano.a(lib_a-isattyr.o)
 .debug_frame   0x00003764       0x20 c:/program files (x86)/cypress/psoc creator/4.4/psoc creator/import/gnu/arm/5.4.1/bin/../lib/gcc/arm-none-eabi/5.4.1/../../../../arm-none-eabi/lib/armv7-m\libg_nano.a(lib_a-nano-msizer.o)
 .debug_frame   0x00003784       0x20 c:/program files (x86)/cypress/psoc creator/4.4/psoc creator/import/gnu/arm/5.4.1/bin/../lib/gcc/arm-none-eabi/5.4.1/../../../../arm-none-eabi/lib/armv7-m\libnosys.a(close.o)
 .debug_frame   0x000037a4       0x20 c:/program files (x86)/cypress/psoc creator/4.4/psoc creator/import/gnu/arm/5.4.1/bin/../lib/gcc/arm-none-eabi/5.4.1/../../../../arm-none-eabi/lib/armv7-m\libnosys.a(fstat.o)
 .debug_frame   0x000037c4       0x20 c:/program files (x86)/cypress/psoc creator/4.4/psoc creator/import/gnu/arm/5.4.1/bin/../lib/gcc/arm-none-eabi/5.4.1/../../../../arm-none-eabi/lib/armv7-m\libnosys.a(isatty.o)
 .debug_frame   0x000037e4       0x20 c:/program files (x86)/cypress/psoc creator/4.4/psoc creator/import/gnu/arm/5.4.1/bin/../lib/gcc/arm-none-eabi/5.4.1/../../../../arm-none-eabi/lib/armv7-m\libnosys.a(lseek.o)
 .debug_frame   0x00003804       0x20 c:/program files (x86)/cypress/psoc creator/4.4/psoc creator/import/gnu/arm/5.4.1/bin/../lib/gcc/arm-none-eabi/5.4.1/../../../../arm-none-eabi/lib/armv7-m\libnosys.a(read.o)
 .debug_frame   0x00003824       0x20 c:/program files (x86)/cypress/psoc creator/4.4/psoc creator/import/gnu/arm/5.4.1/bin/../lib/gcc/arm-none-eabi/5.4.1/../../../../arm-none-eabi/lib/armv7-m\libnosys.a(write.o)

.debug_str      0x00000000     0x4004
 *(.debug_str)
 .debug_str     0x00000000      0x4f8 .\CortexM3\ARM_GCC_541\Debug\main.o
                                0x57b (size before relaxing)
 .debug_str     0x000004f8      0x217 .\CortexM3\ARM_GCC_541\Debug\TIA_calibrate.o
                                0x50d (size before relaxing)
 .debug_str     0x0000070f      0x168 .\CortexM3\ARM_GCC_541\Debug\user_inputs.o
                                0x5b2 (size before relaxing)
 .debug_str     0x00000877      0x18b .\CortexM3\ARM_GCC_541\Debug\hardware_management.o
                                0x623 (size before relaxing)
 .debug_str     0x00000a02       0xa0 .\CortexM3\ARM_GCC_541\Debug\parametric_lut.o
                                0x38b (size before relaxing)
 .debug_str     0x00000aa2       0xa6 .\CortexM3\ARM_GCC_541\Debug\DAC_management.o
                                0x3af (size before relaxing)
 .debug_str     0x00000b48       0x63 .\CortexM3\ARM_GCC_541\Debug\BT_protocols.o
                                0x35c (size before relaxing)
 .debug_str     0x00000bab      0x34c .\CortexM3\ARM_GCC_541\Debug\cyfitter_cfg.o
                                0x4f1 (size before relaxing)
 .debug_str     0x00000ef7       0x75 .\CortexM3\ARM_GCC_541\Debug\cymetadata.o
                                0x1f5 (size before relaxing)
 .debug_str     0x00000f6c      0x154 .\CortexM3\ARM_GCC_541\Debug\Cm3Start.o
                                0x32b (size before relaxing)
 .debug_str     0x000010c0      0x1ca .\CortexM3\ARM_GCC_541\Debug\PSoC_Project.a(EEPROM.o)
                                0x3d3 (size before relaxing)
 .debug_str     0x0000128a       0xda .\CortexM3\ARM_GCC_541\Debug\PSoC_Project.a(isr_dac.o)
                                0x2d3 (size before relaxing)
 .debug_str     0x00001364       0xd3 .\CortexM3\ARM_GCC_541\Debug\PSoC_Project.a(isr_adc.o)
                                0x2d3 (size before relaxing)
 .debug_str     0x00001437      0x105 .\CortexM3\ARM_GCC_541\Debug\PSoC_Project.a(isr_adcAmp.o)
                                0x2fd (size before relaxing)
 .debug_str     0x0000153c       0x80 .\CortexM3\ARM_GCC_541\Debug\PSoC_Project.a(AMux_TIA_resistor_bypass.o)
                                0x280 (size before relaxing)
 .debug_str     0x000015bc       0xca .\CortexM3\ARM_GCC_541\Debug\PSoC_Project.a(IDAC_calibrate.o)
                                0x2ae (size before relaxing)
 .debug_str     0x00001686       0x5d .\CortexM3\ARM_GCC_541\Debug\PSoC_Project.a(AMux_TIA_input.o)
                                0x23a (size before relaxing)
 .debug_str     0x000016e3       0xa6 .\CortexM3\ARM_GCC_541\Debug\PSoC_Project.a(VDAC_TIA.o)
                                0x24e (size before relaxing)
 .debug_str     0x00001789       0x8d .\CortexM3\ARM_GCC_541\Debug\PSoC_Project.a(VDAC_TIA_PM.o)
                                0x25e (size before relaxing)
 .debug_str     0x00001816       0x5d .\CortexM3\ARM_GCC_541\Debug\PSoC_Project.a(TIA.o)
                                0x234 (size before relaxing)
 .debug_str     0x00001873       0x4d .\CortexM3\ARM_GCC_541\Debug\PSoC_Project.a(TIA_PM.o)
                                0x245 (size before relaxing)
 .debug_str     0x000018c0      0x2b3 .\CortexM3\ARM_GCC_541\Debug\PSoC_Project.a(UART_BT.o)
                                0x4e3 (size before relaxing)
 .debug_str     0x00001b73       0x77 .\CortexM3\ARM_GCC_541\Debug\PSoC_Project.a(Opamp_Aux.o)
                                0x224 (size before relaxing)
 .debug_str     0x00001bea       0x7c .\CortexM3\ARM_GCC_541\Debug\PSoC_Project.a(Opamp_Aux_PM.o)
                                0x260 (size before relaxing)
 .debug_str     0x00001c66       0x5d .\CortexM3\ARM_GCC_541\Debug\PSoC_Project.a(AMux_electrode.o)
                                0x23a (size before relaxing)
 .debug_str     0x00001cc3       0x5a .\CortexM3\ARM_GCC_541\Debug\PSoC_Project.a(AMux_V_source.o)
                                0x233 (size before relaxing)
 .debug_str     0x00001d1d      0x176 .\CortexM3\ARM_GCC_541\Debug\PSoC_Project.a(DVDAC.o)
                                0x34e (size before relaxing)
 .debug_str     0x00001e93       0x99 .\CortexM3\ARM_GCC_541\Debug\PSoC_Project.a(DVDAC_PM.o)
                                0x258 (size before relaxing)
 .debug_str     0x00001f2c       0x9b .\CortexM3\ARM_GCC_541\Debug\PSoC_Project.a(VDAC_source.o)
                                0x26c (size before relaxing)
 .debug_str     0x00001fc7       0x85 .\CortexM3\ARM_GCC_541\Debug\PSoC_Project.a(VDAC_source_PM.o)
                                0x27c (size before relaxing)
 .debug_str     0x0000204c      0x113 .\CortexM3\ARM_GCC_541\Debug\PSoC_Project.a(PWM_isr.o)
                                0x2fd (size before relaxing)
 .debug_str     0x0000215f       0xa4 .\CortexM3\ARM_GCC_541\Debug\PSoC_Project.a(PWM_isr_PM.o)
                                0x304 (size before relaxing)
 .debug_str     0x00002203      0x1a1 .\CortexM3\ARM_GCC_541\Debug\PSoC_Project.a(UART_BT_IntClock.o)
                                0x36b (size before relaxing)
 .debug_str     0x000023a4       0xcd .\CortexM3\ARM_GCC_541\Debug\PSoC_Project.a(DVDAC_DMA_dma.o)
                                0x28d (size before relaxing)
 .debug_str     0x00002471       0x9e .\CortexM3\ARM_GCC_541\Debug\PSoC_Project.a(DVDAC_VDAC8.o)
                                0x26c (size before relaxing)
 .debug_str     0x0000250f       0x79 .\CortexM3\ARM_GCC_541\Debug\PSoC_Project.a(DVDAC_VDAC8_PM.o)
                                0x27c (size before relaxing)
 .debug_str     0x00002588      0x142 .\CortexM3\ARM_GCC_541\Debug\PSoC_Project.a(DVDAC_IntClock.o)
                                0x353 (size before relaxing)
 .debug_str     0x000026ca      0x282 .\CortexM3\ARM_GCC_541\Debug\PSoC_Project.a(CyDmac.o)
                                0x55b (size before relaxing)
 .debug_str     0x0000294c      0x12e .\CortexM3\ARM_GCC_541\Debug\PSoC_Project.a(CyFlash.o)
                                0x3d1 (size before relaxing)
 .debug_str     0x00002a7a      0x7c6 .\CortexM3\ARM_GCC_541\Debug\PSoC_Project.a(CyLib.o)
                                0xa58 (size before relaxing)
 .debug_str     0x00003240      0x34f .\CortexM3\ARM_GCC_541\Debug\PSoC_Project.a(cyPm.o)
                                0x744 (size before relaxing)
 .debug_str     0x0000358f       0x6e .\CortexM3\ARM_GCC_541\Debug\PSoC_Project.a(CySpc.o)
                                0x349 (size before relaxing)
 .debug_str     0x000035fd      0x3ff .\CortexM3\ARM_GCC_541\Debug\PSoC_Project.a(ADC_SigDel.o)
                                0x6e2 (size before relaxing)
 .debug_str     0x000039fc       0x87 .\CortexM3\ARM_GCC_541\Debug\PSoC_Project.a(ADC_SigDel_PM.o)
                                0x287 (size before relaxing)
 .debug_str     0x00003a83       0x68 .\CortexM3\ARM_GCC_541\Debug\PSoC_Project.a(ADC_SigDel_INT.o)
                                0x1f4 (size before relaxing)
 .debug_str     0x00003aeb      0x170 .\CortexM3\ARM_GCC_541\Debug\PSoC_Project.a(ADC_SigDel_Ext_CP_Clk.o)
                                0x3a7 (size before relaxing)
 .debug_str     0x00003c5b      0x1a3 .\CortexM3\ARM_GCC_541\Debug\PSoC_Project.a(ADC_SigDel_theACLK.o)
                                0x3d4 (size before relaxing)
 .debug_str     0x00003dfe      0x14d .\CortexM3\ARM_GCC_541\Debug\PSoC_Project.a(isr_UART_BT_RX.o)
                                0x335 (size before relaxing)
 .debug_str     0x00003f4b       0x62 .\CortexM3\ARM_GCC_541\Debug\PSoC_Project.a(LED_DAC.o)
                                0x1fd (size before relaxing)
 .debug_str     0x00003fad       0x57 .\CortexM3\ARM_GCC_541\Debug\PSoC_Project.a(LED_ADC.o)
                                0x1fd (size before relaxing)

.debug_loc      0x00000000     0x4b78
 *(.debug_loc)
 .debug_loc     0x00000000       0xe4 .\CortexM3\ARM_GCC_541\Debug\main.o
 .debug_loc     0x000000e4      0x154 .\CortexM3\ARM_GCC_541\Debug\TIA_calibrate.o
 .debug_loc     0x00000238      0x248 .\CortexM3\ARM_GCC_541\Debug\user_inputs.o
 .debug_loc     0x00000480       0xee .\CortexM3\ARM_GCC_541\Debug\hardware_management.o
 .debug_loc     0x0000056e      0x3a8 .\CortexM3\ARM_GCC_541\Debug\parametric_lut.o
 .debug_loc     0x00000916       0x3a .\CortexM3\ARM_GCC_541\Debug\DAC_management.o
 .debug_loc     0x00000950      0x179 .\CortexM3\ARM_GCC_541\Debug\BT_protocols.o
 .debug_loc     0x00000ac9      0x39e .\CortexM3\ARM_GCC_541\Debug\cyfitter_cfg.o
 .debug_loc     0x00000e67      0x144 .\CortexM3\ARM_GCC_541\Debug\Cm3Start.o
 .debug_loc     0x00000fab      0x49f .\CortexM3\ARM_GCC_541\Debug\PSoC_Project.a(EEPROM.o)
 .debug_loc     0x0000144a       0x56 .\CortexM3\ARM_GCC_541\Debug\PSoC_Project.a(isr_dac.o)
 .debug_loc     0x000014a0       0x56 .\CortexM3\ARM_GCC_541\Debug\PSoC_Project.a(isr_adc.o)
 .debug_loc     0x000014f6       0x56 .\CortexM3\ARM_GCC_541\Debug\PSoC_Project.a(isr_adcAmp.o)
 .debug_loc     0x0000154c       0x6c .\CortexM3\ARM_GCC_541\Debug\PSoC_Project.a(AMux_TIA_resistor_bypass.o)
 .debug_loc     0x000015b8       0x76 .\CortexM3\ARM_GCC_541\Debug\PSoC_Project.a(IDAC_calibrate.o)
 .debug_loc     0x0000162e       0x6c .\CortexM3\ARM_GCC_541\Debug\PSoC_Project.a(AMux_TIA_input.o)
 .debug_loc     0x0000169a       0x79 .\CortexM3\ARM_GCC_541\Debug\PSoC_Project.a(VDAC_TIA.o)
 .debug_loc     0x00001713       0x81 .\CortexM3\ARM_GCC_541\Debug\PSoC_Project.a(TIA.o)
 .debug_loc     0x00001794      0x258 .\CortexM3\ARM_GCC_541\Debug\PSoC_Project.a(UART_BT.o)
 .debug_loc     0x000019ec       0x21 .\CortexM3\ARM_GCC_541\Debug\PSoC_Project.a(Opamp_Aux.o)
 .debug_loc     0x00001a0d       0x6c .\CortexM3\ARM_GCC_541\Debug\PSoC_Project.a(AMux_electrode.o)
 .debug_loc     0x00001a79       0x6c .\CortexM3\ARM_GCC_541\Debug\PSoC_Project.a(AMux_V_source.o)
 .debug_loc     0x00001ae5       0x7b .\CortexM3\ARM_GCC_541\Debug\PSoC_Project.a(DVDAC.o)
 .debug_loc     0x00001b60       0x79 .\CortexM3\ARM_GCC_541\Debug\PSoC_Project.a(VDAC_source.o)
 .debug_loc     0x00001bd9       0x13 .\CortexM3\ARM_GCC_541\Debug\PSoC_Project.a(PWM_isr.o)
 .debug_loc     0x00001bec      0x128 .\CortexM3\ARM_GCC_541\Debug\PSoC_Project.a(UART_BT_IntClock.o)
 .debug_loc     0x00001d14       0x84 .\CortexM3\ARM_GCC_541\Debug\PSoC_Project.a(DVDAC_DMA_dma.o)
 .debug_loc     0x00001d98       0x79 .\CortexM3\ARM_GCC_541\Debug\PSoC_Project.a(DVDAC_VDAC8.o)
 .debug_loc     0x00001e11      0x128 .\CortexM3\ARM_GCC_541\Debug\PSoC_Project.a(DVDAC_IntClock.o)
 .debug_loc     0x00001f39      0xb8e .\CortexM3\ARM_GCC_541\Debug\PSoC_Project.a(CyDmac.o)
 .debug_loc     0x00002ac7      0x3b2 .\CortexM3\ARM_GCC_541\Debug\PSoC_Project.a(CyFlash.o)
 .debug_loc     0x00002e79      0xa11 .\CortexM3\ARM_GCC_541\Debug\PSoC_Project.a(CyLib.o)
 .debug_loc     0x0000388a      0x1e4 .\CortexM3\ARM_GCC_541\Debug\PSoC_Project.a(cyPm.o)
 .debug_loc     0x00003a6e      0x705 .\CortexM3\ARM_GCC_541\Debug\PSoC_Project.a(CySpc.o)
 .debug_loc     0x00004173      0x6b6 .\CortexM3\ARM_GCC_541\Debug\PSoC_Project.a(ADC_SigDel.o)
 .debug_loc     0x00004829      0x128 .\CortexM3\ARM_GCC_541\Debug\PSoC_Project.a(ADC_SigDel_Ext_CP_Clk.o)
 .debug_loc     0x00004951      0x14d .\CortexM3\ARM_GCC_541\Debug\PSoC_Project.a(ADC_SigDel_theACLK.o)
 .debug_loc     0x00004a9e       0x56 .\CortexM3\ARM_GCC_541\Debug\PSoC_Project.a(isr_UART_BT_RX.o)
 .debug_loc     0x00004af4       0x42 .\CortexM3\ARM_GCC_541\Debug\PSoC_Project.a(LED_DAC.o)
 .debug_loc     0x00004b36       0x42 .\CortexM3\ARM_GCC_541\Debug\PSoC_Project.a(LED_ADC.o)

.debug_macinfo
 *(.debug_macinfo)

.debug_ranges   0x00000000     0x1130
 *(.debug_ranges)
 .debug_ranges  0x00000000       0x40 .\CortexM3\ARM_GCC_541\Debug\main.o
 .debug_ranges  0x00000040       0x40 .\CortexM3\ARM_GCC_541\Debug\TIA_calibrate.o
 .debug_ranges  0x00000080       0x40 .\CortexM3\ARM_GCC_541\Debug\user_inputs.o
 .debug_ranges  0x000000c0       0x70 .\CortexM3\ARM_GCC_541\Debug\hardware_management.o
 .debug_ranges  0x00000130       0x28 .\CortexM3\ARM_GCC_541\Debug\parametric_lut.o
 .debug_ranges  0x00000158       0x28 .\CortexM3\ARM_GCC_541\Debug\DAC_management.o
 .debug_ranges  0x00000180       0x28 .\CortexM3\ARM_GCC_541\Debug\BT_protocols.o
 .debug_ranges  0x000001a8       0x88 .\CortexM3\ARM_GCC_541\Debug\cyfitter_cfg.o
 .debug_ranges  0x00000230       0x38 .\CortexM3\ARM_GCC_541\Debug\Cm3Start.o
 .debug_ranges  0x00000268       0x68 .\CortexM3\ARM_GCC_541\Debug\PSoC_Project.a(EEPROM.o)
 .debug_ranges  0x000002d0       0x70 .\CortexM3\ARM_GCC_541\Debug\PSoC_Project.a(isr_dac.o)
 .debug_ranges  0x00000340       0x70 .\CortexM3\ARM_GCC_541\Debug\PSoC_Project.a(isr_adc.o)
 .debug_ranges  0x000003b0       0x70 .\CortexM3\ARM_GCC_541\Debug\PSoC_Project.a(isr_adcAmp.o)
 .debug_ranges  0x00000420       0x20 .\CortexM3\ARM_GCC_541\Debug\PSoC_Project.a(AMux_TIA_resistor_bypass.o)
 .debug_ranges  0x00000440       0x50 .\CortexM3\ARM_GCC_541\Debug\PSoC_Project.a(IDAC_calibrate.o)
 .debug_ranges  0x00000490       0x20 .\CortexM3\ARM_GCC_541\Debug\PSoC_Project.a(AMux_TIA_input.o)
 .debug_ranges  0x000004b0       0x48 .\CortexM3\ARM_GCC_541\Debug\PSoC_Project.a(VDAC_TIA.o)
 .debug_ranges  0x000004f8       0x28 .\CortexM3\ARM_GCC_541\Debug\PSoC_Project.a(VDAC_TIA_PM.o)
 .debug_ranges  0x00000520       0x40 .\CortexM3\ARM_GCC_541\Debug\PSoC_Project.a(TIA.o)
 .debug_ranges  0x00000560       0x28 .\CortexM3\ARM_GCC_541\Debug\PSoC_Project.a(TIA_PM.o)
 .debug_ranges  0x00000588       0xe0 .\CortexM3\ARM_GCC_541\Debug\PSoC_Project.a(UART_BT.o)
 .debug_ranges  0x00000668       0x30 .\CortexM3\ARM_GCC_541\Debug\PSoC_Project.a(Opamp_Aux.o)
 .debug_ranges  0x00000698       0x28 .\CortexM3\ARM_GCC_541\Debug\PSoC_Project.a(Opamp_Aux_PM.o)
 .debug_ranges  0x000006c0       0x20 .\CortexM3\ARM_GCC_541\Debug\PSoC_Project.a(AMux_electrode.o)
 .debug_ranges  0x000006e0       0x20 .\CortexM3\ARM_GCC_541\Debug\PSoC_Project.a(AMux_V_source.o)
 .debug_ranges  0x00000700       0x38 .\CortexM3\ARM_GCC_541\Debug\PSoC_Project.a(DVDAC.o)
 .debug_ranges  0x00000738       0x28 .\CortexM3\ARM_GCC_541\Debug\PSoC_Project.a(DVDAC_PM.o)
 .debug_ranges  0x00000760       0x48 .\CortexM3\ARM_GCC_541\Debug\PSoC_Project.a(VDAC_source.o)
 .debug_ranges  0x000007a8       0x28 .\CortexM3\ARM_GCC_541\Debug\PSoC_Project.a(VDAC_source_PM.o)
 .debug_ranges  0x000007d0       0x70 .\CortexM3\ARM_GCC_541\Debug\PSoC_Project.a(PWM_isr.o)
 .debug_ranges  0x00000840       0x28 .\CortexM3\ARM_GCC_541\Debug\PSoC_Project.a(PWM_isr_PM.o)
 .debug_ranges  0x00000868       0x60 .\CortexM3\ARM_GCC_541\Debug\PSoC_Project.a(UART_BT_IntClock.o)
 .debug_ranges  0x000008c8       0x18 .\CortexM3\ARM_GCC_541\Debug\PSoC_Project.a(DVDAC_DMA_dma.o)
 .debug_ranges  0x000008e0       0x48 .\CortexM3\ARM_GCC_541\Debug\PSoC_Project.a(DVDAC_VDAC8.o)
 .debug_ranges  0x00000928       0x28 .\CortexM3\ARM_GCC_541\Debug\PSoC_Project.a(DVDAC_VDAC8_PM.o)
 .debug_ranges  0x00000950       0x60 .\CortexM3\ARM_GCC_541\Debug\PSoC_Project.a(DVDAC_IntClock.o)
 .debug_ranges  0x000009b0       0xc8 .\CortexM3\ARM_GCC_541\Debug\PSoC_Project.a(CyDmac.o)
 .debug_ranges  0x00000a78       0x78 .\CortexM3\ARM_GCC_541\Debug\PSoC_Project.a(CyFlash.o)
 .debug_ranges  0x00000af0      0x290 .\CortexM3\ARM_GCC_541\Debug\PSoC_Project.a(CyLib.o)
 .debug_ranges  0x00000d80       0x88 .\CortexM3\ARM_GCC_541\Debug\PSoC_Project.a(cyPm.o)
 .debug_ranges  0x00000e08       0x70 .\CortexM3\ARM_GCC_541\Debug\PSoC_Project.a(CySpc.o)
 .debug_ranges  0x00000e78       0xd8 .\CortexM3\ARM_GCC_541\Debug\PSoC_Project.a(ADC_SigDel.o)
 .debug_ranges  0x00000f50       0x28 .\CortexM3\ARM_GCC_541\Debug\PSoC_Project.a(ADC_SigDel_PM.o)
 .debug_ranges  0x00000f78       0x28 .\CortexM3\ARM_GCC_541\Debug\PSoC_Project.a(ADC_SigDel_INT.o)
 .debug_ranges  0x00000fa0       0x60 .\CortexM3\ARM_GCC_541\Debug\PSoC_Project.a(ADC_SigDel_Ext_CP_Clk.o)
 .debug_ranges  0x00001000       0x70 .\CortexM3\ARM_GCC_541\Debug\PSoC_Project.a(ADC_SigDel_theACLK.o)
 .debug_ranges  0x00001070       0x70 .\CortexM3\ARM_GCC_541\Debug\PSoC_Project.a(isr_UART_BT_RX.o)
 .debug_ranges  0x000010e0       0x28 .\CortexM3\ARM_GCC_541\Debug\PSoC_Project.a(LED_DAC.o)
 .debug_ranges  0x00001108       0x28 .\CortexM3\ARM_GCC_541\Debug\PSoC_Project.a(LED_ADC.o)

.comment        0x00000000       0x6e
 .comment       0x00000000       0x6e .\CortexM3\ARM_GCC_541\Debug\main.o
                                 0x6f (size before relaxing)
 .comment       0x0000006e       0x6f .\CortexM3\ARM_GCC_541\Debug\TIA_calibrate.o
 .comment       0x0000006e       0x6f .\CortexM3\ARM_GCC_541\Debug\user_inputs.o
 .comment       0x0000006e       0x6f .\CortexM3\ARM_GCC_541\Debug\hardware_management.o
 .comment       0x0000006e       0x6f .\CortexM3\ARM_GCC_541\Debug\parametric_lut.o
 .comment       0x0000006e       0x6f .\CortexM3\ARM_GCC_541\Debug\DAC_management.o
 .comment       0x0000006e       0x6f .\CortexM3\ARM_GCC_541\Debug\BT_protocols.o
 .comment       0x0000006e       0x6f .\CortexM3\ARM_GCC_541\Debug\cyfitter_cfg.o
 .comment       0x0000006e       0x6f .\CortexM3\ARM_GCC_541\Debug\cymetadata.o
 .comment       0x0000006e       0x6f .\CortexM3\ARM_GCC_541\Debug\Cm3Start.o
 .comment       0x0000006e       0x6f .\CortexM3\ARM_GCC_541\Debug\PSoC_Project.a(EEPROM.o)
 .comment       0x0000006e       0x6f .\CortexM3\ARM_GCC_541\Debug\PSoC_Project.a(isr_dac.o)
 .comment       0x0000006e       0x6f .\CortexM3\ARM_GCC_541\Debug\PSoC_Project.a(isr_adc.o)
 .comment       0x0000006e       0x6f .\CortexM3\ARM_GCC_541\Debug\PSoC_Project.a(isr_adcAmp.o)
 .comment       0x0000006e       0x6f .\CortexM3\ARM_GCC_541\Debug\PSoC_Project.a(AMux_TIA_resistor_bypass.o)
 .comment       0x0000006e       0x6f .\CortexM3\ARM_GCC_541\Debug\PSoC_Project.a(IDAC_calibrate.o)
 .comment       0x0000006e       0x6f .\CortexM3\ARM_GCC_541\Debug\PSoC_Project.a(AMux_TIA_input.o)
 .comment       0x0000006e       0x6f .\CortexM3\ARM_GCC_541\Debug\PSoC_Project.a(VDAC_TIA.o)
 .comment       0x0000006e       0x6f .\CortexM3\ARM_GCC_541\Debug\PSoC_Project.a(VDAC_TIA_PM.o)
 .comment       0x0000006e       0x6f .\CortexM3\ARM_GCC_541\Debug\PSoC_Project.a(TIA.o)
 .comment       0x0000006e       0x6f .\CortexM3\ARM_GCC_541\Debug\PSoC_Project.a(TIA_PM.o)
 .comment       0x0000006e       0x6f .\CortexM3\ARM_GCC_541\Debug\PSoC_Project.a(UART_BT.o)
 .comment       0x0000006e       0x6f .\CortexM3\ARM_GCC_541\Debug\PSoC_Project.a(Opamp_Aux.o)
 .comment       0x0000006e       0x6f .\CortexM3\ARM_GCC_541\Debug\PSoC_Project.a(Opamp_Aux_PM.o)
 .comment       0x0000006e       0x6f .\CortexM3\ARM_GCC_541\Debug\PSoC_Project.a(AMux_electrode.o)
 .comment       0x0000006e       0x6f .\CortexM3\ARM_GCC_541\Debug\PSoC_Project.a(AMux_V_source.o)
 .comment       0x0000006e       0x6f .\CortexM3\ARM_GCC_541\Debug\PSoC_Project.a(DVDAC.o)
 .comment       0x0000006e       0x6f .\CortexM3\ARM_GCC_541\Debug\PSoC_Project.a(DVDAC_PM.o)
 .comment       0x0000006e       0x6f .\CortexM3\ARM_GCC_541\Debug\PSoC_Project.a(VDAC_source.o)
 .comment       0x0000006e       0x6f .\CortexM3\ARM_GCC_541\Debug\PSoC_Project.a(VDAC_source_PM.o)
 .comment       0x0000006e       0x6f .\CortexM3\ARM_GCC_541\Debug\PSoC_Project.a(PWM_isr.o)
 .comment       0x0000006e       0x6f .\CortexM3\ARM_GCC_541\Debug\PSoC_Project.a(PWM_isr_PM.o)
 .comment       0x0000006e       0x6f .\CortexM3\ARM_GCC_541\Debug\PSoC_Project.a(UART_BT_IntClock.o)
 .comment       0x0000006e       0x6f .\CortexM3\ARM_GCC_541\Debug\PSoC_Project.a(DVDAC_DMA_dma.o)
 .comment       0x0000006e       0x6f .\CortexM3\ARM_GCC_541\Debug\PSoC_Project.a(DVDAC_VDAC8.o)
 .comment       0x0000006e       0x6f .\CortexM3\ARM_GCC_541\Debug\PSoC_Project.a(DVDAC_VDAC8_PM.o)
 .comment       0x0000006e       0x6f .\CortexM3\ARM_GCC_541\Debug\PSoC_Project.a(DVDAC_IntClock.o)
 .comment       0x0000006e       0x6f .\CortexM3\ARM_GCC_541\Debug\PSoC_Project.a(CyDmac.o)
 .comment       0x0000006e       0x6f .\CortexM3\ARM_GCC_541\Debug\PSoC_Project.a(CyFlash.o)
 .comment       0x0000006e       0x6f .\CortexM3\ARM_GCC_541\Debug\PSoC_Project.a(CyLib.o)
 .comment       0x0000006e       0x6f .\CortexM3\ARM_GCC_541\Debug\PSoC_Project.a(cyPm.o)
 .comment       0x0000006e       0x6f .\CortexM3\ARM_GCC_541\Debug\PSoC_Project.a(CySpc.o)
 .comment       0x0000006e       0x6f .\CortexM3\ARM_GCC_541\Debug\PSoC_Project.a(ADC_SigDel.o)
 .comment       0x0000006e       0x6f .\CortexM3\ARM_GCC_541\Debug\PSoC_Project.a(ADC_SigDel_PM.o)
 .comment       0x0000006e       0x6f .\CortexM3\ARM_GCC_541\Debug\PSoC_Project.a(ADC_SigDel_INT.o)
 .comment       0x0000006e       0x6f .\CortexM3\ARM_GCC_541\Debug\PSoC_Project.a(ADC_SigDel_Ext_CP_Clk.o)
 .comment       0x0000006e       0x6f .\CortexM3\ARM_GCC_541\Debug\PSoC_Project.a(ADC_SigDel_theACLK.o)
 .comment       0x0000006e       0x6f .\CortexM3\ARM_GCC_541\Debug\PSoC_Project.a(isr_UART_BT_RX.o)
 .comment       0x0000006e       0x6f .\CortexM3\ARM_GCC_541\Debug\PSoC_Project.a(LED_DAC.o)
 .comment       0x0000006e       0x6f .\CortexM3\ARM_GCC_541\Debug\PSoC_Project.a(LED_ADC.o)

.debug_weaknames
 *(.debug_weaknames)

.debug_funcnames
 *(.debug_funcnames)

.debug_typenames
 *(.debug_typenames)

.debug_varnames
 *(.debug_varnames)

.note.gnu.arm.ident
 *(.note.gnu.arm.ident)

.ARM.attributes
                0x00000000       0x29
 *(.ARM.attributes)
 .ARM.attributes
                0x00000000       0x1d c:/program files (x86)/cypress/psoc creator/4.4/psoc creator/import/gnu/arm/5.4.1/bin/../lib/gcc/arm-none-eabi/5.4.1/armv7-m/crti.o
 .ARM.attributes
                0x0000001d       0x2d c:/program files (x86)/cypress/psoc creator/4.4/psoc creator/import/gnu/arm/5.4.1/bin/../lib/gcc/arm-none-eabi/5.4.1/armv7-m/crtbegin.o
 .ARM.attributes
                0x0000004a       0x1b c:/program files (x86)/cypress/psoc creator/4.4/psoc creator/import/gnu/arm/5.4.1/bin/../lib/gcc/arm-none-eabi/5.4.1/../../../../arm-none-eabi/lib/armv7-m/crt0.o
 .ARM.attributes
                0x00000065       0x33 .\CortexM3\ARM_GCC_541\Debug\main.o
 .ARM.attributes
                0x00000098       0x33 .\CortexM3\ARM_GCC_541\Debug\TIA_calibrate.o
 .ARM.attributes
                0x000000cb       0x33 .\CortexM3\ARM_GCC_541\Debug\user_inputs.o
 .ARM.attributes
                0x000000fe       0x33 .\CortexM3\ARM_GCC_541\Debug\hardware_management.o
 .ARM.attributes
                0x00000131       0x33 .\CortexM3\ARM_GCC_541\Debug\parametric_lut.o
 .ARM.attributes
                0x00000164       0x33 .\CortexM3\ARM_GCC_541\Debug\DAC_management.o
 .ARM.attributes
                0x00000197       0x33 .\CortexM3\ARM_GCC_541\Debug\BT_protocols.o
 .ARM.attributes
                0x000001ca       0x33 .\CortexM3\ARM_GCC_541\Debug\cyfitter_cfg.o
 .ARM.attributes
                0x000001fd       0x33 .\CortexM3\ARM_GCC_541\Debug\cymetadata.o
 .ARM.attributes
                0x00000230       0x33 .\CortexM3\ARM_GCC_541\Debug\Cm3Start.o
 .ARM.attributes
                0x00000263       0x33 .\CortexM3\ARM_GCC_541\Debug\PSoC_Project.a(EEPROM.o)
 .ARM.attributes
                0x00000296       0x33 .\CortexM3\ARM_GCC_541\Debug\PSoC_Project.a(isr_dac.o)
 .ARM.attributes
                0x000002c9       0x33 .\CortexM3\ARM_GCC_541\Debug\PSoC_Project.a(isr_adc.o)
 .ARM.attributes
                0x000002fc       0x33 .\CortexM3\ARM_GCC_541\Debug\PSoC_Project.a(isr_adcAmp.o)
 .ARM.attributes
                0x0000032f       0x33 .\CortexM3\ARM_GCC_541\Debug\PSoC_Project.a(AMux_TIA_resistor_bypass.o)
 .ARM.attributes
                0x00000362       0x33 .\CortexM3\ARM_GCC_541\Debug\PSoC_Project.a(IDAC_calibrate.o)
 .ARM.attributes
                0x00000395       0x33 .\CortexM3\ARM_GCC_541\Debug\PSoC_Project.a(AMux_TIA_input.o)
 .ARM.attributes
                0x000003c8       0x33 .\CortexM3\ARM_GCC_541\Debug\PSoC_Project.a(VDAC_TIA.o)
 .ARM.attributes
                0x000003fb       0x33 .\CortexM3\ARM_GCC_541\Debug\PSoC_Project.a(VDAC_TIA_PM.o)
 .ARM.attributes
                0x0000042e       0x33 .\CortexM3\ARM_GCC_541\Debug\PSoC_Project.a(TIA.o)
 .ARM.attributes
                0x00000461       0x33 .\CortexM3\ARM_GCC_541\Debug\PSoC_Project.a(TIA_PM.o)
 .ARM.attributes
                0x00000494       0x33 .\CortexM3\ARM_GCC_541\Debug\PSoC_Project.a(UART_BT.o)
 .ARM.attributes
                0x000004c7       0x33 .\CortexM3\ARM_GCC_541\Debug\PSoC_Project.a(Opamp_Aux.o)
 .ARM.attributes
                0x000004fa       0x33 .\CortexM3\ARM_GCC_541\Debug\PSoC_Project.a(Opamp_Aux_PM.o)
 .ARM.attributes
                0x0000052d       0x33 .\CortexM3\ARM_GCC_541\Debug\PSoC_Project.a(AMux_electrode.o)
 .ARM.attributes
                0x00000560       0x33 .\CortexM3\ARM_GCC_541\Debug\PSoC_Project.a(AMux_V_source.o)
 .ARM.attributes
                0x00000593       0x33 .\CortexM3\ARM_GCC_541\Debug\PSoC_Project.a(DVDAC.o)
 .ARM.attributes
                0x000005c6       0x33 .\CortexM3\ARM_GCC_541\Debug\PSoC_Project.a(DVDAC_PM.o)
 .ARM.attributes
                0x000005f9       0x33 .\CortexM3\ARM_GCC_541\Debug\PSoC_Project.a(VDAC_source.o)
 .ARM.attributes
                0x0000062c       0x33 .\CortexM3\ARM_GCC_541\Debug\PSoC_Project.a(VDAC_source_PM.o)
 .ARM.attributes
                0x0000065f       0x33 .\CortexM3\ARM_GCC_541\Debug\PSoC_Project.a(PWM_isr.o)
 .ARM.attributes
                0x00000692       0x33 .\CortexM3\ARM_GCC_541\Debug\PSoC_Project.a(PWM_isr_PM.o)
 .ARM.attributes
                0x000006c5       0x33 .\CortexM3\ARM_GCC_541\Debug\PSoC_Project.a(UART_BT_IntClock.o)
 .ARM.attributes
                0x000006f8       0x33 .\CortexM3\ARM_GCC_541\Debug\PSoC_Project.a(DVDAC_DMA_dma.o)
 .ARM.attributes
                0x0000072b       0x33 .\CortexM3\ARM_GCC_541\Debug\PSoC_Project.a(DVDAC_VDAC8.o)
 .ARM.attributes
                0x0000075e       0x33 .\CortexM3\ARM_GCC_541\Debug\PSoC_Project.a(DVDAC_VDAC8_PM.o)
 .ARM.attributes
                0x00000791       0x33 .\CortexM3\ARM_GCC_541\Debug\PSoC_Project.a(DVDAC_IntClock.o)
 .ARM.attributes
                0x000007c4       0x33 .\CortexM3\ARM_GCC_541\Debug\PSoC_Project.a(CyDmac.o)
 .ARM.attributes
                0x000007f7       0x33 .\CortexM3\ARM_GCC_541\Debug\PSoC_Project.a(CyFlash.o)
 .ARM.attributes
                0x0000082a       0x33 .\CortexM3\ARM_GCC_541\Debug\PSoC_Project.a(CyLib.o)
 .ARM.attributes
                0x0000085d       0x33 .\CortexM3\ARM_GCC_541\Debug\PSoC_Project.a(cyPm.o)
 .ARM.attributes
                0x00000890       0x33 .\CortexM3\ARM_GCC_541\Debug\PSoC_Project.a(CySpc.o)
 .ARM.attributes
                0x000008c3       0x33 .\CortexM3\ARM_GCC_541\Debug\PSoC_Project.a(ADC_SigDel.o)
 .ARM.attributes
                0x000008f6       0x33 .\CortexM3\ARM_GCC_541\Debug\PSoC_Project.a(ADC_SigDel_PM.o)
 .ARM.attributes
                0x00000929       0x33 .\CortexM3\ARM_GCC_541\Debug\PSoC_Project.a(ADC_SigDel_INT.o)
 .ARM.attributes
                0x0000095c       0x33 .\CortexM3\ARM_GCC_541\Debug\PSoC_Project.a(ADC_SigDel_Ext_CP_Clk.o)
 .ARM.attributes
                0x0000098f       0x33 .\CortexM3\ARM_GCC_541\Debug\PSoC_Project.a(ADC_SigDel_theACLK.o)
 .ARM.attributes
                0x000009c2       0x33 .\CortexM3\ARM_GCC_541\Debug\PSoC_Project.a(isr_UART_BT_RX.o)
 .ARM.attributes
                0x000009f5       0x33 .\CortexM3\ARM_GCC_541\Debug\PSoC_Project.a(LED_DAC.o)
 .ARM.attributes
                0x00000a28       0x33 .\CortexM3\ARM_GCC_541\Debug\PSoC_Project.a(LED_ADC.o)
 .ARM.attributes
                0x00000a5b       0x21 .\CortexM3\ARM_GCC_541\Debug\PSoC_Project.a(CyBootAsmGnu.o)
 .ARM.attributes
                0x00000a7c       0x1d c:/program files (x86)/cypress/psoc creator/4.4/psoc creator/import/gnu/arm/5.4.1/bin/../lib/gcc/arm-none-eabi/5.4.1/armv7-m\libgcc.a(_arm_addsubdf3.o)
 .ARM.attributes
                0x00000a99       0x1d c:/program files (x86)/cypress/psoc creator/4.4/psoc creator/import/gnu/arm/5.4.1/bin/../lib/gcc/arm-none-eabi/5.4.1/armv7-m\libgcc.a(_arm_muldivdf3.o)
 .ARM.attributes
                0x00000ab6       0x1d c:/program files (x86)/cypress/psoc creator/4.4/psoc creator/import/gnu/arm/5.4.1/bin/../lib/gcc/arm-none-eabi/5.4.1/armv7-m\libgcc.a(_arm_cmpdf2.o)
 .ARM.attributes
                0x00000ad3       0x1d c:/program files (x86)/cypress/psoc creator/4.4/psoc creator/import/gnu/arm/5.4.1/bin/../lib/gcc/arm-none-eabi/5.4.1/armv7-m\libgcc.a(_arm_truncdfsf2.o)
 .ARM.attributes
                0x00000af0       0x1d c:/program files (x86)/cypress/psoc creator/4.4/psoc creator/import/gnu/arm/5.4.1/bin/../lib/gcc/arm-none-eabi/5.4.1/armv7-m\libgcc.a(_arm_addsubsf3.o)
 .ARM.attributes
                0x00000b0d       0x1d c:/program files (x86)/cypress/psoc creator/4.4/psoc creator/import/gnu/arm/5.4.1/bin/../lib/gcc/arm-none-eabi/5.4.1/armv7-m\libgcc.a(_arm_muldivsf3.o)
 .ARM.attributes
                0x00000b2a       0x1d c:/program files (x86)/cypress/psoc creator/4.4/psoc creator/import/gnu/arm/5.4.1/bin/../lib/gcc/arm-none-eabi/5.4.1/armv7-m\libgcc.a(_arm_fixsfsi.o)
 .ARM.attributes
                0x00000b47       0x1d c:/program files (x86)/cypress/psoc creator/4.4/psoc creator/import/gnu/arm/5.4.1/bin/../lib/gcc/arm-none-eabi/5.4.1/armv7-m\libgcc.a(_arm_fixunssfsi.o)
 .ARM.attributes
                0x00000b64       0x2d c:/program files (x86)/cypress/psoc creator/4.4/psoc creator/import/gnu/arm/5.4.1/bin/../lib/gcc/arm-none-eabi/5.4.1/../../../../arm-none-eabi/lib/armv7-m\libg_nano.a(lib_a-errno.o)
 .ARM.attributes
                0x00000b91       0x2d c:/program files (x86)/cypress/psoc creator/4.4/psoc creator/import/gnu/arm/5.4.1/bin/../lib/gcc/arm-none-eabi/5.4.1/../../../../arm-none-eabi/lib/armv7-m\libg_nano.a(lib_a-exit.o)
 .ARM.attributes
                0x00000bbe       0x2d c:/program files (x86)/cypress/psoc creator/4.4/psoc creator/import/gnu/arm/5.4.1/bin/../lib/gcc/arm-none-eabi/5.4.1/../../../../arm-none-eabi/lib/armv7-m\libg_nano.a(lib_a-impure.o)
 .ARM.attributes
                0x00000beb       0x2d c:/program files (x86)/cypress/psoc creator/4.4/psoc creator/import/gnu/arm/5.4.1/bin/../lib/gcc/arm-none-eabi/5.4.1/../../../../arm-none-eabi/lib/armv7-m\libg_nano.a(lib_a-init.o)
 .ARM.attributes
                0x00000c18       0x2d c:/program files (x86)/cypress/psoc creator/4.4/psoc creator/import/gnu/arm/5.4.1/bin/../lib/gcc/arm-none-eabi/5.4.1/../../../../arm-none-eabi/lib/armv7-m\libg_nano.a(lib_a-memcpy-stub.o)
 .ARM.attributes
                0x00000c45       0x2d c:/program files (x86)/cypress/psoc creator/4.4/psoc creator/import/gnu/arm/5.4.1/bin/../lib/gcc/arm-none-eabi/5.4.1/../../../../arm-none-eabi/lib/armv7-m\libg_nano.a(lib_a-memset.o)
 .ARM.attributes
                0x00000c72       0x2d c:/program files (x86)/cypress/psoc creator/4.4/psoc creator/import/gnu/arm/5.4.1/bin/../lib/gcc/arm-none-eabi/5.4.1/../../../../arm-none-eabi/lib/armv7-m\libg_nano.a(lib_a-printf.o)
 .ARM.attributes
                0x00000c9f       0x2d c:/program files (x86)/cypress/psoc creator/4.4/psoc creator/import/gnu/arm/5.4.1/bin/../lib/gcc/arm-none-eabi/5.4.1/../../../../arm-none-eabi/lib/armv7-m\libg_nano.a(lib_a-findfp.o)
 .ARM.attributes
                0x00000ccc       0x2d c:/program files (x86)/cypress/psoc creator/4.4/psoc creator/import/gnu/arm/5.4.1/bin/../lib/gcc/arm-none-eabi/5.4.1/../../../../arm-none-eabi/lib/armv7-m\libg_nano.a(lib_a-fwalk.o)
 .ARM.attributes
                0x00000cf9       0x2d c:/program files (x86)/cypress/psoc creator/4.4/psoc creator/import/gnu/arm/5.4.1/bin/../lib/gcc/arm-none-eabi/5.4.1/../../../../arm-none-eabi/lib/armv7-m\libg_nano.a(lib_a-nano-mallocr.o)
 .ARM.attributes
                0x00000d26       0x2d c:/program files (x86)/cypress/psoc creator/4.4/psoc creator/import/gnu/arm/5.4.1/bin/../lib/gcc/arm-none-eabi/5.4.1/../../../../arm-none-eabi/lib/armv7-m\libg_nano.a(lib_a-nano-vfprintf.o)
 .ARM.attributes
                0x00000d53       0x2d c:/program files (x86)/cypress/psoc creator/4.4/psoc creator/import/gnu/arm/5.4.1/bin/../lib/gcc/arm-none-eabi/5.4.1/../../../../arm-none-eabi/lib/armv7-m\libg_nano.a(lib_a-nano-vfprintf_i.o)
 .ARM.attributes
                0x00000d80       0x2d c:/program files (x86)/cypress/psoc creator/4.4/psoc creator/import/gnu/arm/5.4.1/bin/../lib/gcc/arm-none-eabi/5.4.1/../../../../arm-none-eabi/lib/armv7-m\libg_nano.a(lib_a-sbrkr.o)
 .ARM.attributes
                0x00000dad       0x2d c:/program files (x86)/cypress/psoc creator/4.4/psoc creator/import/gnu/arm/5.4.1/bin/../lib/gcc/arm-none-eabi/5.4.1/../../../../arm-none-eabi/lib/armv7-m\libg_nano.a(lib_a-stdio.o)
 .ARM.attributes
                0x00000dda       0x2d c:/program files (x86)/cypress/psoc creator/4.4/psoc creator/import/gnu/arm/5.4.1/bin/../lib/gcc/arm-none-eabi/5.4.1/../../../../arm-none-eabi/lib/armv7-m\libg_nano.a(lib_a-wbuf.o)
 .ARM.attributes
                0x00000e07       0x2d c:/program files (x86)/cypress/psoc creator/4.4/psoc creator/import/gnu/arm/5.4.1/bin/../lib/gcc/arm-none-eabi/5.4.1/../../../../arm-none-eabi/lib/armv7-m\libg_nano.a(lib_a-writer.o)
 .ARM.attributes
                0x00000e34       0x2d c:/program files (x86)/cypress/psoc creator/4.4/psoc creator/import/gnu/arm/5.4.1/bin/../lib/gcc/arm-none-eabi/5.4.1/../../../../arm-none-eabi/lib/armv7-m\libg_nano.a(lib_a-wsetup.o)
 .ARM.attributes
                0x00000e61       0x2d c:/program files (x86)/cypress/psoc creator/4.4/psoc creator/import/gnu/arm/5.4.1/bin/../lib/gcc/arm-none-eabi/5.4.1/../../../../arm-none-eabi/lib/armv7-m\libg_nano.a(lib_a-closer.o)
 .ARM.attributes
                0x00000e8e       0x2d c:/program files (x86)/cypress/psoc creator/4.4/psoc creator/import/gnu/arm/5.4.1/bin/../lib/gcc/arm-none-eabi/5.4.1/../../../../arm-none-eabi/lib/armv7-m\libg_nano.a(lib_a-fflush.o)
 .ARM.attributes
                0x00000ebb       0x2d c:/program files (x86)/cypress/psoc creator/4.4/psoc creator/import/gnu/arm/5.4.1/bin/../lib/gcc/arm-none-eabi/5.4.1/../../../../arm-none-eabi/lib/armv7-m\libg_nano.a(lib_a-fvwrite.o)
 .ARM.attributes
                0x00000ee8       0x2d c:/program files (x86)/cypress/psoc creator/4.4/psoc creator/import/gnu/arm/5.4.1/bin/../lib/gcc/arm-none-eabi/5.4.1/../../../../arm-none-eabi/lib/armv7-m\libg_nano.a(lib_a-lseekr.o)
 .ARM.attributes
                0x00000f15       0x2d c:/program files (x86)/cypress/psoc creator/4.4/psoc creator/import/gnu/arm/5.4.1/bin/../lib/gcc/arm-none-eabi/5.4.1/../../../../arm-none-eabi/lib/armv7-m\libg_nano.a(lib_a-makebuf.o)
 .ARM.attributes
                0x00000f42       0x2d c:/program files (x86)/cypress/psoc creator/4.4/psoc creator/import/gnu/arm/5.4.1/bin/../lib/gcc/arm-none-eabi/5.4.1/../../../../arm-none-eabi/lib/armv7-m\libg_nano.a(lib_a-memchr-stub.o)
 .ARM.attributes
                0x00000f6f       0x2d c:/program files (x86)/cypress/psoc creator/4.4/psoc creator/import/gnu/arm/5.4.1/bin/../lib/gcc/arm-none-eabi/5.4.1/../../../../arm-none-eabi/lib/armv7-m\libg_nano.a(lib_a-memmove.o)
 .ARM.attributes
                0x00000f9c       0x2d c:/program files (x86)/cypress/psoc creator/4.4/psoc creator/import/gnu/arm/5.4.1/bin/../lib/gcc/arm-none-eabi/5.4.1/../../../../arm-none-eabi/lib/armv7-m\libg_nano.a(lib_a-mlock.o)
 .ARM.attributes
                0x00000fc9       0x2d c:/program files (x86)/cypress/psoc creator/4.4/psoc creator/import/gnu/arm/5.4.1/bin/../lib/gcc/arm-none-eabi/5.4.1/../../../../arm-none-eabi/lib/armv7-m\libg_nano.a(lib_a-nano-freer.o)
 .ARM.attributes
                0x00000ff6       0x2d c:/program files (x86)/cypress/psoc creator/4.4/psoc creator/import/gnu/arm/5.4.1/bin/../lib/gcc/arm-none-eabi/5.4.1/../../../../arm-none-eabi/lib/armv7-m\libg_nano.a(lib_a-nano-reallocr.o)
 .ARM.attributes
                0x00001023       0x2d c:/program files (x86)/cypress/psoc creator/4.4/psoc creator/import/gnu/arm/5.4.1/bin/../lib/gcc/arm-none-eabi/5.4.1/../../../../arm-none-eabi/lib/armv7-m\libg_nano.a(lib_a-readr.o)
 .ARM.attributes
                0x00001050       0x2d c:/program files (x86)/cypress/psoc creator/4.4/psoc creator/import/gnu/arm/5.4.1/bin/../lib/gcc/arm-none-eabi/5.4.1/../../../../arm-none-eabi/lib/armv7-m\libg_nano.a(lib_a-reent.o)
 .ARM.attributes
                0x0000107d       0x2d c:/program files (x86)/cypress/psoc creator/4.4/psoc creator/import/gnu/arm/5.4.1/bin/../lib/gcc/arm-none-eabi/5.4.1/../../../../arm-none-eabi/lib/armv7-m\libg_nano.a(lib_a-fstatr.o)
 .ARM.attributes
                0x000010aa       0x2d c:/program files (x86)/cypress/psoc creator/4.4/psoc creator/import/gnu/arm/5.4.1/bin/../lib/gcc/arm-none-eabi/5.4.1/../../../../arm-none-eabi/lib/armv7-m\libg_nano.a(lib_a-isattyr.o)
 .ARM.attributes
                0x000010d7       0x2d c:/program files (x86)/cypress/psoc creator/4.4/psoc creator/import/gnu/arm/5.4.1/bin/../lib/gcc/arm-none-eabi/5.4.1/../../../../arm-none-eabi/lib/armv7-m\libg_nano.a(lib_a-nano-msizer.o)
 .ARM.attributes
                0x00001104       0x2d c:/program files (x86)/cypress/psoc creator/4.4/psoc creator/import/gnu/arm/5.4.1/bin/../lib/gcc/arm-none-eabi/5.4.1/armv7-m/crtend.o
 .ARM.attributes
                0x00001131       0x1d c:/program files (x86)/cypress/psoc creator/4.4/psoc creator/import/gnu/arm/5.4.1/bin/../lib/gcc/arm-none-eabi/5.4.1/armv7-m/crtn.o
 .ARM.attributes
                0x0000114e       0x2d c:/program files (x86)/cypress/psoc creator/4.4/psoc creator/import/gnu/arm/5.4.1/bin/../lib/gcc/arm-none-eabi/5.4.1/../../../../arm-none-eabi/lib/armv7-m\libnosys.a(close.o)
 .ARM.attributes
                0x0000117b       0x2d c:/program files (x86)/cypress/psoc creator/4.4/psoc creator/import/gnu/arm/5.4.1/bin/../lib/gcc/arm-none-eabi/5.4.1/../../../../arm-none-eabi/lib/armv7-m\libnosys.a(fstat.o)
 .ARM.attributes
                0x000011a8       0x2d c:/program files (x86)/cypress/psoc creator/4.4/psoc creator/import/gnu/arm/5.4.1/bin/../lib/gcc/arm-none-eabi/5.4.1/../../../../arm-none-eabi/lib/armv7-m\libnosys.a(isatty.o)
 .ARM.attributes
                0x000011d5       0x2d c:/program files (x86)/cypress/psoc creator/4.4/psoc creator/import/gnu/arm/5.4.1/bin/../lib/gcc/arm-none-eabi/5.4.1/../../../../arm-none-eabi/lib/armv7-m\libnosys.a(lseek.o)
 .ARM.attributes
                0x00001202       0x2d c:/program files (x86)/cypress/psoc creator/4.4/psoc creator/import/gnu/arm/5.4.1/bin/../lib/gcc/arm-none-eabi/5.4.1/../../../../arm-none-eabi/lib/armv7-m\libnosys.a(read.o)
 .ARM.attributes
                0x0000122f       0x2d c:/program files (x86)/cypress/psoc creator/4.4/psoc creator/import/gnu/arm/5.4.1/bin/../lib/gcc/arm-none-eabi/5.4.1/../../../../arm-none-eabi/lib/armv7-m\libnosys.a(write.o)

/DISCARD/
 *(.note.GNU-stack)
OUTPUT(\\.psf\Home\Desktop\LAB_TEBS\_Progetto\TEBS_GitHub\PSoC_Project\PSoC_Project.cydsn\CortexM3\ARM_GCC_541\Debug\PSoC_Project.elf elf32-littlearm)
