ARM GAS  C:\Users\ANNASP~1\AppData\Local\Temp\cctwKfdT.s 			page 1


   1              		.syntax unified
   2              		.cpu cortex-m3
   3              		.fpu softvfp
   4              		.eabi_attribute 20, 1
   5              		.eabi_attribute 21, 1
   6              		.eabi_attribute 23, 3
   7              		.eabi_attribute 24, 1
   8              		.eabi_attribute 25, 1
   9              		.eabi_attribute 26, 1
  10              		.eabi_attribute 30, 1
  11              		.eabi_attribute 34, 1
  12              		.eabi_attribute 18, 4
  13              		.thumb
  14              		.syntax unified
  15              		.file	"TIA_calibrate.c"
  16              		.text
  17              	.Ltext0:
  18              		.cfi_sections	.debug_frame
  19              		.section	.text.Calibrate_Hardware_Wakeup,"ax",%progbits
  20              		.align	2
  21              		.thumb
  22              		.thumb_func
  23              		.type	Calibrate_Hardware_Wakeup, %function
  24              	Calibrate_Hardware_Wakeup:
  25              	.LFB66:
  26              		.file 1 "TIA_calibrate.c"
   1:TIA_calibrate.c **** /*******************************************************************************
   2:TIA_calibrate.c **** * File Name: calibrate.c
   3:TIA_calibrate.c **** *
   4:TIA_calibrate.c **** * Description:
   5:TIA_calibrate.c **** *  Protocols to calibrate the current measuring circuitry i.e. TIA / delta sigma ADC with an IDAC
   6:TIA_calibrate.c **** *
   7:TIA_calibrate.c **** **********************************************************************************
   8:TIA_calibrate.c ****  * Copyright Kyle Vitautas Lopin, Naresuan University, Phitsanulok Thailand
   9:TIA_calibrate.c ****  * Released under Creative Commons Attribution-ShareAlike  3.0 (CC BY-SA 3.0 US)
  10:TIA_calibrate.c **** *********************************************************************************/
  11:TIA_calibrate.c **** #include <project.h>
  12:TIA_calibrate.c **** #include "math.h"
  13:TIA_calibrate.c **** #include <stdio.h>
  14:TIA_calibrate.c **** #include "stdlib.h"
  15:TIA_calibrate.c **** 
  16:TIA_calibrate.c **** #include "TIA_calibrate.h"
  17:TIA_calibrate.c **** #include "BT_protocols.h"
  18:TIA_calibrate.c **** 
  19:TIA_calibrate.c **** //extern char LCD_str[];  // for debug
  20:TIA_calibrate.c **** const uint16_t calibrate_TIA_resistor_list[]= {20, 30, 40, 80, 120, 250, 500, 1000};
  21:TIA_calibrate.c **** uint16_t static ADC_value;
  22:TIA_calibrate.c **** 
  23:TIA_calibrate.c **** int16_t valore;
  24:TIA_calibrate.c **** int16_t valore_s;
  25:TIA_calibrate.c **** 
  26:TIA_calibrate.c **** /***************************************
  27:TIA_calibrate.c **** * Forward function references
  28:TIA_calibrate.c **** ***************************************/
  29:TIA_calibrate.c **** static void Calibrate_Hardware_Wakeup(void);
  30:TIA_calibrate.c **** static void calibrate_step(uint16_t IDAC_value, uint8 IDAC_index);
  31:TIA_calibrate.c **** static void Calibrate_Hardware_Sleep(void);
ARM GAS  C:\Users\ANNASP~1\AppData\Local\Temp\cctwKfdT.s 			page 2


  32:TIA_calibrate.c **** 
  33:TIA_calibrate.c **** /******************************************************************************
  34:TIA_calibrate.c **** * Function Name: calibrate_TIA
  35:TIA_calibrate.c **** *******************************************************************************
  36:TIA_calibrate.c **** *
  37:TIA_calibrate.c **** * Summary:
  38:TIA_calibrate.c **** *  Calibrate the TIA circuit each time the current gain settings are changed
  39:TIA_calibrate.c **** *
  40:TIA_calibrate.c **** * Global variables:
  41:TIA_calibrate.c **** *  uint8 TIA_resistor_value_index: index of which TIA resistor to use, Supplied by UART input
  42:TIA_calibrate.c **** *  uint8 ADC_buffer_index: which ADC buffer is used, gain = 2**ADC_buffer_index
  43:TIA_calibrate.c **** *
  44:TIA_calibrate.c **** * Return:
  45:TIA_calibrate.c **** *  array of 20 bytes is loaded into the USB IN ENDPOINT (into the computer)
  46:TIA_calibrate.c **** *
  47:TIA_calibrate.c **** *******************************************************************************/
  48:TIA_calibrate.c **** 
  49:TIA_calibrate.c **** void calibrate_TIA(uint8 TIA_resistor_value_index /*uint8 ADC_buffer_index -> this maybe remove*/) 
  50:TIA_calibrate.c ****     // The IDAC only 
  51:TIA_calibrate.c ****     IDAC_calibrate_Start();
  52:TIA_calibrate.c ****     IDAC_calibrate_SetValue(0);
  53:TIA_calibrate.c ****     // start the hardware required
  54:TIA_calibrate.c ****     Calibrate_Hardware_Wakeup();
  55:TIA_calibrate.c ****     CyDelay(100);
  56:TIA_calibrate.c ****     // decide what currents to use based on TIA resistor and ADC buffer settings
  57:TIA_calibrate.c ****     uint16_t resistor_value = calibrate_TIA_resistor_list[TIA_resistor_value_index];
  58:TIA_calibrate.c ****     //uint var = 2;
  59:TIA_calibrate.c ****     uint16_t IDAC_setting = 0;
  60:TIA_calibrate.c ****     
  61:TIA_calibrate.c ****     /* ADC_buffer_index management */
  62:TIA_calibrate.c **** //  uint8 ADC_buffer_value = pow(var, ADC_buffer_index); ** we are not giving the ADC_buffer_index 
  63:TIA_calibrate.c ****     uint8_t ADC_buffer_value =  2*1; // ADC_buffer_index = 1 
  64:TIA_calibrate.c ****     
  65:TIA_calibrate.c ****     // set input current to zero and read ADC
  66:TIA_calibrate.c ****     ADC_SigDel_StartConvert();
  67:TIA_calibrate.c ****     calibrate_step(IDAC_setting, 2);
  68:TIA_calibrate.c ****     // calculate the IDAC value needed to get a 1 Volt in the ADC
  69:TIA_calibrate.c ****     // the 8000 is because the IDAC has a 1/8 uA per bit and 8000=1000mV/(1/8 uA per bit)
  70:TIA_calibrate.c ****     float32 transfer = 8000./(ADC_buffer_value*resistor_value);
  71:TIA_calibrate.c ****     int transfer_int = (int) transfer;
  72:TIA_calibrate.c ****     if (transfer_int > 250) {  // the TIA needs too much current, reduce needs by half.  Is needed 
  73:TIA_calibrate.c ****         transfer_int /= 2;
  74:TIA_calibrate.c ****     }
  75:TIA_calibrate.c ****     //    LCD_Position(0,0);
  76:TIA_calibrate.c **** //    sprintf(LCD_str, "in:%d |%d| ", resistor_value, ADC_buffer_value);
  77:TIA_calibrate.c **** //    LCD_PrintString(LCD_str);
  78:TIA_calibrate.c ****     // is not DRY but not sure how to fix
  79:TIA_calibrate.c ****     IDAC_calibrate_SetPolarity(IDAC_calibrate_SINK);
  80:TIA_calibrate.c ****     calibrate_step(transfer_int, 0);
  81:TIA_calibrate.c ****     calibrate_step(transfer_int/2, 1);
  82:TIA_calibrate.c ****     IDAC_calibrate_SetPolarity(IDAC_calibrate_SOURCE);
  83:TIA_calibrate.c ****     calibrate_step(transfer_int/2, 3);
  84:TIA_calibrate.c ****     calibrate_step(transfer_int, 4);
  85:TIA_calibrate.c ****     IDAC_calibrate_SetValue(0);
  86:TIA_calibrate.c ****     Calibrate_Hardware_Sleep();
  87:TIA_calibrate.c ****     
  88:TIA_calibrate.c ****     
ARM GAS  C:\Users\ANNASP~1\AppData\Local\Temp\cctwKfdT.s 			page 3


  89:TIA_calibrate.c ****     /* regressione lineare per calcolare R (V = R*I + q)
  90:TIA_calibrate.c ****     float sum_x = 0, sum_x2 = 0, sum_xy = 0, sum_y = 0, R, q;
  91:TIA_calibrate.c ****     for(int i=0; i<Number_calibration_points; i++){
  92:TIA_calibrate.c ****         sum_x = sum_x + calibrate_array[i];
  93:TIA_calibrate.c ****         sum_x2 = sum_x2 + calibrate_array[i]*calibrate_array[i];
  94:TIA_calibrate.c ****         sum_y = calibrate_array[i+Number_calibration_points];
  95:TIA_calibrate.c ****         sum_xy = sum_xy + calibrate_array[i]*calibrate_array[i+Number_calibration_points]; 
  96:TIA_calibrate.c ****     }
  97:TIA_calibrate.c ****     
  98:TIA_calibrate.c ****     q = (Number_calibration_points*sum_xy - sum_x*sum_y)/(Number_calibration_points*sum_x2 - (sum_x
  99:TIA_calibrate.c ****     R = (sum_y - q*sum_x)/Number_calibration_points;
 100:TIA_calibrate.c ****     */
 101:TIA_calibrate.c ****     // dobbiamo mandarla alla GUI
 102:TIA_calibrate.c ****     if(connection_state){ //TIA_calibrate -- BT already connected
 103:TIA_calibrate.c ****         for(int i=0; i<Number_calibration_points*2; i++){
 104:TIA_calibrate.c ****             uint8_t LSB_data = calibrate_array[i] & 0xFF;
 105:TIA_calibrate.c ****             uint8_t MSB_data = calibrate_array[i] >> 8;
 106:TIA_calibrate.c ****             data_to_send[2*i+1] = MSB_data;
 107:TIA_calibrate.c ****             data_to_send[2*i+2] = LSB_data;
 108:TIA_calibrate.c ****         }
 109:TIA_calibrate.c ****         data_to_send[0] = TIA_SET; // header 
 110:TIA_calibrate.c ****         writeBT((Number_calibration_points*4)+1); 
 111:TIA_calibrate.c ****     } else { //TIA_initialize -- BT not connected
 112:TIA_calibrate.c ****         for(int i=0; i<Number_calibration_points*2; i++){
 113:TIA_calibrate.c ****             uint8_t LSB_data = calibrate_array[i] & 0xFF;
 114:TIA_calibrate.c ****             uint8_t MSB_data = calibrate_array[i] >> 8;
 115:TIA_calibrate.c ****             tia_calibration_values[2*i+1] = MSB_data;
 116:TIA_calibrate.c ****             tia_calibration_values[2*i+2] = LSB_data;
 117:TIA_calibrate.c ****         }
 118:TIA_calibrate.c ****         tia_calibration_values[0] = TIA_SET;
 119:TIA_calibrate.c ****     }
 120:TIA_calibrate.c ****     
 121:TIA_calibrate.c ****     // se necessario salvare localmente, salvare in EEPROM 
 122:TIA_calibrate.c ****   
 123:TIA_calibrate.c **** }
 124:TIA_calibrate.c **** 
 125:TIA_calibrate.c **** /******************************************************************************
 126:TIA_calibrate.c **** * Function Name: calibrate_step
 127:TIA_calibrate.c **** *******************************************************************************
 128:TIA_calibrate.c **** *
 129:TIA_calibrate.c **** * Summary:
 130:TIA_calibrate.c **** *  Gets a single calibration data point by setting the calibration IDAC and reading
 131:TIA_calibrate.c **** *  the ADC count and saving them in the calibration_array
 132:TIA_calibrate.c **** *
 133:TIA_calibrate.c **** * Parameters:
 134:TIA_calibrate.c **** *  uint16_t IDAC_value: value to set the calibration  IDAC to before measuring with the ADC
 135:TIA_calibrate.c **** *  uint8 IDAC_index: index of where in calibration_array to save the IDAC and ADC data
 136:TIA_calibrate.c **** *
 137:TIA_calibrate.c **** * Global variables:
 138:TIA_calibrate.c **** *  calibration_array: array of saved IDAC and ADC values
 139:TIA_calibrate.c **** *
 140:TIA_calibrate.c **** *******************************************************************************/
 141:TIA_calibrate.c **** 
 142:TIA_calibrate.c **** static void calibrate_step(uint16_t IDAC_value, uint8 IDAC_index) {
 143:TIA_calibrate.c ****     IDAC_calibrate_SetValue(IDAC_value);
 144:TIA_calibrate.c ****     CyDelay(100);  // allow the ADC to settle
 145:TIA_calibrate.c ****     ADC_value = ADC_SigDel_GetResult16(); //la funzione restituisce un int16, noi lo salviamo in un
ARM GAS  C:\Users\ANNASP~1\AppData\Local\Temp\cctwKfdT.s 			page 4


 146:TIA_calibrate.c ****     valore = ADC_SigDel_GetResult16();
 147:TIA_calibrate.c ****     valore_s = valore & 0x0FFF;
 148:TIA_calibrate.c ****     //calibrate_array.data[IDAC_index] = IDAC_value;
 149:TIA_calibrate.c ****     //calibrate_array.data[IDAC_index+5] = ADC_value;  // 5 because of the way the array is set up
 150:TIA_calibrate.c ****    
 151:TIA_calibrate.c ****     calibrate_array[IDAC_index] = IDAC_value;
 152:TIA_calibrate.c ****     calibrate_array[IDAC_index + Number_calibration_points] = ADC_value;
 153:TIA_calibrate.c ****     // visto che usiamo la UART salviamo i dati in un array, salviamo le correnti da posiz. 0 a 4 e
 154:TIA_calibrate.c **** }
 155:TIA_calibrate.c **** 
 156:TIA_calibrate.c **** /******************************************************************************
 157:TIA_calibrate.c **** * Function Name: Calibrate_Hardware_Wakeup
 158:TIA_calibrate.c **** *******************************************************************************
 159:TIA_calibrate.c **** *
 160:TIA_calibrate.c **** * Summary:
 161:TIA_calibrate.c **** *  Wakeup all the hardware needed for the calibration routine and set the AMux to 
 162:TIA_calibrate.c **** *  the correct channel
 163:TIA_calibrate.c **** *
 164:TIA_calibrate.c **** *******************************************************************************/
 165:TIA_calibrate.c **** 
 166:TIA_calibrate.c **** static void Calibrate_Hardware_Wakeup(void) {
  27              		.loc 1 166 0
  28              		.cfi_startproc
  29              		@ args = 0, pretend = 0, frame = 0
  30              		@ frame_needed = 0, uses_anonymous_args = 0
  31 0000 08B5     		push	{r3, lr}
  32              		.cfi_def_cfa_offset 8
  33              		.cfi_offset 3, -8
  34              		.cfi_offset 14, -4
 167:TIA_calibrate.c ****     AMux_TIA_input_Select(AMux_TIA_calibrat_ch);
  35              		.loc 1 167 0
  36 0002 0020     		movs	r0, #0
  37 0004 FFF7FEFF 		bl	AMux_TIA_input_Select
  38              	.LVL0:
 168:TIA_calibrate.c ****     TIA_Wakeup();
  39              		.loc 1 168 0
  40 0008 FFF7FEFF 		bl	TIA_Wakeup
  41              	.LVL1:
 169:TIA_calibrate.c ****     VDAC_TIA_Wakeup();
  42              		.loc 1 169 0
  43 000c FFF7FEFF 		bl	VDAC_TIA_Wakeup
  44              	.LVL2:
 170:TIA_calibrate.c ****     ADC_SigDel_Wakeup();
  45              		.loc 1 170 0
  46 0010 FFF7FEFF 		bl	ADC_SigDel_Wakeup
  47              	.LVL3:
  48 0014 08BD     		pop	{r3, pc}
  49              		.cfi_endproc
  50              	.LFE66:
  51              		.size	Calibrate_Hardware_Wakeup, .-Calibrate_Hardware_Wakeup
  52 0016 00BF     		.section	.text.calibrate_step,"ax",%progbits
  53              		.align	2
  54              		.thumb
  55              		.thumb_func
  56              		.type	calibrate_step, %function
  57              	calibrate_step:
  58              	.LFB65:
ARM GAS  C:\Users\ANNASP~1\AppData\Local\Temp\cctwKfdT.s 			page 5


 142:TIA_calibrate.c ****     IDAC_calibrate_SetValue(IDAC_value);
  59              		.loc 1 142 0
  60              		.cfi_startproc
  61              		@ args = 0, pretend = 0, frame = 0
  62              		@ frame_needed = 0, uses_anonymous_args = 0
  63              	.LVL4:
  64 0000 70B5     		push	{r4, r5, r6, lr}
  65              		.cfi_def_cfa_offset 16
  66              		.cfi_offset 4, -16
  67              		.cfi_offset 5, -12
  68              		.cfi_offset 6, -8
  69              		.cfi_offset 14, -4
  70 0002 0646     		mov	r6, r0
  71 0004 0C46     		mov	r4, r1
 143:TIA_calibrate.c ****     CyDelay(100);  // allow the ADC to settle
  72              		.loc 1 143 0
  73 0006 C0B2     		uxtb	r0, r0
  74              	.LVL5:
  75 0008 FFF7FEFF 		bl	IDAC_calibrate_SetValue
  76              	.LVL6:
 144:TIA_calibrate.c ****     ADC_value = ADC_SigDel_GetResult16(); //la funzione restituisce un int16, noi lo salviamo in un
  77              		.loc 1 144 0
  78 000c 6420     		movs	r0, #100
  79 000e FFF7FEFF 		bl	CyDelay
  80              	.LVL7:
 145:TIA_calibrate.c ****     valore = ADC_SigDel_GetResult16();
  81              		.loc 1 145 0
  82 0012 FFF7FEFF 		bl	ADC_SigDel_GetResult16
  83              	.LVL8:
  84 0016 094D     		ldr	r5, .L5
  85 0018 2880     		strh	r0, [r5]	@ movhi
 146:TIA_calibrate.c ****     valore_s = valore & 0x0FFF;
  86              		.loc 1 146 0
  87 001a FFF7FEFF 		bl	ADC_SigDel_GetResult16
  88              	.LVL9:
  89 001e 084B     		ldr	r3, .L5+4
  90 0020 1880     		strh	r0, [r3]	@ movhi
 147:TIA_calibrate.c ****     //calibrate_array.data[IDAC_index] = IDAC_value;
  91              		.loc 1 147 0
  92 0022 C0F30B00 		ubfx	r0, r0, #0, #12
  93 0026 074B     		ldr	r3, .L5+8
  94 0028 1880     		strh	r0, [r3]	@ movhi
 151:TIA_calibrate.c ****     calibrate_array[IDAC_index + Number_calibration_points] = ADC_value;
  95              		.loc 1 151 0
  96 002a 074B     		ldr	r3, .L5+12
  97 002c 23F81460 		strh	r6, [r3, r4, lsl #1]	@ movhi
 152:TIA_calibrate.c ****     // visto che usiamo la UART salviamo i dati in un array, salviamo le correnti da posiz. 0 a 4 e
  98              		.loc 1 152 0
  99 0030 0534     		adds	r4, r4, #5
 100 0032 2A88     		ldrh	r2, [r5]
 101 0034 23F81420 		strh	r2, [r3, r4, lsl #1]	@ movhi
 102 0038 70BD     		pop	{r4, r5, r6, pc}
 103              	.L6:
 104 003a 00BF     		.align	2
 105              	.L5:
 106 003c 00000000 		.word	.LANCHOR0
 107 0040 00000000 		.word	valore
ARM GAS  C:\Users\ANNASP~1\AppData\Local\Temp\cctwKfdT.s 			page 6


 108 0044 00000000 		.word	valore_s
 109 0048 00000000 		.word	calibrate_array
 110              		.cfi_endproc
 111              	.LFE65:
 112              		.size	calibrate_step, .-calibrate_step
 113              		.section	.text.Calibrate_Hardware_Sleep,"ax",%progbits
 114              		.align	2
 115              		.thumb
 116              		.thumb_func
 117              		.type	Calibrate_Hardware_Sleep, %function
 118              	Calibrate_Hardware_Sleep:
 119              	.LFB67:
 171:TIA_calibrate.c **** }
 172:TIA_calibrate.c **** 
 173:TIA_calibrate.c **** /******************************************************************************
 174:TIA_calibrate.c **** * Function Name: Calibrate_Hardware_Sleep
 175:TIA_calibrate.c **** *******************************************************************************
 176:TIA_calibrate.c **** *
 177:TIA_calibrate.c **** * Summary:
 178:TIA_calibrate.c **** *  Put to sleep all the hardware needed for the calibration routine, stop  
 179:TIA_calibrate.c **** *  the IDAC, and set the AMux to the correct channel
 180:TIA_calibrate.c **** *
 181:TIA_calibrate.c **** *******************************************************************************/
 182:TIA_calibrate.c **** 
 183:TIA_calibrate.c **** static void Calibrate_Hardware_Sleep(void) {
 120              		.loc 1 183 0
 121              		.cfi_startproc
 122              		@ args = 0, pretend = 0, frame = 0
 123              		@ frame_needed = 0, uses_anonymous_args = 0
 124 0000 08B5     		push	{r3, lr}
 125              		.cfi_def_cfa_offset 8
 126              		.cfi_offset 3, -8
 127              		.cfi_offset 14, -4
 184:TIA_calibrate.c ****     AMux_TIA_input_Select(AMux_TIA_measure_ch);
 128              		.loc 1 184 0
 129 0002 0120     		movs	r0, #1
 130 0004 FFF7FEFF 		bl	AMux_TIA_input_Select
 131              	.LVL10:
 185:TIA_calibrate.c ****     TIA_Sleep();
 132              		.loc 1 185 0
 133 0008 FFF7FEFF 		bl	TIA_Sleep
 134              	.LVL11:
 186:TIA_calibrate.c ****     VDAC_TIA_Sleep();
 135              		.loc 1 186 0
 136 000c FFF7FEFF 		bl	VDAC_TIA_Sleep
 137              	.LVL12:
 187:TIA_calibrate.c ****     ADC_SigDel_Sleep();
 138              		.loc 1 187 0
 139 0010 FFF7FEFF 		bl	ADC_SigDel_Sleep
 140              	.LVL13:
 188:TIA_calibrate.c ****     IDAC_calibrate_Stop();
 141              		.loc 1 188 0
 142 0014 FFF7FEFF 		bl	IDAC_calibrate_Stop
 143              	.LVL14:
 144 0018 08BD     		pop	{r3, pc}
 145              		.cfi_endproc
 146              	.LFE67:
ARM GAS  C:\Users\ANNASP~1\AppData\Local\Temp\cctwKfdT.s 			page 7


 147              		.size	Calibrate_Hardware_Sleep, .-Calibrate_Hardware_Sleep
 148              		.global	__aeabi_i2d
 149              		.global	__aeabi_ddiv
 150              		.global	__aeabi_d2f
 151              		.global	__aeabi_f2iz
 152 001a 00BF     		.section	.text.calibrate_TIA,"ax",%progbits
 153              		.align	2
 154              		.global	calibrate_TIA
 155              		.thumb
 156              		.thumb_func
 157              		.type	calibrate_TIA, %function
 158              	calibrate_TIA:
 159              	.LFB64:
  49:TIA_calibrate.c ****     // The IDAC only 
 160              		.loc 1 49 0
 161              		.cfi_startproc
 162              		@ args = 0, pretend = 0, frame = 0
 163              		@ frame_needed = 0, uses_anonymous_args = 0
 164              	.LVL15:
 165 0000 38B5     		push	{r3, r4, r5, lr}
 166              		.cfi_def_cfa_offset 16
 167              		.cfi_offset 3, -16
 168              		.cfi_offset 4, -12
 169              		.cfi_offset 5, -8
 170              		.cfi_offset 14, -4
 171 0002 0446     		mov	r4, r0
  51:TIA_calibrate.c ****     IDAC_calibrate_SetValue(0);
 172              		.loc 1 51 0
 173 0004 FFF7FEFF 		bl	IDAC_calibrate_Start
 174              	.LVL16:
  52:TIA_calibrate.c ****     // start the hardware required
 175              		.loc 1 52 0
 176 0008 0020     		movs	r0, #0
 177 000a FFF7FEFF 		bl	IDAC_calibrate_SetValue
 178              	.LVL17:
  54:TIA_calibrate.c ****     CyDelay(100);
 179              		.loc 1 54 0
 180 000e FFF7FEFF 		bl	Calibrate_Hardware_Wakeup
 181              	.LVL18:
  55:TIA_calibrate.c ****     // decide what currents to use based on TIA resistor and ADC buffer settings
 182              		.loc 1 55 0
 183 0012 6420     		movs	r0, #100
 184 0014 FFF7FEFF 		bl	CyDelay
 185              	.LVL19:
  57:TIA_calibrate.c ****     //uint var = 2;
 186              		.loc 1 57 0
 187 0018 354B     		ldr	r3, .L18
 188 001a 33F81440 		ldrh	r4, [r3, r4, lsl #1]
 189              	.LVL20:
  66:TIA_calibrate.c ****     calibrate_step(IDAC_setting, 2);
 190              		.loc 1 66 0
 191 001e FFF7FEFF 		bl	ADC_SigDel_StartConvert
 192              	.LVL21:
  67:TIA_calibrate.c ****     // calculate the IDAC value needed to get a 1 Volt in the ADC
 193              		.loc 1 67 0
 194 0022 0221     		movs	r1, #2
 195 0024 0020     		movs	r0, #0
ARM GAS  C:\Users\ANNASP~1\AppData\Local\Temp\cctwKfdT.s 			page 8


 196 0026 FFF7FEFF 		bl	calibrate_step
 197              	.LVL22:
  70:TIA_calibrate.c ****     int transfer_int = (int) transfer;
 198              		.loc 1 70 0
 199 002a 6000     		lsls	r0, r4, #1
 200 002c FFF7FEFF 		bl	__aeabi_i2d
 201              	.LVL23:
 202 0030 0246     		mov	r2, r0
 203 0032 0B46     		mov	r3, r1
 204 0034 0020     		movs	r0, #0
 205 0036 2F49     		ldr	r1, .L18+4
 206 0038 FFF7FEFF 		bl	__aeabi_ddiv
 207              	.LVL24:
 208 003c FFF7FEFF 		bl	__aeabi_d2f
 209              	.LVL25:
  71:TIA_calibrate.c ****     if (transfer_int > 250) {  // the TIA needs too much current, reduce needs by half.  Is needed 
 210              		.loc 1 71 0
 211 0040 FFF7FEFF 		bl	__aeabi_f2iz
 212              	.LVL26:
 213 0044 0446     		mov	r4, r0
 214              	.LVL27:
  72:TIA_calibrate.c ****         transfer_int /= 2;
 215              		.loc 1 72 0
 216 0046 FA28     		cmp	r0, #250
 217 0048 02DD     		ble	.L10
  73:TIA_calibrate.c ****     }
 218              		.loc 1 73 0
 219 004a 00EBD074 		add	r4, r0, r0, lsr #31
 220 004e 6410     		asrs	r4, r4, #1
 221              	.LVL28:
 222              	.L10:
  79:TIA_calibrate.c ****     calibrate_step(transfer_int, 0);
 223              		.loc 1 79 0
 224 0050 0420     		movs	r0, #4
 225 0052 FFF7FEFF 		bl	IDAC_calibrate_SetPolarity
 226              	.LVL29:
  80:TIA_calibrate.c ****     calibrate_step(transfer_int/2, 1);
 227              		.loc 1 80 0
 228 0056 A5B2     		uxth	r5, r4
 229 0058 0021     		movs	r1, #0
 230 005a 2846     		mov	r0, r5
 231 005c FFF7FEFF 		bl	calibrate_step
 232              	.LVL30:
  81:TIA_calibrate.c ****     IDAC_calibrate_SetPolarity(IDAC_calibrate_SOURCE);
 233              		.loc 1 81 0
 234 0060 04EBD474 		add	r4, r4, r4, lsr #31
 235              	.LVL31:
 236 0064 C4F34F04 		ubfx	r4, r4, #1, #16
 237 0068 0121     		movs	r1, #1
 238 006a 2046     		mov	r0, r4
 239 006c FFF7FEFF 		bl	calibrate_step
 240              	.LVL32:
  82:TIA_calibrate.c ****     calibrate_step(transfer_int/2, 3);
 241              		.loc 1 82 0
 242 0070 0020     		movs	r0, #0
 243 0072 FFF7FEFF 		bl	IDAC_calibrate_SetPolarity
 244              	.LVL33:
ARM GAS  C:\Users\ANNASP~1\AppData\Local\Temp\cctwKfdT.s 			page 9


  83:TIA_calibrate.c ****     calibrate_step(transfer_int, 4);
 245              		.loc 1 83 0
 246 0076 0321     		movs	r1, #3
 247 0078 2046     		mov	r0, r4
 248 007a FFF7FEFF 		bl	calibrate_step
 249              	.LVL34:
  84:TIA_calibrate.c ****     IDAC_calibrate_SetValue(0);
 250              		.loc 1 84 0
 251 007e 0421     		movs	r1, #4
 252 0080 2846     		mov	r0, r5
 253 0082 FFF7FEFF 		bl	calibrate_step
 254              	.LVL35:
  85:TIA_calibrate.c ****     Calibrate_Hardware_Sleep();
 255              		.loc 1 85 0
 256 0086 0020     		movs	r0, #0
 257 0088 FFF7FEFF 		bl	IDAC_calibrate_SetValue
 258              	.LVL36:
  86:TIA_calibrate.c ****     
 259              		.loc 1 86 0
 260 008c FFF7FEFF 		bl	Calibrate_Hardware_Sleep
 261              	.LVL37:
 102:TIA_calibrate.c ****         for(int i=0; i<Number_calibration_points*2; i++){
 262              		.loc 1 102 0
 263 0090 194B     		ldr	r3, .L18+8
 264 0092 9B78     		ldrb	r3, [r3, #2]	@ zero_extendqisi2
 265 0094 13F0FF0F 		tst	r3, #255
 266 0098 0ED1     		bne	.L16
 267 009a 0023     		movs	r3, #0
 268 009c 21E0     		b	.L12
 269              	.LVL38:
 270              	.L13:
 271              	.LBB2:
 272              	.LBB3:
 104:TIA_calibrate.c ****             uint8_t MSB_data = calibrate_array[i] >> 8;
 273              		.loc 1 104 0 discriminator 3
 274 009e 174A     		ldr	r2, .L18+12
 275 00a0 32F81320 		ldrh	r2, [r2, r3, lsl #1]
 276 00a4 D4B2     		uxtb	r4, r2
 277              	.LVL39:
 105:TIA_calibrate.c ****             data_to_send[2*i+1] = MSB_data;
 278              		.loc 1 105 0 discriminator 3
 279 00a6 120A     		lsrs	r2, r2, #8
 280              	.LVL40:
 106:TIA_calibrate.c ****             data_to_send[2*i+2] = LSB_data;
 281              		.loc 1 106 0 discriminator 3
 282 00a8 5900     		lsls	r1, r3, #1
 283 00aa 0131     		adds	r1, r1, #1
 284 00ac 1448     		ldr	r0, .L18+16
 285 00ae 4254     		strb	r2, [r0, r1]
 107:TIA_calibrate.c ****         }
 286              		.loc 1 107 0 discriminator 3
 287 00b0 0133     		adds	r3, r3, #1
 288              	.LVL41:
 289 00b2 00F81340 		strb	r4, [r0, r3, lsl #1]
 290              	.LVL42:
 291 00b6 00E0     		b	.L11
 292              	.LVL43:
ARM GAS  C:\Users\ANNASP~1\AppData\Local\Temp\cctwKfdT.s 			page 10


 293              	.L16:
 294              	.LBE3:
 295              	.LBE2:
 296 00b8 0023     		movs	r3, #0
 297              	.L11:
 298              	.LVL44:
 299              	.LBB4:
 103:TIA_calibrate.c ****             uint8_t LSB_data = calibrate_array[i] & 0xFF;
 300              		.loc 1 103 0 discriminator 1
 301 00ba 092B     		cmp	r3, #9
 302 00bc EFDD     		ble	.L13
 303              	.LBE4:
 109:TIA_calibrate.c ****         writeBT((Number_calibration_points*4)+1); 
 304              		.loc 1 109 0
 305 00be 4122     		movs	r2, #65
 306 00c0 0F4B     		ldr	r3, .L18+16
 307              	.LVL45:
 308 00c2 1A70     		strb	r2, [r3]
 110:TIA_calibrate.c ****     } else { //TIA_initialize -- BT not connected
 309              		.loc 1 110 0
 310 00c4 1520     		movs	r0, #21
 311 00c6 FFF7FEFF 		bl	writeBT
 312              	.LVL46:
 313 00ca 38BD     		pop	{r3, r4, r5, pc}
 314              	.LVL47:
 315              	.L15:
 316              	.LBB5:
 317              	.LBB6:
 113:TIA_calibrate.c ****             uint8_t MSB_data = calibrate_array[i] >> 8;
 318              		.loc 1 113 0 discriminator 3
 319 00cc 0B4A     		ldr	r2, .L18+12
 320 00ce 32F81300 		ldrh	r0, [r2, r3, lsl #1]
 321              	.LVL48:
 114:TIA_calibrate.c ****             tia_calibration_values[2*i+1] = MSB_data;
 322              		.loc 1 114 0 discriminator 3
 323 00d2 040A     		lsrs	r4, r0, #8
 324              	.LVL49:
 115:TIA_calibrate.c ****             tia_calibration_values[2*i+2] = LSB_data;
 325              		.loc 1 115 0 discriminator 3
 326 00d4 5A00     		lsls	r2, r3, #1
 327 00d6 0132     		adds	r2, r2, #1
 328 00d8 0A49     		ldr	r1, .L18+20
 329 00da 8C54     		strb	r4, [r1, r2]
 116:TIA_calibrate.c ****         }
 330              		.loc 1 116 0 discriminator 3
 331 00dc 0133     		adds	r3, r3, #1
 332              	.LVL50:
 333 00de 01F81300 		strb	r0, [r1, r3, lsl #1]
 334              	.LVL51:
 335              	.L12:
 336              	.LBE6:
 112:TIA_calibrate.c ****             uint8_t LSB_data = calibrate_array[i] & 0xFF;
 337              		.loc 1 112 0 discriminator 1
 338 00e2 092B     		cmp	r3, #9
 339 00e4 F2DD     		ble	.L15
 340              	.LBE5:
 118:TIA_calibrate.c ****     }
ARM GAS  C:\Users\ANNASP~1\AppData\Local\Temp\cctwKfdT.s 			page 11


 341              		.loc 1 118 0
 342 00e6 4122     		movs	r2, #65
 343 00e8 064B     		ldr	r3, .L18+20
 344              	.LVL52:
 345 00ea 1A70     		strb	r2, [r3]
 346 00ec 38BD     		pop	{r3, r4, r5, pc}
 347              	.L19:
 348 00ee 00BF     		.align	2
 349              	.L18:
 350 00f0 00000000 		.word	.LANCHOR1
 351 00f4 0040BF40 		.word	1086275584
 352 00f8 00000000 		.word	.LANCHOR0
 353 00fc 00000000 		.word	calibrate_array
 354 0100 00000000 		.word	data_to_send
 355 0104 00000000 		.word	tia_calibration_values
 356              		.cfi_endproc
 357              	.LFE64:
 358              		.size	calibrate_TIA, .-calibrate_TIA
 359              		.comm	valore_s,2,2
 360              		.comm	valore,2,2
 361              		.global	calibrate_TIA_resistor_list
 362              		.comm	TIA_resistor_value_index,1,1
 363              		.comm	calibrate_array,20,4
 364              		.comm	finished_procedure_flag,1,1
 365              		.comm	data_long,5000,4
 366              		.comm	data_to_send,120,4
 367              		.comm	temp,20,4
 368              		.comm	data_buffer,20,4
 369              		.comm	selected_voltage_source,1,1
 370              		.comm	tia_calibration_values,21,4
 371              		.comm	lut_length,2,2
 372              		.comm	lut_index,2,2
 373              		.comm	waveform_lut,10010,4
 374              		.comm	lut_value,2,2
 375              		.comm	return_value,4,4
 376              		.comm	dac_ground_value,2,2
 377              		.section	.rodata
 378              		.align	2
 379              		.set	.LANCHOR1,. + 0
 380              		.type	calibrate_TIA_resistor_list, %object
 381              		.size	calibrate_TIA_resistor_list, 16
 382              	calibrate_TIA_resistor_list:
 383 0000 1400     		.short	20
 384 0002 1E00     		.short	30
 385 0004 2800     		.short	40
 386 0006 5000     		.short	80
 387 0008 7800     		.short	120
 388 000a FA00     		.short	250
 389 000c F401     		.short	500
 390 000e E803     		.short	1000
 391              		.bss
 392              		.align	1
 393              		.set	.LANCHOR0,. + 0
 394              		.type	ADC_value, %object
 395              		.size	ADC_value, 2
 396              	ADC_value:
 397 0000 0000     		.space	2
ARM GAS  C:\Users\ANNASP~1\AppData\Local\Temp\cctwKfdT.s 			page 12


 398              		.type	connection_state, %object
 399              		.size	connection_state, 1
 400              	connection_state:
 401 0002 00       		.space	1
 402              		.type	input_flag, %object
 403              		.size	input_flag, 1
 404              	input_flag:
 405 0003 00       		.space	1
 406              		.type	buffer_index, %object
 407              		.size	buffer_index, 1
 408              	buffer_index:
 409 0004 00       		.space	1
 410              		.text
 411              	.Letext0:
 412              		.file 2 "c:\\program files (x86)\\cypress\\psoc creator\\4.4\\psoc creator\\import\\gnu\\arm\\5.4.
 413              		.file 3 "c:\\program files (x86)\\cypress\\psoc creator\\4.4\\psoc creator\\import\\gnu\\arm\\5.4.
 414              		.file 4 "Generated_Source\\PSoC5/cytypes.h"
 415              		.file 5 "globals.h"
 416              		.file 6 "Generated_Source\\PSoC5/core_cm3.h"
 417              		.file 7 "BT_protocols.h"
 418              		.file 8 "TIA_calibrate.h"
 419              		.file 9 "Generated_Source\\PSoC5/AMux_TIA_input.h"
 420              		.file 10 "Generated_Source\\PSoC5/TIA.h"
 421              		.file 11 "Generated_Source\\PSoC5/VDAC_TIA.h"
 422              		.file 12 "Generated_Source\\PSoC5/ADC_SigDel.h"
 423              		.file 13 "Generated_Source\\PSoC5/IDAC_calibrate.h"
 424              		.file 14 "Generated_Source\\PSoC5/CyLib.h"