ARM GAS  C:\Users\ANNASP~1\AppData\Local\Temp\ccNxsOvN.s 			page 1


   1              		.syntax unified
   2              		.cpu cortex-m3
   3              		.fpu softvfp
   4              		.eabi_attribute 20, 1
   5              		.eabi_attribute 21, 1
   6              		.eabi_attribute 23, 3
   7              		.eabi_attribute 24, 1
   8              		.eabi_attribute 25, 1
   9              		.eabi_attribute 26, 1
  10              		.eabi_attribute 30, 1
  11              		.eabi_attribute 34, 1
  12              		.eabi_attribute 18, 4
  13              		.thumb
  14              		.syntax unified
  15              		.file	"user_inputs.c"
  16              		.text
  17              	.Ltext0:
  18              		.cfi_sections	.debug_frame
  19              		.section	.text.user_setup_TIA_ADC,"ax",%progbits
  20              		.align	2
  21              		.global	user_setup_TIA_ADC
  22              		.thumb
  23              		.thumb_func
  24              		.type	user_setup_TIA_ADC, %function
  25              	user_setup_TIA_ADC:
  26              	.LFB64:
  27              		.file 1 "user_inputs.c"
   1:user_inputs.c **** /*******************************************************************************
   2:user_inputs.c **** * File Name: user_selections.c
   3:user_inputs.c **** *
   4:user_inputs.c **** * Description:
   5:user_inputs.c **** *  Make some of functions the user can call through the USB. 
   6:user_inputs.c **** *  Only for the longer functions to keep main clearer
   7:user_inputs.c **** *
   8:user_inputs.c **** **********************************************************************************
   9:user_inputs.c ****  * Copyright Kyle Vitautas Lopin, Naresuan University, Phitsanulok Thailand
  10:user_inputs.c ****  * Released under Creative Commons Attribution-ShareAlike  3.0 (CC BY-SA 3.0 US)
  11:user_inputs.c **** *********************************************************************************/
  12:user_inputs.c **** 
  13:user_inputs.c **** #include <project.h>
  14:user_inputs.c **** #include "stdio.h"  // gets rid of the type errors
  15:user_inputs.c **** 
  16:user_inputs.c **** #include "user_inputs.h"
  17:user_inputs.c **** 
  18:user_inputs.c **** 
  19:user_inputs.c **** /******************************************************************************
  20:user_inputs.c **** * Function Name: user_setup_TIA_ADC
  21:user_inputs.c **** *******************************************************************************
  22:user_inputs.c **** *
  23:user_inputs.c **** * Summary:
  24:user_inputs.c **** *  Set up the TIA and ADC circuit by changing the TIA resistor value, the ADC gain
  25:user_inputs.c **** *    setup if the user wants to use an external resistor
  26:user_inputs.c **** *  Parameters:
  27:user_inputs.c **** *  uint8 data_buffer[]: array of chars with the parameters to set the adc and tia components
  28:user_inputs.c **** *  input is A|U|X|Y|Z|W: where 
  29:user_inputs.c **** *  U is ADC configuration to use where config 1 uses a Vref of +-2.048 V and config 2 uses +-1.024 
  30:user_inputs.c **** *  X - the TIA resistor value index, a string between 0-7 that sets the TIA resisot value
ARM GAS  C:\Users\ANNASP~1\AppData\Local\Temp\ccNxsOvN.s 			page 2


  31:user_inputs.c **** *  Y - the adc buffer gain setting
  32:user_inputs.c **** *  Z - T or F for if an external resistor is to be used and the AMux_working_electrode should be se
  33:user_inputs.c **** *  W - 0 or 1 for which user resistor should be selected by AMux_working_electrode
  34:user_inputs.c **** *  
  35:user_inputs.c **** * Global variables: - found in calibrate.h and used by calibrate.c
  36:user_inputs.c **** *  uint8 TIA_resistor_value_index: index of whick TIA resistor to use, Supplied by USB input
  37:user_inputs.c **** *  uint8 ADC_buffer_index: which ADC buffer is used, gain = 2**ADC_buffer_index
  38:user_inputs.c **** *
  39:user_inputs.c **** * Return:
  40:user_inputs.c **** *  array of 20 bytes is loaded into the USB in endpoint (into the computer)
  41:user_inputs.c **** *
  42:user_inputs.c **** *******************************************************************************/
  43:user_inputs.c **** 
  44:user_inputs.c **** void user_setup_TIA_ADC(volatile uint8_t data_buffer[]) {
  28              		.loc 1 44 0
  29              		.cfi_startproc
  30              		@ args = 0, pretend = 0, frame = 0
  31              		@ frame_needed = 0, uses_anonymous_args = 0
  32              	.LVL0:
  33 0000 08B5     		push	{r3, lr}
  34              		.cfi_def_cfa_offset 8
  35              		.cfi_offset 3, -8
  36              		.cfi_offset 14, -4
  45:user_inputs.c ****     //const uint16_t calibrate_TIA_resistor_list[]= {20, 30, 40, 80, 120, 250, 500, 1000};
  46:user_inputs.c ****     
  47:user_inputs.c ****     TIA_resistor_value_index = data_buffer[2];
  37              		.loc 1 47 0
  38 0002 8078     		ldrb	r0, [r0, #2]	@ zero_extendqisi2
  39              	.LVL1:
  40 0004 C0B2     		uxtb	r0, r0
  41 0006 034B     		ldr	r3, .L4
  42 0008 1870     		strb	r0, [r3]
  48:user_inputs.c ****     if (TIA_resistor_value_index >= 0 && TIA_resistor_value_index <= 7) {
  43              		.loc 1 48 0
  44 000a 0728     		cmp	r0, #7
  45 000c 01D8     		bhi	.L1
  49:user_inputs.c ****         TIA_SetResFB(TIA_resistor_value_index);  // see TIA.h for how the values work, basically 0 
  46              		.loc 1 49 0
  47 000e FFF7FEFF 		bl	TIA_SetResFB
  48              	.LVL2:
  49              	.L1:
  50 0012 08BD     		pop	{r3, pc}
  51              	.L5:
  52              		.align	2
  53              	.L4:
  54 0014 00000000 		.word	TIA_resistor_value_index
  55              		.cfi_endproc
  56              	.LFE64:
  57              		.size	user_setup_TIA_ADC, .-user_setup_TIA_ADC
  58              		.section	.text.user_voltage_source_funcs,"ax",%progbits
  59              		.align	2
  60              		.global	user_voltage_source_funcs
  61              		.thumb
  62              		.thumb_func
  63              		.type	user_voltage_source_funcs, %function
  64              	user_voltage_source_funcs:
  65              	.LFB65:
ARM GAS  C:\Users\ANNASP~1\AppData\Local\Temp\ccNxsOvN.s 			page 3


  50:user_inputs.c ****     }
  51:user_inputs.c ****     
  52:user_inputs.c ****     // I'M LEAVING ONKY THE OPTION TO CHANGE THE TIA RESISTOR, not the ADC configuration and the ex
  53:user_inputs.c ****     // they are still here, can be added later 
  54:user_inputs.c ****     
  55:user_inputs.c ****     /*uint8_t adc_config = data_buffer[2];
  56:user_inputs.c ****     if (adc_config == 1 || adc_config == 2) {
  57:user_inputs.c ****         ADC_SigDel_SelectConfiguration(adc_config, DO_NOT_RESTART_ADC); 
  58:user_inputs.c ****     }
  59:user_inputs.c ****     
  60:user_inputs.c ****     ADC_buffer_index = data_buffer[6]-'0';
  61:user_inputs.c ****     if (ADC_buffer_index >= 0 || ADC_buffer_index <= 3) { //se l'utente non usa R ext, manda 0 in a
  62:user_inputs.c ****         ADC_SigDel_SetBufferGain(ADC_buffer_index); 
  63:user_inputs.c ****     }
  64:user_inputs.c ****     if (data_buffer[8] == 'T') {
  65:user_inputs.c ****         tia_mux.use_extra_resistor = true;
  66:user_inputs.c ****         tia_mux.user_channel = data_buffer[10]-'0';  // not used yet, forse da togliere
  67:user_inputs.c ****         data_buffer[8] = 0;
  68:user_inputs.c ****         AMux_TIA_resistor_bypass_Connect(0);
  69:user_inputs.c ****     }
  70:user_inputs.c ****     else {
  71:user_inputs.c ****         AMux_TIA_resistor_bypass_Disconnect(0);
  72:user_inputs.c ****     }*/
  73:user_inputs.c **** }
  74:user_inputs.c **** 
  75:user_inputs.c **** /******************************************************************************
  76:user_inputs.c **** * Function Name: user_voltage_source_funcs
  77:user_inputs.c **** *******************************************************************************
  78:user_inputs.c **** *
  79:user_inputs.c **** * Summary:
  80:user_inputs.c **** *  Check if the user wants to read what type of DAC is to be used or the user can set the DAC to be
  81:user_inputs.c **** 
  82:user_inputs.c **** * Parameters:
  83:user_inputs.c **** *  uint8 data_buffer[]: array of chars used to setup the DAC or to read the DAC settings
  84:user_inputs.c **** *  input is VXY: where X is either 'R' or 'S' for read or set
  85:user_inputs.c **** *  Y is '0' or '1'
  86:user_inputs.c **** *
  87:user_inputs.c **** * Return:
  88:user_inputs.c **** *  export the DAC information to the USB, or set the DAC source depending on user input
  89:user_inputs.c **** *
  90:user_inputs.c **** *******************************************************************************/
  91:user_inputs.c **** 
  92:user_inputs.c **** void user_voltage_source_funcs(uint8_t data_buffer[]) {
  66              		.loc 1 92 0
  67              		.cfi_startproc
  68              		@ args = 0, pretend = 0, frame = 0
  69              		@ frame_needed = 0, uses_anonymous_args = 0
  70              	.LVL3:
  71 0000 10B5     		push	{r4, lr}
  72              		.cfi_def_cfa_offset 8
  73              		.cfi_offset 4, -8
  74              		.cfi_offset 14, -4
  93:user_inputs.c ****     if (data_buffer[1] == 'R') {  // User wants to read status of VDAC, forse da togliere
  75              		.loc 1 93 0
  76 0002 4378     		ldrb	r3, [r0, #1]	@ zero_extendqisi2
  77 0004 522B     		cmp	r3, #82
  78 0006 09D1     		bne	.L7
ARM GAS  C:\Users\ANNASP~1\AppData\Local\Temp\ccNxsOvN.s 			page 4


  94:user_inputs.c ****         data_to_send[0] = WHICH_DAC_IS_SET;
  79              		.loc 1 94 0
  80 0008 094C     		ldr	r4, .L10
  81 000a 5323     		movs	r3, #83
  82 000c 2370     		strb	r3, [r4]
  95:user_inputs.c ****         data_to_send[1] = helper_check_voltage_source();
  83              		.loc 1 95 0
  84 000e FFF7FEFF 		bl	helper_check_voltage_source
  85              	.LVL4:
  86 0012 6070     		strb	r0, [r4, #1]
  96:user_inputs.c ****         writeBT(PARAMS_SENDING_SIZE);
  87              		.loc 1 96 0
  88 0014 0220     		movs	r0, #2
  89 0016 FFF7FEFF 		bl	writeBT
  90              	.LVL5:
  91 001a 10BD     		pop	{r4, pc}
  92              	.LVL6:
  93              	.L7:
  97:user_inputs.c ****     }
  98:user_inputs.c ****     else if (data_buffer[1] == 'S') {  // User wants to set the voltage source
  94              		.loc 1 98 0
  95 001c 532B     		cmp	r3, #83
  96 001e 06D1     		bne	.L6
  99:user_inputs.c ****         helper_set_voltage_source(data_buffer[2]);
  97              		.loc 1 99 0
  98 0020 8078     		ldrb	r0, [r0, #2]	@ zero_extendqisi2
  99              	.LVL7:
 100 0022 FFF7FEFF 		bl	helper_set_voltage_source
 101              	.LVL8:
 100:user_inputs.c ****         DAC_Start();
 102              		.loc 1 100 0
 103 0026 FFF7FEFF 		bl	DAC_Start
 104              	.LVL9:
 101:user_inputs.c ****         DAC_Sleep();
 105              		.loc 1 101 0
 106 002a FFF7FEFF 		bl	DAC_Sleep
 107              	.LVL10:
 108              	.L6:
 109 002e 10BD     		pop	{r4, pc}
 110              	.L11:
 111              		.align	2
 112              	.L10:
 113 0030 00000000 		.word	data_to_send
 114              		.cfi_endproc
 115              	.LFE65:
 116              		.size	user_voltage_source_funcs, .-user_voltage_source_funcs
 117              		.section	.text.user_run_procedure,"ax",%progbits
 118              		.align	2
 119              		.global	user_run_procedure
 120              		.thumb
 121              		.thumb_func
 122              		.type	user_run_procedure, %function
 123              	user_run_procedure:
 124              	.LFB66:
 102:user_inputs.c ****     }
 103:user_inputs.c **** }
 104:user_inputs.c **** 
ARM GAS  C:\Users\ANNASP~1\AppData\Local\Temp\ccNxsOvN.s 			page 5


 105:user_inputs.c **** /******************************************************************************
 106:user_inputs.c **** * Function Name: user_run_procedure
 107:user_inputs.c **** *******************************************************************************
 108:user_inputs.c **** *
 109:user_inputs.c **** * Summary:
 110:user_inputs.c **** *  Start a cyclic voltammetry experiment.  The look up table in waveform_lut should
 111:user_inputs.c **** *  already be created.  If the dac isr is already running this will not start and throws
 112:user_inputs.c **** *  and error through the USB.  
 113:user_inputs.c **** *  
 114:user_inputs.c **** * Global variables:
 115:user_inputs.c **** *  uint16_t lut_value: value gotten from the look up table that is to be applied to the DAC
 116:user_inputs.c **** *  uint16_t lut_index: current index of the look up table
 117:user_inputs.c **** *  uint16_t waveform_lut[]:  look up table of the waveform to apply to the DAC
 118:user_inputs.c **** *
 119:user_inputs.c **** * Parameters:
 120:user_inputs.c **** *  None
 121:user_inputs.c **** *
 122:user_inputs.c **** * Return:
 123:user_inputs.c **** *  Starts the isr's used to perform an experiment else if the dac is already running,
 124:user_inputs.c **** *  possibly because another experiment is already running, return an error through the USB
 125:user_inputs.c **** *
 126:user_inputs.c **** *******************************************************************************/
 127:user_inputs.c **** 
 128:user_inputs.c **** void user_run_procedure(void){
 125              		.loc 1 128 0
 126              		.cfi_startproc
 127              		@ args = 0, pretend = 0, frame = 0
 128              		@ frame_needed = 0, uses_anonymous_args = 0
 129 0000 38B5     		push	{r3, r4, r5, lr}
 130              		.cfi_def_cfa_offset 16
 131              		.cfi_offset 3, -16
 132              		.cfi_offset 4, -12
 133              		.cfi_offset 5, -8
 134              		.cfi_offset 14, -4
 129:user_inputs.c ****     helper_HardwareWakeup(); 
 135              		.loc 1 129 0
 136 0002 FFF7FEFF 		bl	helper_HardwareWakeup
 137              	.LVL11:
 130:user_inputs.c ****     if (!isr_dac_GetState()){  // enable the dac isr if it isnt already enabled
 138              		.loc 1 130 0
 139 0006 FFF7FEFF 		bl	isr_dac_GetState
 140              	.LVL12:
 141 000a 58BB     		cbnz	r0, .L12
 142              	.LBB2:
 131:user_inputs.c ****         if (isr_adcAmp_GetState()) {  // User has started cyclic voltammetry while amp is already r
 143              		.loc 1 131 0
 144 000c FFF7FEFF 		bl	isr_adcAmp_GetState
 145              	.LVL13:
 146 0010 08B1     		cbz	r0, .L14
 132:user_inputs.c ****             isr_adcAmp_Disable();
 147              		.loc 1 132 0
 148 0012 FFF7FEFF 		bl	isr_adcAmp_Disable
 149              	.LVL14:
 150              	.L14:
 133:user_inputs.c ****         }
 134:user_inputs.c ****         lut_index = 0;  // start at the beginning of the look up table
 151              		.loc 1 134 0
ARM GAS  C:\Users\ANNASP~1\AppData\Local\Temp\ccNxsOvN.s 			page 6


 152 0016 144C     		ldr	r4, .L16
 153 0018 0023     		movs	r3, #0
 154 001a 2380     		strh	r3, [r4]	@ movhi
 135:user_inputs.c ****         lut_value = waveform_lut[0];
 155              		.loc 1 135 0
 156 001c 134B     		ldr	r3, .L16+4
 157 001e 1B88     		ldrh	r3, [r3]
 158 0020 134D     		ldr	r5, .L16+8
 159 0022 2B80     		strh	r3, [r5]	@ movhi
 136:user_inputs.c ****         
 137:user_inputs.c ****         
 138:user_inputs.c ****         helper_HardwareWakeup();  // start the hardware
 160              		.loc 1 138 0
 161 0024 FFF7FEFF 		bl	helper_HardwareWakeup
 162              	.LVL15:
 139:user_inputs.c ****         Opamp_Aux_Start(); 
 163              		.loc 1 139 0
 164 0028 FFF7FEFF 		bl	Opamp_Aux_Start
 165              	.LVL16:
 140:user_inputs.c ****         ADC_SigDel_Start(); 
 166              		.loc 1 140 0
 167 002c FFF7FEFF 		bl	ADC_SigDel_Start
 168              	.LVL17:
 141:user_inputs.c ****         
 142:user_inputs.c ****         DAC_SetValue(lut_value);  // let the electrode equilibriate
 169              		.loc 1 142 0
 170 0030 2888     		ldrh	r0, [r5]
 171 0032 FFF7FEFF 		bl	DAC_SetValue
 172              	.LVL18:
 143:user_inputs.c ****         CyDelay(20);  // let the electrode voltage settle
 173              		.loc 1 143 0
 174 0036 1420     		movs	r0, #20
 175 0038 FFF7FEFF 		bl	CyDelay
 176              	.LVL19:
 144:user_inputs.c ****         ADC_SigDel_StartConvert();  // start the converstion process of the delta sigma adc so it w
 177              		.loc 1 144 0
 178 003c FFF7FEFF 		bl	ADC_SigDel_StartConvert
 179              	.LVL20:
 145:user_inputs.c ****         CyDelay(10);
 180              		.loc 1 145 0
 181 0040 0A20     		movs	r0, #10
 182 0042 FFF7FEFF 		bl	CyDelay
 183              	.LVL21:
 146:user_inputs.c ****    
 147:user_inputs.c ****         
 148:user_inputs.c ****         int16 measure = ADC_SigDel_GetResult16(); 
 184              		.loc 1 148 0
 185 0046 FFF7FEFF 		bl	ADC_SigDel_GetResult16
 186              	.LVL22:
 149:user_inputs.c ****         
 150:user_inputs.c ****         data_long[lut_index]= measure >> 8;
 187              		.loc 1 150 0
 188 004a 2388     		ldrh	r3, [r4]
 189 004c C0F30721 		ubfx	r1, r0, #8, #8
 190 0050 084A     		ldr	r2, .L16+12
 191 0052 D154     		strb	r1, [r2, r3]
 151:user_inputs.c ****         data_long[lut_index+1]= measure & 0xFF;
ARM GAS  C:\Users\ANNASP~1\AppData\Local\Temp\ccNxsOvN.s 			page 7


 192              		.loc 1 151 0
 193 0054 0133     		adds	r3, r3, #1
 194 0056 C0B2     		uxtb	r0, r0
 195              	.LVL23:
 196 0058 D054     		strb	r0, [r2, r3]
 152:user_inputs.c ****         
 153:user_inputs.c ****         lut_index++; 
 197              		.loc 1 153 0
 198 005a 2380     		strh	r3, [r4]	@ movhi
 154:user_inputs.c ****         
 155:user_inputs.c ****         isr_dac_Enable();  // enable the interrupts to start the dac
 199              		.loc 1 155 0
 200 005c FFF7FEFF 		bl	isr_dac_Enable
 201              	.LVL24:
 156:user_inputs.c ****         isr_adc_Enable();  // and the adc
 202              		.loc 1 156 0
 203 0060 FFF7FEFF 		bl	isr_adc_Enable
 204              	.LVL25:
 205              	.L12:
 206 0064 38BD     		pop	{r3, r4, r5, pc}
 207              	.L17:
 208 0066 00BF     		.align	2
 209              	.L16:
 210 0068 00000000 		.word	lut_index
 211 006c 00000000 		.word	waveform_lut
 212 0070 00000000 		.word	lut_value
 213 0074 00000000 		.word	data_long
 214              	.LBE2:
 215              		.cfi_endproc
 216              	.LFE66:
 217              		.size	user_run_procedure, .-user_run_procedure
 218              		.section	.text.user_reset_device,"ax",%progbits
 219              		.align	2
 220              		.global	user_reset_device
 221              		.thumb
 222              		.thumb_func
 223              		.type	user_reset_device, %function
 224              	user_reset_device:
 225              	.LFB67:
 157:user_inputs.c ****         
 158:user_inputs.c ****     }
 159:user_inputs.c **** }
 160:user_inputs.c **** 
 161:user_inputs.c **** /******************************************************************************
 162:user_inputs.c **** * Function Name: user_reset_device
 163:user_inputs.c **** *******************************************************************************
 164:user_inputs.c **** *
 165:user_inputs.c **** * Summary:
 166:user_inputs.c **** *  Stop all operations by disabling all the isrs and reset the look up table index to 0
 167:user_inputs.c **** *  
 168:user_inputs.c **** * Global variables:
 169:user_inputs.c **** *  uint16_t lut_index: current index of the look up table
 170:user_inputs.c **** *
 171:user_inputs.c **** * Parameters:
 172:user_inputs.c **** *  None
 173:user_inputs.c **** *
 174:user_inputs.c **** * Return:
ARM GAS  C:\Users\ANNASP~1\AppData\Local\Temp\ccNxsOvN.s 			page 8


 175:user_inputs.c **** *  None
 176:user_inputs.c **** *
 177:user_inputs.c **** *******************************************************************************/
 178:user_inputs.c **** 
 179:user_inputs.c **** void user_reset_device(void) {
 226              		.loc 1 179 0
 227              		.cfi_startproc
 228              		@ args = 0, pretend = 0, frame = 0
 229              		@ frame_needed = 0, uses_anonymous_args = 0
 230 0000 08B5     		push	{r3, lr}
 231              		.cfi_def_cfa_offset 8
 232              		.cfi_offset 3, -8
 233              		.cfi_offset 14, -4
 180:user_inputs.c ****     isr_dac_Disable();
 234              		.loc 1 180 0
 235 0002 FFF7FEFF 		bl	isr_dac_Disable
 236              	.LVL26:
 181:user_inputs.c ****     isr_adc_Disable();
 237              		.loc 1 181 0
 238 0006 FFF7FEFF 		bl	isr_adc_Disable
 239              	.LVL27:
 182:user_inputs.c ****     isr_adcAmp_Disable();
 240              		.loc 1 182 0
 241 000a FFF7FEFF 		bl	isr_adcAmp_Disable
 242              	.LVL28:
 183:user_inputs.c ****     helper_HardwareSleep();
 243              		.loc 1 183 0
 244 000e FFF7FEFF 		bl	helper_HardwareSleep
 245              	.LVL29:
 184:user_inputs.c ****     
 185:user_inputs.c ****     lut_index = 0;  
 246              		.loc 1 185 0
 247 0012 0022     		movs	r2, #0
 248 0014 014B     		ldr	r3, .L20
 249 0016 1A80     		strh	r2, [r3]	@ movhi
 250 0018 08BD     		pop	{r3, pc}
 251              	.L21:
 252 001a 00BF     		.align	2
 253              	.L20:
 254 001c 00000000 		.word	lut_index
 255              		.cfi_endproc
 256              	.LFE67:
 257              		.size	user_reset_device, .-user_reset_device
 258              		.section	.text.user_set_isr_timer,"ax",%progbits
 259              		.align	2
 260              		.global	user_set_isr_timer
 261              		.thumb
 262              		.thumb_func
 263              		.type	user_set_isr_timer, %function
 264              	user_set_isr_timer:
 265              	.LFB68:
 186:user_inputs.c **** }
 187:user_inputs.c **** 
 188:user_inputs.c **** /******************************************************************************
 189:user_inputs.c **** * Function Name: user_set_isr_timer
 190:user_inputs.c **** *******************************************************************************
 191:user_inputs.c **** *
ARM GAS  C:\Users\ANNASP~1\AppData\Local\Temp\ccNxsOvN.s 			page 9


 192:user_inputs.c **** * Summary:
 193:user_inputs.c **** *  Set the PWM that is used as the isr timer
 194:user_inputs.c **** * 
 195:user_inputs.c **** * Parameters:
 196:user_inputs.c **** *  uint8 data_buffer[]: array of chars used to setup the DAC or to read the DAC settings
 197:user_inputs.c **** *  input is T|XXXXX
 198:user_inputs.c **** *  XXXXX - uint16_t with the number to put in the period register
 199:user_inputs.c **** *  the compare register will be loaded with XXXXX / 2
 200:user_inputs.c **** *  
 201:user_inputs.c **** * Return:
 202:user_inputs.c **** *  Set the compare and period register of the pwm 
 203:user_inputs.c **** *
 204:user_inputs.c **** *******************************************************************************/
 205:user_inputs.c **** 
 206:user_inputs.c **** 
 207:user_inputs.c **** void user_set_isr_timer(volatile uint8_t data_buffer[]) {
 266              		.loc 1 207 0
 267              		.cfi_startproc
 268              		@ args = 0, pretend = 0, frame = 0
 269              		@ frame_needed = 0, uses_anonymous_args = 0
 270              	.LVL30:
 271 0000 10B5     		push	{r4, lr}
 272              		.cfi_def_cfa_offset 8
 273              		.cfi_offset 4, -8
 274              		.cfi_offset 14, -4
 275 0002 0446     		mov	r4, r0
 208:user_inputs.c ****     PWM_isr_Wakeup();
 276              		.loc 1 208 0
 277 0004 FFF7FEFF 		bl	PWM_isr_Wakeup
 278              	.LVL31:
 209:user_inputs.c ****     uint16_t scan_rate = data_buffer[1];  //arriva il valore di scan rate
 279              		.loc 1 209 0
 280 0008 6378     		ldrb	r3, [r4, #1]	@ zero_extendqisi2
 281 000a 1C46     		mov	r4, r3
 282              	.LVL32:
 210:user_inputs.c ****     uint16_t resolution_dac=1;
 211:user_inputs.c ****     
 212:user_inputs.c ****     uint8_t voltage_source = helper_check_voltage_source();
 283              		.loc 1 212 0
 284 000c FFF7FEFF 		bl	helper_check_voltage_source
 285              	.LVL33:
 213:user_inputs.c ****     
 214:user_inputs.c ****     if(voltage_source){
 286              		.loc 1 214 0
 287 0010 08B1     		cbz	r0, .L24
 215:user_inputs.c ****        resolution_dac = 16;
 288              		.loc 1 215 0
 289 0012 1023     		movs	r3, #16
 290 0014 00E0     		b	.L23
 291              	.L24:
 210:user_inputs.c ****     uint16_t resolution_dac=1;
 292              		.loc 1 210 0
 293 0016 0123     		movs	r3, #1
 294              	.L23:
 295              	.LVL34:
 216:user_inputs.c ****     }
 217:user_inputs.c ****     else if(voltage_source==2){
ARM GAS  C:\Users\ANNASP~1\AppData\Local\Temp\ccNxsOvN.s 			page 10


 218:user_inputs.c ****        resolution_dac = 1;
 219:user_inputs.c ****     }
 220:user_inputs.c ****     uint16_t timer_period = (resolution_dac/scan_rate)*FREQ_CLOCK_PWM;
 296              		.loc 1 220 0
 297 0018 B3FBF4F3 		udiv	r3, r3, r4
 298              	.LVL35:
 299 001c 03EB8302 		add	r2, r3, r3, lsl #2
 300 0020 C3EB4213 		rsb	r3, r3, r2, lsl #5
 301 0024 1C02     		lsls	r4, r3, #8
 302              	.LVL36:
 303 0026 A4B2     		uxth	r4, r4
 304              	.LVL37:
 221:user_inputs.c ****     PWM_isr_WriteCompare((uint16_t)(timer_period / 2));  // not used in amperometry run so just set
 305              		.loc 1 221 0
 306 0028 6008     		lsrs	r0, r4, #1
 307              	.LVL38:
 308 002a FFF7FEFF 		bl	PWM_isr_WriteCompare
 309              	.LVL39:
 222:user_inputs.c ****     PWM_isr_WritePeriod(timer_period-1);
 310              		.loc 1 222 0
 311 002e 601E     		subs	r0, r4, #1
 312 0030 80B2     		uxth	r0, r0
 313 0032 FFF7FEFF 		bl	PWM_isr_WritePeriod
 314              	.LVL40:
 223:user_inputs.c ****     PWM_isr_Sleep();
 315              		.loc 1 223 0
 316 0036 FFF7FEFF 		bl	PWM_isr_Sleep
 317              	.LVL41:
 318 003a 10BD     		pop	{r4, pc}
 319              		.cfi_endproc
 320              	.LFE68:
 321              		.size	user_set_isr_timer, .-user_set_isr_timer
 322              		.section	.text.user_chrono_lut_maker,"ax",%progbits
 323              		.align	2
 324              		.global	user_chrono_lut_maker
 325              		.thumb
 326              		.thumb_func
 327              		.type	user_chrono_lut_maker, %function
 328              	user_chrono_lut_maker:
 329              	.LFB69:
 224:user_inputs.c **** }
 225:user_inputs.c **** 
 226:user_inputs.c **** /******************************************************************************
 227:user_inputs.c **** * Function Name: user_chrono_lut_maker
 228:user_inputs.c **** *******************************************************************************
 229:user_inputs.c **** *
 230:user_inputs.c **** * Summary:
 231:user_inputs.c **** *  Make a look up table that will run a chronoamperometry experiment.  Hackish now
 232:user_inputs.c **** * 
 233:user_inputs.c **** * Parameters:
 234:user_inputs.c **** *  uint8 data_buffer[]: array of chars used to make the look up table
 235:user_inputs.c **** *  input is Q|XXXX|YYYY|ZZZZZ: 
 236:user_inputs.c **** *  XXXX - uint16_t with the number to put in the DAC for the baseline voltage and the 
 237:user_inputs.c **** *  voltage to be applied after the pulse.
 238:user_inputs.c **** *  YYYY - uint16_t with the number to put in the dac during the pulse of the experiment
 239:user_inputs.c **** *  ZZZZZ - uint16_t to put in the period of the PWM timer to set the sampling rate
 240:user_inputs.c **** *  
ARM GAS  C:\Users\ANNASP~1\AppData\Local\Temp\ccNxsOvN.s 			page 11


 241:user_inputs.c **** * Global variables:
 242:user_inputs.c **** *  uint16_t lut_value: value gotten from the look up table that is to be applied to the DAC
 243:user_inputs.c **** *  uint16_t waveform_lut[]:  look up table of the waveform to apply to the DAC
 244:user_inputs.c **** *  
 245:user_inputs.c **** * Return:
 246:user_inputs.c **** *  4000 - how long the look up table will be
 247:user_inputs.c **** *
 248:user_inputs.c **** *******************************************************************************/
 249:user_inputs.c **** 
 250:user_inputs.c **** uint16_t user_chrono_lut_maker(volatile uint8_t data_buffer[]) {
 330              		.loc 1 250 0
 331              		.cfi_startproc
 332              		@ args = 0, pretend = 0, frame = 0
 333              		@ frame_needed = 0, uses_anonymous_args = 0
 334              	.LVL42:
 335 0000 10B5     		push	{r4, lr}
 336              		.cfi_def_cfa_offset 8
 337              		.cfi_offset 4, -8
 338              		.cfi_offset 14, -4
 339 0002 0446     		mov	r4, r0
 251:user_inputs.c ****     
 252:user_inputs.c ****     PWM_isr_Wakeup(); 
 340              		.loc 1 252 0
 341 0004 FFF7FEFF 		bl	PWM_isr_Wakeup
 342              	.LVL43:
 253:user_inputs.c ****     
 254:user_inputs.c ****     if(!data_buffer[1]){ // data_buffer[1]==0 da il tipo di misura 
 343              		.loc 1 254 0
 344 0008 6378     		ldrb	r3, [r4, #1]	@ zero_extendqisi2
 345 000a 13F0FF0F 		tst	r3, #255
 346 000e 0AD1     		bne	.L27
 347              	.LBB3:
 255:user_inputs.c ****         uint16_t ca_period; 
 256:user_inputs.c ****         
 257:user_inputs.c ****         ca_period = (data_buffer[2] << 8) | data_buffer[3]; 
 348              		.loc 1 257 0
 349 0010 A278     		ldrb	r2, [r4, #2]	@ zero_extendqisi2
 350 0012 E378     		ldrb	r3, [r4, #3]	@ zero_extendqisi2
 351              	.LVL44:
 258:user_inputs.c ****         
 259:user_inputs.c ****         lut_length = LUT_MakePulse(data_buffer[5], data_buffer[4], ca_period);
 352              		.loc 1 259 0
 353 0014 6079     		ldrb	r0, [r4, #5]	@ zero_extendqisi2
 354 0016 2179     		ldrb	r1, [r4, #4]	@ zero_extendqisi2
 355 0018 43EA0222 		orr	r2, r3, r2, lsl #8
 356              	.LVL45:
 357 001c FFF7FEFF 		bl	LUT_MakePulse
 358              	.LVL46:
 359 0020 104B     		ldr	r3, .L30
 360 0022 1880     		strh	r0, [r3]	@ movhi
 361              	.LBE3:
 362 0024 0DE0     		b	.L28
 363              	.L27:
 364              	.LVL47:
 365              	.LBB4:
 260:user_inputs.c ****     }
 261:user_inputs.c ****     else{
ARM GAS  C:\Users\ANNASP~1\AppData\Local\Temp\ccNxsOvN.s 			page 12


 262:user_inputs.c ****         uint16_t baseline = 0b01111111; // 0V = DAC value equal to 128
 263:user_inputs.c ****         uint16_t pulse = EEPROM_ReadByte(V_DEFAULT_ADD); 
 366              		.loc 1 263 0
 367 0026 0220     		movs	r0, #2
 368 0028 FFF7FEFF 		bl	EEPROM_ReadByte
 369              	.LVL48:
 370 002c 84B2     		uxth	r4, r0
 371              	.LVL49:
 264:user_inputs.c ****         uint16_t ca_period = EEPROM_ReadByte(CA_PERIOD_DEFAULT_ADD); 
 372              		.loc 1 264 0
 373 002e 0920     		movs	r0, #9
 374 0030 FFF7FEFF 		bl	EEPROM_ReadByte
 375              	.LVL50:
 265:user_inputs.c ****         lut_length = LUT_MakePulse(baseline, pulse, ca_period);
 376              		.loc 1 265 0
 377 0034 82B2     		uxth	r2, r0
 378 0036 2146     		mov	r1, r4
 379 0038 7F20     		movs	r0, #127
 380              	.LVL51:
 381 003a FFF7FEFF 		bl	LUT_MakePulse
 382              	.LVL52:
 383 003e 094B     		ldr	r3, .L30
 384 0040 1880     		strh	r0, [r3]	@ movhi
 385              	.LVL53:
 386              	.L28:
 387              	.LBE4:
 266:user_inputs.c ****     }
 267:user_inputs.c ****     
 268:user_inputs.c ****     //cambio il periodo del PWM utilizzando 10ms (default), leggerò la misura ogni 10ms
 269:user_inputs.c **** 
 270:user_inputs.c ****     PWM_isr_WriteCompare((uint16_t)(T_PWM_STD_CA / 2));  
 388              		.loc 1 270 0
 389 0042 4FF4D850 		mov	r0, #6912
 390 0046 FFF7FEFF 		bl	PWM_isr_WriteCompare
 391              	.LVL54:
 271:user_inputs.c ****     PWM_isr_WritePeriod((uint16_t) T_PWM_STD_CA - 1);
 392              		.loc 1 271 0
 393 004a 43F2FF50 		movw	r0, #13823
 394 004e FFF7FEFF 		bl	PWM_isr_WritePeriod
 395              	.LVL55:
 272:user_inputs.c ****                 
 273:user_inputs.c ****     lut_value = waveform_lut[0];  // setup the dac so when it starts it will be at the correct volt
 396              		.loc 1 273 0
 397 0052 054B     		ldr	r3, .L30+4
 398 0054 1A88     		ldrh	r2, [r3]
 399 0056 054B     		ldr	r3, .L30+8
 400 0058 1A80     		strh	r2, [r3]	@ movhi
 274:user_inputs.c ****            
 275:user_inputs.c ****     PWM_isr_Sleep();
 401              		.loc 1 275 0
 402 005a FFF7FEFF 		bl	PWM_isr_Sleep
 403              	.LVL56:
 276:user_inputs.c ****     return lut_length; // ritorna la lunghezza della lut creata (varia in base al tempo in cui il v
 277:user_inputs.c **** }
 404              		.loc 1 277 0
 405 005e 014B     		ldr	r3, .L30
 406 0060 1888     		ldrh	r0, [r3]
ARM GAS  C:\Users\ANNASP~1\AppData\Local\Temp\ccNxsOvN.s 			page 13


 407 0062 10BD     		pop	{r4, pc}
 408              	.L31:
 409              		.align	2
 410              	.L30:
 411 0064 00000000 		.word	lut_length
 412 0068 00000000 		.word	waveform_lut
 413 006c 00000000 		.word	lut_value
 414              		.cfi_endproc
 415              	.LFE69:
 416              		.size	user_chrono_lut_maker, .-user_chrono_lut_maker
 417              		.section	.text.user_EEPROM_management,"ax",%progbits
 418              		.align	2
 419              		.global	user_EEPROM_management
 420              		.thumb
 421              		.thumb_func
 422              		.type	user_EEPROM_management, %function
 423              	user_EEPROM_management:
 424              	.LFB70:
 278:user_inputs.c **** 
 279:user_inputs.c **** /******************************************************************************
 280:user_inputs.c **** * Function Name: user_EEPROM_management
 281:user_inputs.c **** *******************************************************************************
 282:user_inputs.c **** *
 283:user_inputs.c **** * Summary:
 284:user_inputs.c **** *  We use this function in order to read the default values stored in the EEPROM (if data_buffer[1]
 285:user_inputs.c **** *  or to write new default values (if data_buffer[2]==0).
 286:user_inputs.c **** * 
 287:user_inputs.c **** * Parameters: 
 288:user_inputs.c **** *  uint8 data_buffer[]: array of chars that is used to pass the values that we want to write in the
 289:user_inputs.c **** *  
 290:user_inputs.c **** * Global variables:
 291:user_inputs.c **** *  cystatus return_value: return value of the EEPROM_WriteByte function, if it is != CYRET_SUCCESS 
 292:user_inputs.c **** *  
 293:user_inputs.c **** * Return:
 294:user_inputs.c **** *  None
 295:user_inputs.c **** *
 296:user_inputs.c **** *******************************************************************************/
 297:user_inputs.c **** 
 298:user_inputs.c **** void user_EEPROM_management(uint8_t data_buffer[]){
 425              		.loc 1 298 0
 426              		.cfi_startproc
 427              		@ args = 0, pretend = 0, frame = 0
 428              		@ frame_needed = 0, uses_anonymous_args = 0
 429              	.LVL57:
 430 0000 10B5     		push	{r4, lr}
 431              		.cfi_def_cfa_offset 8
 432              		.cfi_offset 4, -8
 433              		.cfi_offset 14, -4
 434              	.LVL58:
 299:user_inputs.c ****     uint8_t i = 1;
 300:user_inputs.c ****     if (data_buffer[i]){  // if data_buffer[1] is equal to 1 the user reads the default values from
 435              		.loc 1 300 0
 436 0002 4378     		ldrb	r3, [r0, #1]	@ zero_extendqisi2
 437 0004 73B3     		cbz	r3, .L33
 301:user_inputs.c ****         data_to_send[0] = EEPROM_DATA;
 438              		.loc 1 301 0
 439 0006 454C     		ldr	r4, .L45
ARM GAS  C:\Users\ANNASP~1\AppData\Local\Temp\ccNxsOvN.s 			page 14


 440 0008 4523     		movs	r3, #69
 441 000a 2370     		strb	r3, [r4]
 442              	.LVL59:
 302:user_inputs.c ****         data_to_send[i++] = EEPROM_ReadByte(M_DEFAULT_ADD); 
 443              		.loc 1 302 0
 444 000c 0020     		movs	r0, #0
 445              	.LVL60:
 446 000e FFF7FEFF 		bl	EEPROM_ReadByte
 447              	.LVL61:
 448 0012 6070     		strb	r0, [r4, #1]
 449              	.LVL62:
 303:user_inputs.c ****         data_to_send[i++] = EEPROM_ReadByte(Q_DEFAULT_ADD);
 450              		.loc 1 303 0
 451 0014 0120     		movs	r0, #1
 452 0016 FFF7FEFF 		bl	EEPROM_ReadByte
 453              	.LVL63:
 454 001a A070     		strb	r0, [r4, #2]
 455              	.LVL64:
 304:user_inputs.c ****         data_to_send[i++] = EEPROM_ReadByte(V_DEFAULT_ADD);
 456              		.loc 1 304 0
 457 001c 0220     		movs	r0, #2
 458 001e FFF7FEFF 		bl	EEPROM_ReadByte
 459              	.LVL65:
 460 0022 E070     		strb	r0, [r4, #3]
 461              	.LVL66:
 305:user_inputs.c ****         data_to_send[i++] = EEPROM_ReadByte(T_DEFAULT_ADD);
 462              		.loc 1 305 0
 463 0024 0320     		movs	r0, #3
 464 0026 FFF7FEFF 		bl	EEPROM_ReadByte
 465              	.LVL67:
 466 002a 2071     		strb	r0, [r4, #4]
 467              	.LVL68:
 306:user_inputs.c ****         data_to_send[i++] = EEPROM_ReadByte(SCAN_RATE_DEFAULT_ADD);
 468              		.loc 1 306 0
 469 002c 0420     		movs	r0, #4
 470 002e FFF7FEFF 		bl	EEPROM_ReadByte
 471              	.LVL69:
 472 0032 6071     		strb	r0, [r4, #5]
 473              	.LVL70:
 307:user_inputs.c ****         data_to_send[i++] = EEPROM_ReadByte(START_DEFAULT_ADD);
 474              		.loc 1 307 0
 475 0034 0520     		movs	r0, #5
 476 0036 FFF7FEFF 		bl	EEPROM_ReadByte
 477              	.LVL71:
 478 003a A071     		strb	r0, [r4, #6]
 479              	.LVL72:
 308:user_inputs.c ****         data_to_send[i++] = EEPROM_ReadByte(END_DEFAULT_ADD);
 480              		.loc 1 308 0
 481 003c 0620     		movs	r0, #6
 482 003e FFF7FEFF 		bl	EEPROM_ReadByte
 483              	.LVL73:
 484 0042 E071     		strb	r0, [r4, #7]
 485              	.LVL74:
 309:user_inputs.c ****         data_to_send[i++] = EEPROM_ReadByte(INCREMENT_DEFAULT_ADD);
 486              		.loc 1 309 0
 487 0044 0720     		movs	r0, #7
 488 0046 FFF7FEFF 		bl	EEPROM_ReadByte
ARM GAS  C:\Users\ANNASP~1\AppData\Local\Temp\ccNxsOvN.s 			page 15


 489              	.LVL75:
 490 004a 2072     		strb	r0, [r4, #8]
 491              	.LVL76:
 310:user_inputs.c ****         data_to_send[i++] = EEPROM_ReadByte(STEP_DEFAULT_ADD);
 492              		.loc 1 310 0
 493 004c 0820     		movs	r0, #8
 494 004e FFF7FEFF 		bl	EEPROM_ReadByte
 495              	.LVL77:
 496 0052 6072     		strb	r0, [r4, #9]
 497              	.LVL78:
 311:user_inputs.c ****         data_to_send[i++] = EEPROM_ReadByte(CA_PERIOD_DEFAULT_ADD);
 498              		.loc 1 311 0
 499 0054 0920     		movs	r0, #9
 500 0056 FFF7FEFF 		bl	EEPROM_ReadByte
 501              	.LVL79:
 502 005a A072     		strb	r0, [r4, #10]
 312:user_inputs.c ****         
 313:user_inputs.c ****         writeBT(i);
 503              		.loc 1 313 0
 504 005c 0B20     		movs	r0, #11
 505 005e FFF7FEFF 		bl	writeBT
 506              	.LVL80:
 507 0062 10BD     		pop	{r4, pc}
 508              	.LVL81:
 509              	.L33:
 510 0064 0446     		mov	r4, r0
 314:user_inputs.c ****     }
 315:user_inputs.c ****     else{ // if data_buffer[1] is equal to 0 the user writes new default values in the EEPROM
 316:user_inputs.c ****         return_value = EEPROM_WriteByte(data_buffer[2],M_DEFAULT_ADD_USER);
 511              		.loc 1 316 0
 512 0066 0A21     		movs	r1, #10
 513 0068 8078     		ldrb	r0, [r0, #2]	@ zero_extendqisi2
 514              	.LVL82:
 515 006a FFF7FEFF 		bl	EEPROM_WriteByte
 516              	.LVL83:
 517 006e 2C4B     		ldr	r3, .L45+4
 518 0070 1860     		str	r0, [r3]
 317:user_inputs.c ****              if(return_value != CYRET_SUCCESS){
 519              		.loc 1 317 0
 520 0072 08B1     		cbz	r0, .L35
 318:user_inputs.c ****                 errorBT();
 521              		.loc 1 318 0
 522 0074 FFF7FEFF 		bl	errorBT
 523              	.LVL84:
 524              	.L35:
 319:user_inputs.c ****         }
 320:user_inputs.c ****         return_value = EEPROM_WriteByte(data_buffer[3],Q_DEFAULT_ADD_USER);
 525              		.loc 1 320 0
 526 0078 0B21     		movs	r1, #11
 527 007a E078     		ldrb	r0, [r4, #3]	@ zero_extendqisi2
 528 007c FFF7FEFF 		bl	EEPROM_WriteByte
 529              	.LVL85:
 530 0080 274B     		ldr	r3, .L45+4
 531 0082 1860     		str	r0, [r3]
 321:user_inputs.c ****              if(return_value != CYRET_SUCCESS){
 532              		.loc 1 321 0
 533 0084 08B1     		cbz	r0, .L36
ARM GAS  C:\Users\ANNASP~1\AppData\Local\Temp\ccNxsOvN.s 			page 16


 322:user_inputs.c ****                errorBT();
 534              		.loc 1 322 0
 535 0086 FFF7FEFF 		bl	errorBT
 536              	.LVL86:
 537              	.L36:
 323:user_inputs.c ****         }
 324:user_inputs.c ****         return_value = EEPROM_WriteByte(data_buffer[4],V_DEFAULT_ADD_USER);
 538              		.loc 1 324 0
 539 008a 0C21     		movs	r1, #12
 540 008c 2079     		ldrb	r0, [r4, #4]	@ zero_extendqisi2
 541 008e FFF7FEFF 		bl	EEPROM_WriteByte
 542              	.LVL87:
 543 0092 234B     		ldr	r3, .L45+4
 544 0094 1860     		str	r0, [r3]
 325:user_inputs.c ****              if(return_value != CYRET_SUCCESS){
 545              		.loc 1 325 0
 546 0096 08B1     		cbz	r0, .L37
 326:user_inputs.c ****                errorBT();
 547              		.loc 1 326 0
 548 0098 FFF7FEFF 		bl	errorBT
 549              	.LVL88:
 550              	.L37:
 327:user_inputs.c ****         }
 328:user_inputs.c ****         return_value = EEPROM_WriteByte(data_buffer[5],T_DEFAULT_ADD_USER);
 551              		.loc 1 328 0
 552 009c 0D21     		movs	r1, #13
 553 009e 6079     		ldrb	r0, [r4, #5]	@ zero_extendqisi2
 554 00a0 FFF7FEFF 		bl	EEPROM_WriteByte
 555              	.LVL89:
 556 00a4 1E4B     		ldr	r3, .L45+4
 557 00a6 1860     		str	r0, [r3]
 329:user_inputs.c ****              if(return_value != CYRET_SUCCESS){
 558              		.loc 1 329 0
 559 00a8 08B1     		cbz	r0, .L38
 330:user_inputs.c ****                errorBT();
 560              		.loc 1 330 0
 561 00aa FFF7FEFF 		bl	errorBT
 562              	.LVL90:
 563              	.L38:
 331:user_inputs.c ****         }
 332:user_inputs.c ****         return_value = EEPROM_WriteByte(data_buffer[6],SCAN_RATE_DEFAULT_ADD_USER);
 564              		.loc 1 332 0
 565 00ae 0E21     		movs	r1, #14
 566 00b0 A079     		ldrb	r0, [r4, #6]	@ zero_extendqisi2
 567 00b2 FFF7FEFF 		bl	EEPROM_WriteByte
 568              	.LVL91:
 569 00b6 1A4B     		ldr	r3, .L45+4
 570 00b8 1860     		str	r0, [r3]
 333:user_inputs.c ****              if(return_value != CYRET_SUCCESS){
 571              		.loc 1 333 0
 572 00ba 08B1     		cbz	r0, .L39
 334:user_inputs.c ****                errorBT();
 573              		.loc 1 334 0
 574 00bc FFF7FEFF 		bl	errorBT
 575              	.LVL92:
 576              	.L39:
 335:user_inputs.c ****         }
ARM GAS  C:\Users\ANNASP~1\AppData\Local\Temp\ccNxsOvN.s 			page 17


 336:user_inputs.c ****         return_value = EEPROM_WriteByte(data_buffer[7],START_DEFAULT_ADD_USER);
 577              		.loc 1 336 0
 578 00c0 0F21     		movs	r1, #15
 579 00c2 E079     		ldrb	r0, [r4, #7]	@ zero_extendqisi2
 580 00c4 FFF7FEFF 		bl	EEPROM_WriteByte
 581              	.LVL93:
 582 00c8 154B     		ldr	r3, .L45+4
 583 00ca 1860     		str	r0, [r3]
 337:user_inputs.c ****              if(return_value != CYRET_SUCCESS){
 584              		.loc 1 337 0
 585 00cc 08B1     		cbz	r0, .L40
 338:user_inputs.c ****                errorBT();
 586              		.loc 1 338 0
 587 00ce FFF7FEFF 		bl	errorBT
 588              	.LVL94:
 589              	.L40:
 339:user_inputs.c ****         }
 340:user_inputs.c ****         return_value = EEPROM_WriteByte(data_buffer[8],END_DEFAULT_ADD_USER);
 590              		.loc 1 340 0
 591 00d2 1021     		movs	r1, #16
 592 00d4 207A     		ldrb	r0, [r4, #8]	@ zero_extendqisi2
 593 00d6 FFF7FEFF 		bl	EEPROM_WriteByte
 594              	.LVL95:
 595 00da 114B     		ldr	r3, .L45+4
 596 00dc 1860     		str	r0, [r3]
 341:user_inputs.c ****              if(return_value != CYRET_SUCCESS){
 597              		.loc 1 341 0
 598 00de 08B1     		cbz	r0, .L41
 342:user_inputs.c ****                errorBT();
 599              		.loc 1 342 0
 600 00e0 FFF7FEFF 		bl	errorBT
 601              	.LVL96:
 602              	.L41:
 343:user_inputs.c ****         }
 344:user_inputs.c ****         return_value = EEPROM_WriteByte(data_buffer[9],INCREMENT_DEFAULT_ADD_USER);
 603              		.loc 1 344 0
 604 00e4 1121     		movs	r1, #17
 605 00e6 607A     		ldrb	r0, [r4, #9]	@ zero_extendqisi2
 606 00e8 FFF7FEFF 		bl	EEPROM_WriteByte
 607              	.LVL97:
 608 00ec 0C4B     		ldr	r3, .L45+4
 609 00ee 1860     		str	r0, [r3]
 345:user_inputs.c ****              if(return_value != CYRET_SUCCESS){
 610              		.loc 1 345 0
 611 00f0 08B1     		cbz	r0, .L42
 346:user_inputs.c ****                errorBT();
 612              		.loc 1 346 0
 613 00f2 FFF7FEFF 		bl	errorBT
 614              	.LVL98:
 615              	.L42:
 347:user_inputs.c ****         }
 348:user_inputs.c ****         return_value = EEPROM_WriteByte(data_buffer[10],STEP_DEFAULT_ADD_USER);
 616              		.loc 1 348 0
 617 00f6 1221     		movs	r1, #18
 618 00f8 A07A     		ldrb	r0, [r4, #10]	@ zero_extendqisi2
 619 00fa FFF7FEFF 		bl	EEPROM_WriteByte
 620              	.LVL99:
ARM GAS  C:\Users\ANNASP~1\AppData\Local\Temp\ccNxsOvN.s 			page 18


 621 00fe 084B     		ldr	r3, .L45+4
 622 0100 1860     		str	r0, [r3]
 349:user_inputs.c ****              if(return_value != CYRET_SUCCESS){
 623              		.loc 1 349 0
 624 0102 08B1     		cbz	r0, .L43
 350:user_inputs.c ****                errorBT();
 625              		.loc 1 350 0
 626 0104 FFF7FEFF 		bl	errorBT
 627              	.LVL100:
 628              	.L43:
 351:user_inputs.c ****         }
 352:user_inputs.c ****         return_value = EEPROM_WriteByte(data_buffer[11],CA_PERIOD_DEFAULT_ADD_USER);
 629              		.loc 1 352 0
 630 0108 1321     		movs	r1, #19
 631 010a E07A     		ldrb	r0, [r4, #11]	@ zero_extendqisi2
 632 010c FFF7FEFF 		bl	EEPROM_WriteByte
 633              	.LVL101:
 634 0110 034B     		ldr	r3, .L45+4
 635 0112 1860     		str	r0, [r3]
 353:user_inputs.c ****              if(return_value != CYRET_SUCCESS){
 636              		.loc 1 353 0
 637 0114 08B1     		cbz	r0, .L32
 354:user_inputs.c ****                errorBT();
 638              		.loc 1 354 0
 639 0116 FFF7FEFF 		bl	errorBT
 640              	.LVL102:
 641              	.L32:
 642 011a 10BD     		pop	{r4, pc}
 643              	.LVL103:
 644              	.L46:
 645              		.align	2
 646              	.L45:
 647 011c 00000000 		.word	data_to_send
 648 0120 00000000 		.word	return_value
 649              		.cfi_endproc
 650              	.LFE70:
 651              		.size	user_EEPROM_management, .-user_EEPROM_management
 652              		.comm	finished_procedure_flag,1,1
 653              		.comm	data_long,5000,4
 654              		.comm	data_to_send,120,4
 655              		.comm	temp,20,4
 656              		.comm	data_buffer,20,4
 657              		.comm	selected_voltage_source,1,1
 658              		.comm	tia_calibration_values,21,4
 659              		.comm	lut_length,2,2
 660              		.comm	lut_index,2,2
 661              		.comm	waveform_lut,10010,4
 662              		.comm	lut_value,2,2
 663              		.comm	return_value,4,4
 664              		.comm	dac_ground_value,2,2
 665              		.bss
 666              		.type	input_flag, %object
 667              		.size	input_flag, 1
 668              	input_flag:
 669 0000 00       		.space	1
 670              		.type	connection_state, %object
 671              		.size	connection_state, 1
ARM GAS  C:\Users\ANNASP~1\AppData\Local\Temp\ccNxsOvN.s 			page 19


 672              	connection_state:
 673 0001 00       		.space	1
 674              		.type	buffer_index, %object
 675              		.size	buffer_index, 1
 676              	buffer_index:
 677 0002 00       		.space	1
 678              		.text
 679              	.Letext0:
 680              		.file 2 "c:\\program files (x86)\\cypress\\psoc creator\\4.4\\psoc creator\\import\\gnu\\arm\\5.4.
 681              		.file 3 "c:\\program files (x86)\\cypress\\psoc creator\\4.4\\psoc creator\\import\\gnu\\arm\\5.4.
 682              		.file 4 "Generated_Source\\PSoC5/cytypes.h"
 683              		.file 5 "globals.h"
 684              		.file 6 "Generated_Source\\PSoC5/core_cm3.h"
 685              		.file 7 "parametric_lut.h"
 686              		.file 8 "BT_protocols.h"
 687              		.file 9 "user_inputs.h"
 688              		.file 10 "Generated_Source\\PSoC5/TIA.h"
 689              		.file 11 "hardware_management.h"
 690              		.file 12 "DAC_management.h"
 691              		.file 13 "Generated_Source\\PSoC5/isr_adcAmp.h"
 692              		.file 14 "Generated_Source\\PSoC5/Opamp_Aux.h"
 693              		.file 15 "Generated_Source\\PSoC5/ADC_SigDel.h"
 694              		.file 16 "Generated_Source\\PSoC5/CyLib.h"
 695              		.file 17 "Generated_Source\\PSoC5/isr_dac.h"
 696              		.file 18 "Generated_Source\\PSoC5/isr_adc.h"
 697              		.file 19 "Generated_Source\\PSoC5/PWM_isr.h"
 698              		.file 20 "Generated_Source\\PSoC5/EEPROM.h"